
Lab 4.elf:     file format elf32-littlearm

Sections:
Idx Name          Size      VMA       LMA       File off  Algn
  0 .isr_vector   000001bc  08000000  08000000  00010000  2**0
                  CONTENTS, ALLOC, LOAD, READONLY, DATA
  1 .text         00008658  080001c0  080001c0  000101c0  2**4
                  CONTENTS, ALLOC, LOAD, READONLY, CODE
  2 .rodata       0000054c  08008818  08008818  00018818  2**3
                  CONTENTS, ALLOC, LOAD, READONLY, DATA
  3 .ARM.extab    00000000  08008d64  08008d64  00020270  2**0
                  CONTENTS
  4 .ARM          00000008  08008d64  08008d64  00018d64  2**2
                  CONTENTS, ALLOC, LOAD, READONLY, DATA
  5 .preinit_array 00000000  08008d6c  08008d6c  00020270  2**0
                  CONTENTS, ALLOC, LOAD, DATA
  6 .init_array   00000004  08008d6c  08008d6c  00018d6c  2**2
                  CONTENTS, ALLOC, LOAD, DATA
  7 .fini_array   00000004  08008d70  08008d70  00018d70  2**2
                  CONTENTS, ALLOC, LOAD, DATA
  8 .data         00000270  20000000  08008d74  00020000  2**2
                  CONTENTS, ALLOC, LOAD, DATA
  9 .bss          000014c0  20000270  08008fe4  00020270  2**2
                  ALLOC
 10 ._user_heap_stack 00000600  20001730  08008fe4  00021730  2**0
                  ALLOC
 11 .ARM.attributes 00000030  00000000  00000000  00020270  2**0
                  CONTENTS, READONLY
 12 .comment      00000043  00000000  00000000  000202a0  2**0
                  CONTENTS, READONLY
 13 .debug_frame  00001274  00000000  00000000  000202e4  2**2
                  CONTENTS, READONLY, DEBUGGING, OCTETS

Disassembly of section .text:

080001c0 <__do_global_dtors_aux>:
 80001c0:	b510      	push	{r4, lr}
 80001c2:	4c05      	ldr	r4, [pc, #20]	; (80001d8 <__do_global_dtors_aux+0x18>)
 80001c4:	7823      	ldrb	r3, [r4, #0]
 80001c6:	b933      	cbnz	r3, 80001d6 <__do_global_dtors_aux+0x16>
 80001c8:	4b04      	ldr	r3, [pc, #16]	; (80001dc <__do_global_dtors_aux+0x1c>)
 80001ca:	b113      	cbz	r3, 80001d2 <__do_global_dtors_aux+0x12>
 80001cc:	4804      	ldr	r0, [pc, #16]	; (80001e0 <__do_global_dtors_aux+0x20>)
 80001ce:	f3af 8000 	nop.w
 80001d2:	2301      	movs	r3, #1
 80001d4:	7023      	strb	r3, [r4, #0]
 80001d6:	bd10      	pop	{r4, pc}
 80001d8:	20000270 	.word	0x20000270
 80001dc:	00000000 	.word	0x00000000
 80001e0:	08008800 	.word	0x08008800

080001e4 <frame_dummy>:
 80001e4:	b508      	push	{r3, lr}
 80001e6:	4b03      	ldr	r3, [pc, #12]	; (80001f4 <frame_dummy+0x10>)
 80001e8:	b11b      	cbz	r3, 80001f2 <frame_dummy+0xe>
 80001ea:	4903      	ldr	r1, [pc, #12]	; (80001f8 <frame_dummy+0x14>)
 80001ec:	4803      	ldr	r0, [pc, #12]	; (80001fc <frame_dummy+0x18>)
 80001ee:	f3af 8000 	nop.w
 80001f2:	bd08      	pop	{r3, pc}
 80001f4:	00000000 	.word	0x00000000
 80001f8:	20000274 	.word	0x20000274
 80001fc:	08008800 	.word	0x08008800

08000200 <memchr>:
 8000200:	f001 01ff 	and.w	r1, r1, #255	; 0xff
 8000204:	2a10      	cmp	r2, #16
 8000206:	db2b      	blt.n	8000260 <memchr+0x60>
 8000208:	f010 0f07 	tst.w	r0, #7
 800020c:	d008      	beq.n	8000220 <memchr+0x20>
 800020e:	f810 3b01 	ldrb.w	r3, [r0], #1
 8000212:	3a01      	subs	r2, #1
 8000214:	428b      	cmp	r3, r1
 8000216:	d02d      	beq.n	8000274 <memchr+0x74>
 8000218:	f010 0f07 	tst.w	r0, #7
 800021c:	b342      	cbz	r2, 8000270 <memchr+0x70>
 800021e:	d1f6      	bne.n	800020e <memchr+0xe>
 8000220:	b4f0      	push	{r4, r5, r6, r7}
 8000222:	ea41 2101 	orr.w	r1, r1, r1, lsl #8
 8000226:	ea41 4101 	orr.w	r1, r1, r1, lsl #16
 800022a:	f022 0407 	bic.w	r4, r2, #7
 800022e:	f07f 0700 	mvns.w	r7, #0
 8000232:	2300      	movs	r3, #0
 8000234:	e8f0 5602 	ldrd	r5, r6, [r0], #8
 8000238:	3c08      	subs	r4, #8
 800023a:	ea85 0501 	eor.w	r5, r5, r1
 800023e:	ea86 0601 	eor.w	r6, r6, r1
 8000242:	fa85 f547 	uadd8	r5, r5, r7
 8000246:	faa3 f587 	sel	r5, r3, r7
 800024a:	fa86 f647 	uadd8	r6, r6, r7
 800024e:	faa5 f687 	sel	r6, r5, r7
 8000252:	b98e      	cbnz	r6, 8000278 <memchr+0x78>
 8000254:	d1ee      	bne.n	8000234 <memchr+0x34>
 8000256:	bcf0      	pop	{r4, r5, r6, r7}
 8000258:	f001 01ff 	and.w	r1, r1, #255	; 0xff
 800025c:	f002 0207 	and.w	r2, r2, #7
 8000260:	b132      	cbz	r2, 8000270 <memchr+0x70>
 8000262:	f810 3b01 	ldrb.w	r3, [r0], #1
 8000266:	3a01      	subs	r2, #1
 8000268:	ea83 0301 	eor.w	r3, r3, r1
 800026c:	b113      	cbz	r3, 8000274 <memchr+0x74>
 800026e:	d1f8      	bne.n	8000262 <memchr+0x62>
 8000270:	2000      	movs	r0, #0
 8000272:	4770      	bx	lr
 8000274:	3801      	subs	r0, #1
 8000276:	4770      	bx	lr
 8000278:	2d00      	cmp	r5, #0
 800027a:	bf06      	itte	eq
 800027c:	4635      	moveq	r5, r6
 800027e:	3803      	subeq	r0, #3
 8000280:	3807      	subne	r0, #7
 8000282:	f015 0f01 	tst.w	r5, #1
 8000286:	d107      	bne.n	8000298 <memchr+0x98>
 8000288:	3001      	adds	r0, #1
 800028a:	f415 7f80 	tst.w	r5, #256	; 0x100
 800028e:	bf02      	ittt	eq
 8000290:	3001      	addeq	r0, #1
 8000292:	f415 3fc0 	tsteq.w	r5, #98304	; 0x18000
 8000296:	3001      	addeq	r0, #1
 8000298:	bcf0      	pop	{r4, r5, r6, r7}
 800029a:	3801      	subs	r0, #1
 800029c:	4770      	bx	lr
 800029e:	bf00      	nop

080002a0 <strlen>:
 80002a0:	4603      	mov	r3, r0
 80002a2:	f813 2b01 	ldrb.w	r2, [r3], #1
 80002a6:	2a00      	cmp	r2, #0
 80002a8:	d1fb      	bne.n	80002a2 <strlen+0x2>
 80002aa:	1a18      	subs	r0, r3, r0
 80002ac:	3801      	subs	r0, #1
 80002ae:	4770      	bx	lr

080002b0 <__aeabi_drsub>:
 80002b0:	f081 4100 	eor.w	r1, r1, #2147483648	; 0x80000000
 80002b4:	e002      	b.n	80002bc <__adddf3>
 80002b6:	bf00      	nop

080002b8 <__aeabi_dsub>:
 80002b8:	f083 4300 	eor.w	r3, r3, #2147483648	; 0x80000000

080002bc <__adddf3>:
 80002bc:	b530      	push	{r4, r5, lr}
 80002be:	ea4f 0441 	mov.w	r4, r1, lsl #1
 80002c2:	ea4f 0543 	mov.w	r5, r3, lsl #1
 80002c6:	ea94 0f05 	teq	r4, r5
 80002ca:	bf08      	it	eq
 80002cc:	ea90 0f02 	teqeq	r0, r2
 80002d0:	bf1f      	itttt	ne
 80002d2:	ea54 0c00 	orrsne.w	ip, r4, r0
 80002d6:	ea55 0c02 	orrsne.w	ip, r5, r2
 80002da:	ea7f 5c64 	mvnsne.w	ip, r4, asr #21
 80002de:	ea7f 5c65 	mvnsne.w	ip, r5, asr #21
 80002e2:	f000 80e2 	beq.w	80004aa <__adddf3+0x1ee>
 80002e6:	ea4f 5454 	mov.w	r4, r4, lsr #21
 80002ea:	ebd4 5555 	rsbs	r5, r4, r5, lsr #21
 80002ee:	bfb8      	it	lt
 80002f0:	426d      	neglt	r5, r5
 80002f2:	dd0c      	ble.n	800030e <__adddf3+0x52>
 80002f4:	442c      	add	r4, r5
 80002f6:	ea80 0202 	eor.w	r2, r0, r2
 80002fa:	ea81 0303 	eor.w	r3, r1, r3
 80002fe:	ea82 0000 	eor.w	r0, r2, r0
 8000302:	ea83 0101 	eor.w	r1, r3, r1
 8000306:	ea80 0202 	eor.w	r2, r0, r2
 800030a:	ea81 0303 	eor.w	r3, r1, r3
 800030e:	2d36      	cmp	r5, #54	; 0x36
 8000310:	bf88      	it	hi
 8000312:	bd30      	pophi	{r4, r5, pc}
 8000314:	f011 4f00 	tst.w	r1, #2147483648	; 0x80000000
 8000318:	ea4f 3101 	mov.w	r1, r1, lsl #12
 800031c:	f44f 1c80 	mov.w	ip, #1048576	; 0x100000
 8000320:	ea4c 3111 	orr.w	r1, ip, r1, lsr #12
 8000324:	d002      	beq.n	800032c <__adddf3+0x70>
 8000326:	4240      	negs	r0, r0
 8000328:	eb61 0141 	sbc.w	r1, r1, r1, lsl #1
 800032c:	f013 4f00 	tst.w	r3, #2147483648	; 0x80000000
 8000330:	ea4f 3303 	mov.w	r3, r3, lsl #12
 8000334:	ea4c 3313 	orr.w	r3, ip, r3, lsr #12
 8000338:	d002      	beq.n	8000340 <__adddf3+0x84>
 800033a:	4252      	negs	r2, r2
 800033c:	eb63 0343 	sbc.w	r3, r3, r3, lsl #1
 8000340:	ea94 0f05 	teq	r4, r5
 8000344:	f000 80a7 	beq.w	8000496 <__adddf3+0x1da>
 8000348:	f1a4 0401 	sub.w	r4, r4, #1
 800034c:	f1d5 0e20 	rsbs	lr, r5, #32
 8000350:	db0d      	blt.n	800036e <__adddf3+0xb2>
 8000352:	fa02 fc0e 	lsl.w	ip, r2, lr
 8000356:	fa22 f205 	lsr.w	r2, r2, r5
 800035a:	1880      	adds	r0, r0, r2
 800035c:	f141 0100 	adc.w	r1, r1, #0
 8000360:	fa03 f20e 	lsl.w	r2, r3, lr
 8000364:	1880      	adds	r0, r0, r2
 8000366:	fa43 f305 	asr.w	r3, r3, r5
 800036a:	4159      	adcs	r1, r3
 800036c:	e00e      	b.n	800038c <__adddf3+0xd0>
 800036e:	f1a5 0520 	sub.w	r5, r5, #32
 8000372:	f10e 0e20 	add.w	lr, lr, #32
 8000376:	2a01      	cmp	r2, #1
 8000378:	fa03 fc0e 	lsl.w	ip, r3, lr
 800037c:	bf28      	it	cs
 800037e:	f04c 0c02 	orrcs.w	ip, ip, #2
 8000382:	fa43 f305 	asr.w	r3, r3, r5
 8000386:	18c0      	adds	r0, r0, r3
 8000388:	eb51 71e3 	adcs.w	r1, r1, r3, asr #31
 800038c:	f001 4500 	and.w	r5, r1, #2147483648	; 0x80000000
 8000390:	d507      	bpl.n	80003a2 <__adddf3+0xe6>
 8000392:	f04f 0e00 	mov.w	lr, #0
 8000396:	f1dc 0c00 	rsbs	ip, ip, #0
 800039a:	eb7e 0000 	sbcs.w	r0, lr, r0
 800039e:	eb6e 0101 	sbc.w	r1, lr, r1
 80003a2:	f5b1 1f80 	cmp.w	r1, #1048576	; 0x100000
 80003a6:	d31b      	bcc.n	80003e0 <__adddf3+0x124>
 80003a8:	f5b1 1f00 	cmp.w	r1, #2097152	; 0x200000
 80003ac:	d30c      	bcc.n	80003c8 <__adddf3+0x10c>
 80003ae:	0849      	lsrs	r1, r1, #1
 80003b0:	ea5f 0030 	movs.w	r0, r0, rrx
 80003b4:	ea4f 0c3c 	mov.w	ip, ip, rrx
 80003b8:	f104 0401 	add.w	r4, r4, #1
 80003bc:	ea4f 5244 	mov.w	r2, r4, lsl #21
 80003c0:	f512 0f80 	cmn.w	r2, #4194304	; 0x400000
 80003c4:	f080 809a 	bcs.w	80004fc <__adddf3+0x240>
 80003c8:	f1bc 4f00 	cmp.w	ip, #2147483648	; 0x80000000
 80003cc:	bf08      	it	eq
 80003ce:	ea5f 0c50 	movseq.w	ip, r0, lsr #1
 80003d2:	f150 0000 	adcs.w	r0, r0, #0
 80003d6:	eb41 5104 	adc.w	r1, r1, r4, lsl #20
 80003da:	ea41 0105 	orr.w	r1, r1, r5
 80003de:	bd30      	pop	{r4, r5, pc}
 80003e0:	ea5f 0c4c 	movs.w	ip, ip, lsl #1
 80003e4:	4140      	adcs	r0, r0
 80003e6:	eb41 0101 	adc.w	r1, r1, r1
 80003ea:	3c01      	subs	r4, #1
 80003ec:	bf28      	it	cs
 80003ee:	f5b1 1f80 	cmpcs.w	r1, #1048576	; 0x100000
 80003f2:	d2e9      	bcs.n	80003c8 <__adddf3+0x10c>
 80003f4:	f091 0f00 	teq	r1, #0
 80003f8:	bf04      	itt	eq
 80003fa:	4601      	moveq	r1, r0
 80003fc:	2000      	moveq	r0, #0
 80003fe:	fab1 f381 	clz	r3, r1
 8000402:	bf08      	it	eq
 8000404:	3320      	addeq	r3, #32
 8000406:	f1a3 030b 	sub.w	r3, r3, #11
 800040a:	f1b3 0220 	subs.w	r2, r3, #32
 800040e:	da0c      	bge.n	800042a <__adddf3+0x16e>
 8000410:	320c      	adds	r2, #12
 8000412:	dd08      	ble.n	8000426 <__adddf3+0x16a>
 8000414:	f102 0c14 	add.w	ip, r2, #20
 8000418:	f1c2 020c 	rsb	r2, r2, #12
 800041c:	fa01 f00c 	lsl.w	r0, r1, ip
 8000420:	fa21 f102 	lsr.w	r1, r1, r2
 8000424:	e00c      	b.n	8000440 <__adddf3+0x184>
 8000426:	f102 0214 	add.w	r2, r2, #20
 800042a:	bfd8      	it	le
 800042c:	f1c2 0c20 	rsble	ip, r2, #32
 8000430:	fa01 f102 	lsl.w	r1, r1, r2
 8000434:	fa20 fc0c 	lsr.w	ip, r0, ip
 8000438:	bfdc      	itt	le
 800043a:	ea41 010c 	orrle.w	r1, r1, ip
 800043e:	4090      	lslle	r0, r2
 8000440:	1ae4      	subs	r4, r4, r3
 8000442:	bfa2      	ittt	ge
 8000444:	eb01 5104 	addge.w	r1, r1, r4, lsl #20
 8000448:	4329      	orrge	r1, r5
 800044a:	bd30      	popge	{r4, r5, pc}
 800044c:	ea6f 0404 	mvn.w	r4, r4
 8000450:	3c1f      	subs	r4, #31
 8000452:	da1c      	bge.n	800048e <__adddf3+0x1d2>
 8000454:	340c      	adds	r4, #12
 8000456:	dc0e      	bgt.n	8000476 <__adddf3+0x1ba>
 8000458:	f104 0414 	add.w	r4, r4, #20
 800045c:	f1c4 0220 	rsb	r2, r4, #32
 8000460:	fa20 f004 	lsr.w	r0, r0, r4
 8000464:	fa01 f302 	lsl.w	r3, r1, r2
 8000468:	ea40 0003 	orr.w	r0, r0, r3
 800046c:	fa21 f304 	lsr.w	r3, r1, r4
 8000470:	ea45 0103 	orr.w	r1, r5, r3
 8000474:	bd30      	pop	{r4, r5, pc}
 8000476:	f1c4 040c 	rsb	r4, r4, #12
 800047a:	f1c4 0220 	rsb	r2, r4, #32
 800047e:	fa20 f002 	lsr.w	r0, r0, r2
 8000482:	fa01 f304 	lsl.w	r3, r1, r4
 8000486:	ea40 0003 	orr.w	r0, r0, r3
 800048a:	4629      	mov	r1, r5
 800048c:	bd30      	pop	{r4, r5, pc}
 800048e:	fa21 f004 	lsr.w	r0, r1, r4
 8000492:	4629      	mov	r1, r5
 8000494:	bd30      	pop	{r4, r5, pc}
 8000496:	f094 0f00 	teq	r4, #0
 800049a:	f483 1380 	eor.w	r3, r3, #1048576	; 0x100000
 800049e:	bf06      	itte	eq
 80004a0:	f481 1180 	eoreq.w	r1, r1, #1048576	; 0x100000
 80004a4:	3401      	addeq	r4, #1
 80004a6:	3d01      	subne	r5, #1
 80004a8:	e74e      	b.n	8000348 <__adddf3+0x8c>
 80004aa:	ea7f 5c64 	mvns.w	ip, r4, asr #21
 80004ae:	bf18      	it	ne
 80004b0:	ea7f 5c65 	mvnsne.w	ip, r5, asr #21
 80004b4:	d029      	beq.n	800050a <__adddf3+0x24e>
 80004b6:	ea94 0f05 	teq	r4, r5
 80004ba:	bf08      	it	eq
 80004bc:	ea90 0f02 	teqeq	r0, r2
 80004c0:	d005      	beq.n	80004ce <__adddf3+0x212>
 80004c2:	ea54 0c00 	orrs.w	ip, r4, r0
 80004c6:	bf04      	itt	eq
 80004c8:	4619      	moveq	r1, r3
 80004ca:	4610      	moveq	r0, r2
 80004cc:	bd30      	pop	{r4, r5, pc}
 80004ce:	ea91 0f03 	teq	r1, r3
 80004d2:	bf1e      	ittt	ne
 80004d4:	2100      	movne	r1, #0
 80004d6:	2000      	movne	r0, #0
 80004d8:	bd30      	popne	{r4, r5, pc}
 80004da:	ea5f 5c54 	movs.w	ip, r4, lsr #21
 80004de:	d105      	bne.n	80004ec <__adddf3+0x230>
 80004e0:	0040      	lsls	r0, r0, #1
 80004e2:	4149      	adcs	r1, r1
 80004e4:	bf28      	it	cs
 80004e6:	f041 4100 	orrcs.w	r1, r1, #2147483648	; 0x80000000
 80004ea:	bd30      	pop	{r4, r5, pc}
 80004ec:	f514 0480 	adds.w	r4, r4, #4194304	; 0x400000
 80004f0:	bf3c      	itt	cc
 80004f2:	f501 1180 	addcc.w	r1, r1, #1048576	; 0x100000
 80004f6:	bd30      	popcc	{r4, r5, pc}
 80004f8:	f001 4500 	and.w	r5, r1, #2147483648	; 0x80000000
 80004fc:	f045 41fe 	orr.w	r1, r5, #2130706432	; 0x7f000000
 8000500:	f441 0170 	orr.w	r1, r1, #15728640	; 0xf00000
 8000504:	f04f 0000 	mov.w	r0, #0
 8000508:	bd30      	pop	{r4, r5, pc}
 800050a:	ea7f 5c64 	mvns.w	ip, r4, asr #21
 800050e:	bf1a      	itte	ne
 8000510:	4619      	movne	r1, r3
 8000512:	4610      	movne	r0, r2
 8000514:	ea7f 5c65 	mvnseq.w	ip, r5, asr #21
 8000518:	bf1c      	itt	ne
 800051a:	460b      	movne	r3, r1
 800051c:	4602      	movne	r2, r0
 800051e:	ea50 3401 	orrs.w	r4, r0, r1, lsl #12
 8000522:	bf06      	itte	eq
 8000524:	ea52 3503 	orrseq.w	r5, r2, r3, lsl #12
 8000528:	ea91 0f03 	teqeq	r1, r3
 800052c:	f441 2100 	orrne.w	r1, r1, #524288	; 0x80000
 8000530:	bd30      	pop	{r4, r5, pc}
 8000532:	bf00      	nop

08000534 <__aeabi_ui2d>:
 8000534:	f090 0f00 	teq	r0, #0
 8000538:	bf04      	itt	eq
 800053a:	2100      	moveq	r1, #0
 800053c:	4770      	bxeq	lr
 800053e:	b530      	push	{r4, r5, lr}
 8000540:	f44f 6480 	mov.w	r4, #1024	; 0x400
 8000544:	f104 0432 	add.w	r4, r4, #50	; 0x32
 8000548:	f04f 0500 	mov.w	r5, #0
 800054c:	f04f 0100 	mov.w	r1, #0
 8000550:	e750      	b.n	80003f4 <__adddf3+0x138>
 8000552:	bf00      	nop

08000554 <__aeabi_i2d>:
 8000554:	f090 0f00 	teq	r0, #0
 8000558:	bf04      	itt	eq
 800055a:	2100      	moveq	r1, #0
 800055c:	4770      	bxeq	lr
 800055e:	b530      	push	{r4, r5, lr}
 8000560:	f44f 6480 	mov.w	r4, #1024	; 0x400
 8000564:	f104 0432 	add.w	r4, r4, #50	; 0x32
 8000568:	f010 4500 	ands.w	r5, r0, #2147483648	; 0x80000000
 800056c:	bf48      	it	mi
 800056e:	4240      	negmi	r0, r0
 8000570:	f04f 0100 	mov.w	r1, #0
 8000574:	e73e      	b.n	80003f4 <__adddf3+0x138>
 8000576:	bf00      	nop

08000578 <__aeabi_f2d>:
 8000578:	0042      	lsls	r2, r0, #1
 800057a:	ea4f 01e2 	mov.w	r1, r2, asr #3
 800057e:	ea4f 0131 	mov.w	r1, r1, rrx
 8000582:	ea4f 7002 	mov.w	r0, r2, lsl #28
 8000586:	bf1f      	itttt	ne
 8000588:	f012 437f 	andsne.w	r3, r2, #4278190080	; 0xff000000
 800058c:	f093 4f7f 	teqne	r3, #4278190080	; 0xff000000
 8000590:	f081 5160 	eorne.w	r1, r1, #939524096	; 0x38000000
 8000594:	4770      	bxne	lr
 8000596:	f032 427f 	bics.w	r2, r2, #4278190080	; 0xff000000
 800059a:	bf08      	it	eq
 800059c:	4770      	bxeq	lr
 800059e:	f093 4f7f 	teq	r3, #4278190080	; 0xff000000
 80005a2:	bf04      	itt	eq
 80005a4:	f441 2100 	orreq.w	r1, r1, #524288	; 0x80000
 80005a8:	4770      	bxeq	lr
 80005aa:	b530      	push	{r4, r5, lr}
 80005ac:	f44f 7460 	mov.w	r4, #896	; 0x380
 80005b0:	f001 4500 	and.w	r5, r1, #2147483648	; 0x80000000
 80005b4:	f021 4100 	bic.w	r1, r1, #2147483648	; 0x80000000
 80005b8:	e71c      	b.n	80003f4 <__adddf3+0x138>
 80005ba:	bf00      	nop

080005bc <__aeabi_ul2d>:
 80005bc:	ea50 0201 	orrs.w	r2, r0, r1
 80005c0:	bf08      	it	eq
 80005c2:	4770      	bxeq	lr
 80005c4:	b530      	push	{r4, r5, lr}
 80005c6:	f04f 0500 	mov.w	r5, #0
 80005ca:	e00a      	b.n	80005e2 <__aeabi_l2d+0x16>

080005cc <__aeabi_l2d>:
 80005cc:	ea50 0201 	orrs.w	r2, r0, r1
 80005d0:	bf08      	it	eq
 80005d2:	4770      	bxeq	lr
 80005d4:	b530      	push	{r4, r5, lr}
 80005d6:	f011 4500 	ands.w	r5, r1, #2147483648	; 0x80000000
 80005da:	d502      	bpl.n	80005e2 <__aeabi_l2d+0x16>
 80005dc:	4240      	negs	r0, r0
 80005de:	eb61 0141 	sbc.w	r1, r1, r1, lsl #1
 80005e2:	f44f 6480 	mov.w	r4, #1024	; 0x400
 80005e6:	f104 0432 	add.w	r4, r4, #50	; 0x32
 80005ea:	ea5f 5c91 	movs.w	ip, r1, lsr #22
 80005ee:	f43f aed8 	beq.w	80003a2 <__adddf3+0xe6>
 80005f2:	f04f 0203 	mov.w	r2, #3
 80005f6:	ea5f 0cdc 	movs.w	ip, ip, lsr #3
 80005fa:	bf18      	it	ne
 80005fc:	3203      	addne	r2, #3
 80005fe:	ea5f 0cdc 	movs.w	ip, ip, lsr #3
 8000602:	bf18      	it	ne
 8000604:	3203      	addne	r2, #3
 8000606:	eb02 02dc 	add.w	r2, r2, ip, lsr #3
 800060a:	f1c2 0320 	rsb	r3, r2, #32
 800060e:	fa00 fc03 	lsl.w	ip, r0, r3
 8000612:	fa20 f002 	lsr.w	r0, r0, r2
 8000616:	fa01 fe03 	lsl.w	lr, r1, r3
 800061a:	ea40 000e 	orr.w	r0, r0, lr
 800061e:	fa21 f102 	lsr.w	r1, r1, r2
 8000622:	4414      	add	r4, r2
 8000624:	e6bd      	b.n	80003a2 <__adddf3+0xe6>
 8000626:	bf00      	nop

08000628 <__aeabi_dmul>:
 8000628:	b570      	push	{r4, r5, r6, lr}
 800062a:	f04f 0cff 	mov.w	ip, #255	; 0xff
 800062e:	f44c 6ce0 	orr.w	ip, ip, #1792	; 0x700
 8000632:	ea1c 5411 	ands.w	r4, ip, r1, lsr #20
 8000636:	bf1d      	ittte	ne
 8000638:	ea1c 5513 	andsne.w	r5, ip, r3, lsr #20
 800063c:	ea94 0f0c 	teqne	r4, ip
 8000640:	ea95 0f0c 	teqne	r5, ip
 8000644:	f000 f8de 	bleq	8000804 <__aeabi_dmul+0x1dc>
 8000648:	442c      	add	r4, r5
 800064a:	ea81 0603 	eor.w	r6, r1, r3
 800064e:	ea21 514c 	bic.w	r1, r1, ip, lsl #21
 8000652:	ea23 534c 	bic.w	r3, r3, ip, lsl #21
 8000656:	ea50 3501 	orrs.w	r5, r0, r1, lsl #12
 800065a:	bf18      	it	ne
 800065c:	ea52 3503 	orrsne.w	r5, r2, r3, lsl #12
 8000660:	f441 1180 	orr.w	r1, r1, #1048576	; 0x100000
 8000664:	f443 1380 	orr.w	r3, r3, #1048576	; 0x100000
 8000668:	d038      	beq.n	80006dc <__aeabi_dmul+0xb4>
 800066a:	fba0 ce02 	umull	ip, lr, r0, r2
 800066e:	f04f 0500 	mov.w	r5, #0
 8000672:	fbe1 e502 	umlal	lr, r5, r1, r2
 8000676:	f006 4200 	and.w	r2, r6, #2147483648	; 0x80000000
 800067a:	fbe0 e503 	umlal	lr, r5, r0, r3
 800067e:	f04f 0600 	mov.w	r6, #0
 8000682:	fbe1 5603 	umlal	r5, r6, r1, r3
 8000686:	f09c 0f00 	teq	ip, #0
 800068a:	bf18      	it	ne
 800068c:	f04e 0e01 	orrne.w	lr, lr, #1
 8000690:	f1a4 04ff 	sub.w	r4, r4, #255	; 0xff
 8000694:	f5b6 7f00 	cmp.w	r6, #512	; 0x200
 8000698:	f564 7440 	sbc.w	r4, r4, #768	; 0x300
 800069c:	d204      	bcs.n	80006a8 <__aeabi_dmul+0x80>
 800069e:	ea5f 0e4e 	movs.w	lr, lr, lsl #1
 80006a2:	416d      	adcs	r5, r5
 80006a4:	eb46 0606 	adc.w	r6, r6, r6
 80006a8:	ea42 21c6 	orr.w	r1, r2, r6, lsl #11
 80006ac:	ea41 5155 	orr.w	r1, r1, r5, lsr #21
 80006b0:	ea4f 20c5 	mov.w	r0, r5, lsl #11
 80006b4:	ea40 505e 	orr.w	r0, r0, lr, lsr #21
 80006b8:	ea4f 2ece 	mov.w	lr, lr, lsl #11
 80006bc:	f1b4 0cfd 	subs.w	ip, r4, #253	; 0xfd
 80006c0:	bf88      	it	hi
 80006c2:	f5bc 6fe0 	cmphi.w	ip, #1792	; 0x700
 80006c6:	d81e      	bhi.n	8000706 <__aeabi_dmul+0xde>
 80006c8:	f1be 4f00 	cmp.w	lr, #2147483648	; 0x80000000
 80006cc:	bf08      	it	eq
 80006ce:	ea5f 0e50 	movseq.w	lr, r0, lsr #1
 80006d2:	f150 0000 	adcs.w	r0, r0, #0
 80006d6:	eb41 5104 	adc.w	r1, r1, r4, lsl #20
 80006da:	bd70      	pop	{r4, r5, r6, pc}
 80006dc:	f006 4600 	and.w	r6, r6, #2147483648	; 0x80000000
 80006e0:	ea46 0101 	orr.w	r1, r6, r1
 80006e4:	ea40 0002 	orr.w	r0, r0, r2
 80006e8:	ea81 0103 	eor.w	r1, r1, r3
 80006ec:	ebb4 045c 	subs.w	r4, r4, ip, lsr #1
 80006f0:	bfc2      	ittt	gt
 80006f2:	ebd4 050c 	rsbsgt	r5, r4, ip
 80006f6:	ea41 5104 	orrgt.w	r1, r1, r4, lsl #20
 80006fa:	bd70      	popgt	{r4, r5, r6, pc}
 80006fc:	f441 1180 	orr.w	r1, r1, #1048576	; 0x100000
 8000700:	f04f 0e00 	mov.w	lr, #0
 8000704:	3c01      	subs	r4, #1
 8000706:	f300 80ab 	bgt.w	8000860 <__aeabi_dmul+0x238>
 800070a:	f114 0f36 	cmn.w	r4, #54	; 0x36
 800070e:	bfde      	ittt	le
 8000710:	2000      	movle	r0, #0
 8000712:	f001 4100 	andle.w	r1, r1, #2147483648	; 0x80000000
 8000716:	bd70      	pople	{r4, r5, r6, pc}
 8000718:	f1c4 0400 	rsb	r4, r4, #0
 800071c:	3c20      	subs	r4, #32
 800071e:	da35      	bge.n	800078c <__aeabi_dmul+0x164>
 8000720:	340c      	adds	r4, #12
 8000722:	dc1b      	bgt.n	800075c <__aeabi_dmul+0x134>
 8000724:	f104 0414 	add.w	r4, r4, #20
 8000728:	f1c4 0520 	rsb	r5, r4, #32
 800072c:	fa00 f305 	lsl.w	r3, r0, r5
 8000730:	fa20 f004 	lsr.w	r0, r0, r4
 8000734:	fa01 f205 	lsl.w	r2, r1, r5
 8000738:	ea40 0002 	orr.w	r0, r0, r2
 800073c:	f001 4200 	and.w	r2, r1, #2147483648	; 0x80000000
 8000740:	f021 4100 	bic.w	r1, r1, #2147483648	; 0x80000000
 8000744:	eb10 70d3 	adds.w	r0, r0, r3, lsr #31
 8000748:	fa21 f604 	lsr.w	r6, r1, r4
 800074c:	eb42 0106 	adc.w	r1, r2, r6
 8000750:	ea5e 0e43 	orrs.w	lr, lr, r3, lsl #1
 8000754:	bf08      	it	eq
 8000756:	ea20 70d3 	biceq.w	r0, r0, r3, lsr #31
 800075a:	bd70      	pop	{r4, r5, r6, pc}
 800075c:	f1c4 040c 	rsb	r4, r4, #12
 8000760:	f1c4 0520 	rsb	r5, r4, #32
 8000764:	fa00 f304 	lsl.w	r3, r0, r4
 8000768:	fa20 f005 	lsr.w	r0, r0, r5
 800076c:	fa01 f204 	lsl.w	r2, r1, r4
 8000770:	ea40 0002 	orr.w	r0, r0, r2
 8000774:	f001 4100 	and.w	r1, r1, #2147483648	; 0x80000000
 8000778:	eb10 70d3 	adds.w	r0, r0, r3, lsr #31
 800077c:	f141 0100 	adc.w	r1, r1, #0
 8000780:	ea5e 0e43 	orrs.w	lr, lr, r3, lsl #1
 8000784:	bf08      	it	eq
 8000786:	ea20 70d3 	biceq.w	r0, r0, r3, lsr #31
 800078a:	bd70      	pop	{r4, r5, r6, pc}
 800078c:	f1c4 0520 	rsb	r5, r4, #32
 8000790:	fa00 f205 	lsl.w	r2, r0, r5
 8000794:	ea4e 0e02 	orr.w	lr, lr, r2
 8000798:	fa20 f304 	lsr.w	r3, r0, r4
 800079c:	fa01 f205 	lsl.w	r2, r1, r5
 80007a0:	ea43 0302 	orr.w	r3, r3, r2
 80007a4:	fa21 f004 	lsr.w	r0, r1, r4
 80007a8:	f001 4100 	and.w	r1, r1, #2147483648	; 0x80000000
 80007ac:	fa21 f204 	lsr.w	r2, r1, r4
 80007b0:	ea20 0002 	bic.w	r0, r0, r2
 80007b4:	eb00 70d3 	add.w	r0, r0, r3, lsr #31
 80007b8:	ea5e 0e43 	orrs.w	lr, lr, r3, lsl #1
 80007bc:	bf08      	it	eq
 80007be:	ea20 70d3 	biceq.w	r0, r0, r3, lsr #31
 80007c2:	bd70      	pop	{r4, r5, r6, pc}
 80007c4:	f094 0f00 	teq	r4, #0
 80007c8:	d10f      	bne.n	80007ea <__aeabi_dmul+0x1c2>
 80007ca:	f001 4600 	and.w	r6, r1, #2147483648	; 0x80000000
 80007ce:	0040      	lsls	r0, r0, #1
 80007d0:	eb41 0101 	adc.w	r1, r1, r1
 80007d4:	f411 1f80 	tst.w	r1, #1048576	; 0x100000
 80007d8:	bf08      	it	eq
 80007da:	3c01      	subeq	r4, #1
 80007dc:	d0f7      	beq.n	80007ce <__aeabi_dmul+0x1a6>
 80007de:	ea41 0106 	orr.w	r1, r1, r6
 80007e2:	f095 0f00 	teq	r5, #0
 80007e6:	bf18      	it	ne
 80007e8:	4770      	bxne	lr
 80007ea:	f003 4600 	and.w	r6, r3, #2147483648	; 0x80000000
 80007ee:	0052      	lsls	r2, r2, #1
 80007f0:	eb43 0303 	adc.w	r3, r3, r3
 80007f4:	f413 1f80 	tst.w	r3, #1048576	; 0x100000
 80007f8:	bf08      	it	eq
 80007fa:	3d01      	subeq	r5, #1
 80007fc:	d0f7      	beq.n	80007ee <__aeabi_dmul+0x1c6>
 80007fe:	ea43 0306 	orr.w	r3, r3, r6
 8000802:	4770      	bx	lr
 8000804:	ea94 0f0c 	teq	r4, ip
 8000808:	ea0c 5513 	and.w	r5, ip, r3, lsr #20
 800080c:	bf18      	it	ne
 800080e:	ea95 0f0c 	teqne	r5, ip
 8000812:	d00c      	beq.n	800082e <__aeabi_dmul+0x206>
 8000814:	ea50 0641 	orrs.w	r6, r0, r1, lsl #1
 8000818:	bf18      	it	ne
 800081a:	ea52 0643 	orrsne.w	r6, r2, r3, lsl #1
 800081e:	d1d1      	bne.n	80007c4 <__aeabi_dmul+0x19c>
 8000820:	ea81 0103 	eor.w	r1, r1, r3
 8000824:	f001 4100 	and.w	r1, r1, #2147483648	; 0x80000000
 8000828:	f04f 0000 	mov.w	r0, #0
 800082c:	bd70      	pop	{r4, r5, r6, pc}
 800082e:	ea50 0641 	orrs.w	r6, r0, r1, lsl #1
 8000832:	bf06      	itte	eq
 8000834:	4610      	moveq	r0, r2
 8000836:	4619      	moveq	r1, r3
 8000838:	ea52 0643 	orrsne.w	r6, r2, r3, lsl #1
 800083c:	d019      	beq.n	8000872 <__aeabi_dmul+0x24a>
 800083e:	ea94 0f0c 	teq	r4, ip
 8000842:	d102      	bne.n	800084a <__aeabi_dmul+0x222>
 8000844:	ea50 3601 	orrs.w	r6, r0, r1, lsl #12
 8000848:	d113      	bne.n	8000872 <__aeabi_dmul+0x24a>
 800084a:	ea95 0f0c 	teq	r5, ip
 800084e:	d105      	bne.n	800085c <__aeabi_dmul+0x234>
 8000850:	ea52 3603 	orrs.w	r6, r2, r3, lsl #12
 8000854:	bf1c      	itt	ne
 8000856:	4610      	movne	r0, r2
 8000858:	4619      	movne	r1, r3
 800085a:	d10a      	bne.n	8000872 <__aeabi_dmul+0x24a>
 800085c:	ea81 0103 	eor.w	r1, r1, r3
 8000860:	f001 4100 	and.w	r1, r1, #2147483648	; 0x80000000
 8000864:	f041 41fe 	orr.w	r1, r1, #2130706432	; 0x7f000000
 8000868:	f441 0170 	orr.w	r1, r1, #15728640	; 0xf00000
 800086c:	f04f 0000 	mov.w	r0, #0
 8000870:	bd70      	pop	{r4, r5, r6, pc}
 8000872:	f041 41fe 	orr.w	r1, r1, #2130706432	; 0x7f000000
 8000876:	f441 0178 	orr.w	r1, r1, #16252928	; 0xf80000
 800087a:	bd70      	pop	{r4, r5, r6, pc}

0800087c <__aeabi_ddiv>:
 800087c:	b570      	push	{r4, r5, r6, lr}
 800087e:	f04f 0cff 	mov.w	ip, #255	; 0xff
 8000882:	f44c 6ce0 	orr.w	ip, ip, #1792	; 0x700
 8000886:	ea1c 5411 	ands.w	r4, ip, r1, lsr #20
 800088a:	bf1d      	ittte	ne
 800088c:	ea1c 5513 	andsne.w	r5, ip, r3, lsr #20
 8000890:	ea94 0f0c 	teqne	r4, ip
 8000894:	ea95 0f0c 	teqne	r5, ip
 8000898:	f000 f8a7 	bleq	80009ea <__aeabi_ddiv+0x16e>
 800089c:	eba4 0405 	sub.w	r4, r4, r5
 80008a0:	ea81 0e03 	eor.w	lr, r1, r3
 80008a4:	ea52 3503 	orrs.w	r5, r2, r3, lsl #12
 80008a8:	ea4f 3101 	mov.w	r1, r1, lsl #12
 80008ac:	f000 8088 	beq.w	80009c0 <__aeabi_ddiv+0x144>
 80008b0:	ea4f 3303 	mov.w	r3, r3, lsl #12
 80008b4:	f04f 5580 	mov.w	r5, #268435456	; 0x10000000
 80008b8:	ea45 1313 	orr.w	r3, r5, r3, lsr #4
 80008bc:	ea43 6312 	orr.w	r3, r3, r2, lsr #24
 80008c0:	ea4f 2202 	mov.w	r2, r2, lsl #8
 80008c4:	ea45 1511 	orr.w	r5, r5, r1, lsr #4
 80008c8:	ea45 6510 	orr.w	r5, r5, r0, lsr #24
 80008cc:	ea4f 2600 	mov.w	r6, r0, lsl #8
 80008d0:	f00e 4100 	and.w	r1, lr, #2147483648	; 0x80000000
 80008d4:	429d      	cmp	r5, r3
 80008d6:	bf08      	it	eq
 80008d8:	4296      	cmpeq	r6, r2
 80008da:	f144 04fd 	adc.w	r4, r4, #253	; 0xfd
 80008de:	f504 7440 	add.w	r4, r4, #768	; 0x300
 80008e2:	d202      	bcs.n	80008ea <__aeabi_ddiv+0x6e>
 80008e4:	085b      	lsrs	r3, r3, #1
 80008e6:	ea4f 0232 	mov.w	r2, r2, rrx
 80008ea:	1ab6      	subs	r6, r6, r2
 80008ec:	eb65 0503 	sbc.w	r5, r5, r3
 80008f0:	085b      	lsrs	r3, r3, #1
 80008f2:	ea4f 0232 	mov.w	r2, r2, rrx
 80008f6:	f44f 1080 	mov.w	r0, #1048576	; 0x100000
 80008fa:	f44f 2c00 	mov.w	ip, #524288	; 0x80000
 80008fe:	ebb6 0e02 	subs.w	lr, r6, r2
 8000902:	eb75 0e03 	sbcs.w	lr, r5, r3
 8000906:	bf22      	ittt	cs
 8000908:	1ab6      	subcs	r6, r6, r2
 800090a:	4675      	movcs	r5, lr
 800090c:	ea40 000c 	orrcs.w	r0, r0, ip
 8000910:	085b      	lsrs	r3, r3, #1
 8000912:	ea4f 0232 	mov.w	r2, r2, rrx
 8000916:	ebb6 0e02 	subs.w	lr, r6, r2
 800091a:	eb75 0e03 	sbcs.w	lr, r5, r3
 800091e:	bf22      	ittt	cs
 8000920:	1ab6      	subcs	r6, r6, r2
 8000922:	4675      	movcs	r5, lr
 8000924:	ea40 005c 	orrcs.w	r0, r0, ip, lsr #1
 8000928:	085b      	lsrs	r3, r3, #1
 800092a:	ea4f 0232 	mov.w	r2, r2, rrx
 800092e:	ebb6 0e02 	subs.w	lr, r6, r2
 8000932:	eb75 0e03 	sbcs.w	lr, r5, r3
 8000936:	bf22      	ittt	cs
 8000938:	1ab6      	subcs	r6, r6, r2
 800093a:	4675      	movcs	r5, lr
 800093c:	ea40 009c 	orrcs.w	r0, r0, ip, lsr #2
 8000940:	085b      	lsrs	r3, r3, #1
 8000942:	ea4f 0232 	mov.w	r2, r2, rrx
 8000946:	ebb6 0e02 	subs.w	lr, r6, r2
 800094a:	eb75 0e03 	sbcs.w	lr, r5, r3
 800094e:	bf22      	ittt	cs
 8000950:	1ab6      	subcs	r6, r6, r2
 8000952:	4675      	movcs	r5, lr
 8000954:	ea40 00dc 	orrcs.w	r0, r0, ip, lsr #3
 8000958:	ea55 0e06 	orrs.w	lr, r5, r6
 800095c:	d018      	beq.n	8000990 <__aeabi_ddiv+0x114>
 800095e:	ea4f 1505 	mov.w	r5, r5, lsl #4
 8000962:	ea45 7516 	orr.w	r5, r5, r6, lsr #28
 8000966:	ea4f 1606 	mov.w	r6, r6, lsl #4
 800096a:	ea4f 03c3 	mov.w	r3, r3, lsl #3
 800096e:	ea43 7352 	orr.w	r3, r3, r2, lsr #29
 8000972:	ea4f 02c2 	mov.w	r2, r2, lsl #3
 8000976:	ea5f 1c1c 	movs.w	ip, ip, lsr #4
 800097a:	d1c0      	bne.n	80008fe <__aeabi_ddiv+0x82>
 800097c:	f411 1f80 	tst.w	r1, #1048576	; 0x100000
 8000980:	d10b      	bne.n	800099a <__aeabi_ddiv+0x11e>
 8000982:	ea41 0100 	orr.w	r1, r1, r0
 8000986:	f04f 0000 	mov.w	r0, #0
 800098a:	f04f 4c00 	mov.w	ip, #2147483648	; 0x80000000
 800098e:	e7b6      	b.n	80008fe <__aeabi_ddiv+0x82>
 8000990:	f411 1f80 	tst.w	r1, #1048576	; 0x100000
 8000994:	bf04      	itt	eq
 8000996:	4301      	orreq	r1, r0
 8000998:	2000      	moveq	r0, #0
 800099a:	f1b4 0cfd 	subs.w	ip, r4, #253	; 0xfd
 800099e:	bf88      	it	hi
 80009a0:	f5bc 6fe0 	cmphi.w	ip, #1792	; 0x700
 80009a4:	f63f aeaf 	bhi.w	8000706 <__aeabi_dmul+0xde>
 80009a8:	ebb5 0c03 	subs.w	ip, r5, r3
 80009ac:	bf04      	itt	eq
 80009ae:	ebb6 0c02 	subseq.w	ip, r6, r2
 80009b2:	ea5f 0c50 	movseq.w	ip, r0, lsr #1
 80009b6:	f150 0000 	adcs.w	r0, r0, #0
 80009ba:	eb41 5104 	adc.w	r1, r1, r4, lsl #20
 80009be:	bd70      	pop	{r4, r5, r6, pc}
 80009c0:	f00e 4e00 	and.w	lr, lr, #2147483648	; 0x80000000
 80009c4:	ea4e 3111 	orr.w	r1, lr, r1, lsr #12
 80009c8:	eb14 045c 	adds.w	r4, r4, ip, lsr #1
 80009cc:	bfc2      	ittt	gt
 80009ce:	ebd4 050c 	rsbsgt	r5, r4, ip
 80009d2:	ea41 5104 	orrgt.w	r1, r1, r4, lsl #20
 80009d6:	bd70      	popgt	{r4, r5, r6, pc}
 80009d8:	f441 1180 	orr.w	r1, r1, #1048576	; 0x100000
 80009dc:	f04f 0e00 	mov.w	lr, #0
 80009e0:	3c01      	subs	r4, #1
 80009e2:	e690      	b.n	8000706 <__aeabi_dmul+0xde>
 80009e4:	ea45 0e06 	orr.w	lr, r5, r6
 80009e8:	e68d      	b.n	8000706 <__aeabi_dmul+0xde>
 80009ea:	ea0c 5513 	and.w	r5, ip, r3, lsr #20
 80009ee:	ea94 0f0c 	teq	r4, ip
 80009f2:	bf08      	it	eq
 80009f4:	ea95 0f0c 	teqeq	r5, ip
 80009f8:	f43f af3b 	beq.w	8000872 <__aeabi_dmul+0x24a>
 80009fc:	ea94 0f0c 	teq	r4, ip
 8000a00:	d10a      	bne.n	8000a18 <__aeabi_ddiv+0x19c>
 8000a02:	ea50 3401 	orrs.w	r4, r0, r1, lsl #12
 8000a06:	f47f af34 	bne.w	8000872 <__aeabi_dmul+0x24a>
 8000a0a:	ea95 0f0c 	teq	r5, ip
 8000a0e:	f47f af25 	bne.w	800085c <__aeabi_dmul+0x234>
 8000a12:	4610      	mov	r0, r2
 8000a14:	4619      	mov	r1, r3
 8000a16:	e72c      	b.n	8000872 <__aeabi_dmul+0x24a>
 8000a18:	ea95 0f0c 	teq	r5, ip
 8000a1c:	d106      	bne.n	8000a2c <__aeabi_ddiv+0x1b0>
 8000a1e:	ea52 3503 	orrs.w	r5, r2, r3, lsl #12
 8000a22:	f43f aefd 	beq.w	8000820 <__aeabi_dmul+0x1f8>
 8000a26:	4610      	mov	r0, r2
 8000a28:	4619      	mov	r1, r3
 8000a2a:	e722      	b.n	8000872 <__aeabi_dmul+0x24a>
 8000a2c:	ea50 0641 	orrs.w	r6, r0, r1, lsl #1
 8000a30:	bf18      	it	ne
 8000a32:	ea52 0643 	orrsne.w	r6, r2, r3, lsl #1
 8000a36:	f47f aec5 	bne.w	80007c4 <__aeabi_dmul+0x19c>
 8000a3a:	ea50 0441 	orrs.w	r4, r0, r1, lsl #1
 8000a3e:	f47f af0d 	bne.w	800085c <__aeabi_dmul+0x234>
 8000a42:	ea52 0543 	orrs.w	r5, r2, r3, lsl #1
 8000a46:	f47f aeeb 	bne.w	8000820 <__aeabi_dmul+0x1f8>
 8000a4a:	e712      	b.n	8000872 <__aeabi_dmul+0x24a>

08000a4c <__gedf2>:
 8000a4c:	f04f 3cff 	mov.w	ip, #4294967295
 8000a50:	e006      	b.n	8000a60 <__cmpdf2+0x4>
 8000a52:	bf00      	nop

08000a54 <__ledf2>:
 8000a54:	f04f 0c01 	mov.w	ip, #1
 8000a58:	e002      	b.n	8000a60 <__cmpdf2+0x4>
 8000a5a:	bf00      	nop

08000a5c <__cmpdf2>:
 8000a5c:	f04f 0c01 	mov.w	ip, #1
 8000a60:	f84d cd04 	str.w	ip, [sp, #-4]!
 8000a64:	ea4f 0c41 	mov.w	ip, r1, lsl #1
 8000a68:	ea7f 5c6c 	mvns.w	ip, ip, asr #21
 8000a6c:	ea4f 0c43 	mov.w	ip, r3, lsl #1
 8000a70:	bf18      	it	ne
 8000a72:	ea7f 5c6c 	mvnsne.w	ip, ip, asr #21
 8000a76:	d01b      	beq.n	8000ab0 <__cmpdf2+0x54>
 8000a78:	b001      	add	sp, #4
 8000a7a:	ea50 0c41 	orrs.w	ip, r0, r1, lsl #1
 8000a7e:	bf0c      	ite	eq
 8000a80:	ea52 0c43 	orrseq.w	ip, r2, r3, lsl #1
 8000a84:	ea91 0f03 	teqne	r1, r3
 8000a88:	bf02      	ittt	eq
 8000a8a:	ea90 0f02 	teqeq	r0, r2
 8000a8e:	2000      	moveq	r0, #0
 8000a90:	4770      	bxeq	lr
 8000a92:	f110 0f00 	cmn.w	r0, #0
 8000a96:	ea91 0f03 	teq	r1, r3
 8000a9a:	bf58      	it	pl
 8000a9c:	4299      	cmppl	r1, r3
 8000a9e:	bf08      	it	eq
 8000aa0:	4290      	cmpeq	r0, r2
 8000aa2:	bf2c      	ite	cs
 8000aa4:	17d8      	asrcs	r0, r3, #31
 8000aa6:	ea6f 70e3 	mvncc.w	r0, r3, asr #31
 8000aaa:	f040 0001 	orr.w	r0, r0, #1
 8000aae:	4770      	bx	lr
 8000ab0:	ea4f 0c41 	mov.w	ip, r1, lsl #1
 8000ab4:	ea7f 5c6c 	mvns.w	ip, ip, asr #21
 8000ab8:	d102      	bne.n	8000ac0 <__cmpdf2+0x64>
 8000aba:	ea50 3c01 	orrs.w	ip, r0, r1, lsl #12
 8000abe:	d107      	bne.n	8000ad0 <__cmpdf2+0x74>
 8000ac0:	ea4f 0c43 	mov.w	ip, r3, lsl #1
 8000ac4:	ea7f 5c6c 	mvns.w	ip, ip, asr #21
 8000ac8:	d1d6      	bne.n	8000a78 <__cmpdf2+0x1c>
 8000aca:	ea52 3c03 	orrs.w	ip, r2, r3, lsl #12
 8000ace:	d0d3      	beq.n	8000a78 <__cmpdf2+0x1c>
 8000ad0:	f85d 0b04 	ldr.w	r0, [sp], #4
 8000ad4:	4770      	bx	lr
 8000ad6:	bf00      	nop

08000ad8 <__aeabi_cdrcmple>:
 8000ad8:	4684      	mov	ip, r0
 8000ada:	4610      	mov	r0, r2
 8000adc:	4662      	mov	r2, ip
 8000ade:	468c      	mov	ip, r1
 8000ae0:	4619      	mov	r1, r3
 8000ae2:	4663      	mov	r3, ip
 8000ae4:	e000      	b.n	8000ae8 <__aeabi_cdcmpeq>
 8000ae6:	bf00      	nop

08000ae8 <__aeabi_cdcmpeq>:
 8000ae8:	b501      	push	{r0, lr}
 8000aea:	f7ff ffb7 	bl	8000a5c <__cmpdf2>
 8000aee:	2800      	cmp	r0, #0
 8000af0:	bf48      	it	mi
 8000af2:	f110 0f00 	cmnmi.w	r0, #0
 8000af6:	bd01      	pop	{r0, pc}

08000af8 <__aeabi_dcmpeq>:
 8000af8:	f84d ed08 	str.w	lr, [sp, #-8]!
 8000afc:	f7ff fff4 	bl	8000ae8 <__aeabi_cdcmpeq>
 8000b00:	bf0c      	ite	eq
 8000b02:	2001      	moveq	r0, #1
 8000b04:	2000      	movne	r0, #0
 8000b06:	f85d fb08 	ldr.w	pc, [sp], #8
 8000b0a:	bf00      	nop

08000b0c <__aeabi_dcmplt>:
 8000b0c:	f84d ed08 	str.w	lr, [sp, #-8]!
 8000b10:	f7ff ffea 	bl	8000ae8 <__aeabi_cdcmpeq>
 8000b14:	bf34      	ite	cc
 8000b16:	2001      	movcc	r0, #1
 8000b18:	2000      	movcs	r0, #0
 8000b1a:	f85d fb08 	ldr.w	pc, [sp], #8
 8000b1e:	bf00      	nop

08000b20 <__aeabi_dcmple>:
 8000b20:	f84d ed08 	str.w	lr, [sp, #-8]!
 8000b24:	f7ff ffe0 	bl	8000ae8 <__aeabi_cdcmpeq>
 8000b28:	bf94      	ite	ls
 8000b2a:	2001      	movls	r0, #1
 8000b2c:	2000      	movhi	r0, #0
 8000b2e:	f85d fb08 	ldr.w	pc, [sp], #8
 8000b32:	bf00      	nop

08000b34 <__aeabi_dcmpge>:
 8000b34:	f84d ed08 	str.w	lr, [sp, #-8]!
 8000b38:	f7ff ffce 	bl	8000ad8 <__aeabi_cdrcmple>
 8000b3c:	bf94      	ite	ls
 8000b3e:	2001      	movls	r0, #1
 8000b40:	2000      	movhi	r0, #0
 8000b42:	f85d fb08 	ldr.w	pc, [sp], #8
 8000b46:	bf00      	nop

08000b48 <__aeabi_dcmpgt>:
 8000b48:	f84d ed08 	str.w	lr, [sp, #-8]!
 8000b4c:	f7ff ffc4 	bl	8000ad8 <__aeabi_cdrcmple>
 8000b50:	bf34      	ite	cc
 8000b52:	2001      	movcc	r0, #1
 8000b54:	2000      	movcs	r0, #0
 8000b56:	f85d fb08 	ldr.w	pc, [sp], #8
 8000b5a:	bf00      	nop

08000b5c <__aeabi_dcmpun>:
 8000b5c:	ea4f 0c41 	mov.w	ip, r1, lsl #1
 8000b60:	ea7f 5c6c 	mvns.w	ip, ip, asr #21
 8000b64:	d102      	bne.n	8000b6c <__aeabi_dcmpun+0x10>
 8000b66:	ea50 3c01 	orrs.w	ip, r0, r1, lsl #12
 8000b6a:	d10a      	bne.n	8000b82 <__aeabi_dcmpun+0x26>
 8000b6c:	ea4f 0c43 	mov.w	ip, r3, lsl #1
 8000b70:	ea7f 5c6c 	mvns.w	ip, ip, asr #21
 8000b74:	d102      	bne.n	8000b7c <__aeabi_dcmpun+0x20>
 8000b76:	ea52 3c03 	orrs.w	ip, r2, r3, lsl #12
 8000b7a:	d102      	bne.n	8000b82 <__aeabi_dcmpun+0x26>
 8000b7c:	f04f 0000 	mov.w	r0, #0
 8000b80:	4770      	bx	lr
 8000b82:	f04f 0001 	mov.w	r0, #1
 8000b86:	4770      	bx	lr

08000b88 <__aeabi_d2iz>:
 8000b88:	ea4f 0241 	mov.w	r2, r1, lsl #1
 8000b8c:	f512 1200 	adds.w	r2, r2, #2097152	; 0x200000
 8000b90:	d215      	bcs.n	8000bbe <__aeabi_d2iz+0x36>
 8000b92:	d511      	bpl.n	8000bb8 <__aeabi_d2iz+0x30>
 8000b94:	f46f 7378 	mvn.w	r3, #992	; 0x3e0
 8000b98:	ebb3 5262 	subs.w	r2, r3, r2, asr #21
 8000b9c:	d912      	bls.n	8000bc4 <__aeabi_d2iz+0x3c>
 8000b9e:	ea4f 23c1 	mov.w	r3, r1, lsl #11
 8000ba2:	f043 4300 	orr.w	r3, r3, #2147483648	; 0x80000000
 8000ba6:	ea43 5350 	orr.w	r3, r3, r0, lsr #21
 8000baa:	f011 4f00 	tst.w	r1, #2147483648	; 0x80000000
 8000bae:	fa23 f002 	lsr.w	r0, r3, r2
 8000bb2:	bf18      	it	ne
 8000bb4:	4240      	negne	r0, r0
 8000bb6:	4770      	bx	lr
 8000bb8:	f04f 0000 	mov.w	r0, #0
 8000bbc:	4770      	bx	lr
 8000bbe:	ea50 3001 	orrs.w	r0, r0, r1, lsl #12
 8000bc2:	d105      	bne.n	8000bd0 <__aeabi_d2iz+0x48>
 8000bc4:	f011 4000 	ands.w	r0, r1, #2147483648	; 0x80000000
 8000bc8:	bf08      	it	eq
 8000bca:	f06f 4000 	mvneq.w	r0, #2147483648	; 0x80000000
 8000bce:	4770      	bx	lr
 8000bd0:	f04f 0000 	mov.w	r0, #0
 8000bd4:	4770      	bx	lr
 8000bd6:	bf00      	nop

08000bd8 <__aeabi_uldivmod>:
 8000bd8:	b953      	cbnz	r3, 8000bf0 <__aeabi_uldivmod+0x18>
 8000bda:	b94a      	cbnz	r2, 8000bf0 <__aeabi_uldivmod+0x18>
 8000bdc:	2900      	cmp	r1, #0
 8000bde:	bf08      	it	eq
 8000be0:	2800      	cmpeq	r0, #0
 8000be2:	bf1c      	itt	ne
 8000be4:	f04f 31ff 	movne.w	r1, #4294967295
 8000be8:	f04f 30ff 	movne.w	r0, #4294967295
 8000bec:	f000 b970 	b.w	8000ed0 <__aeabi_idiv0>
 8000bf0:	f1ad 0c08 	sub.w	ip, sp, #8
 8000bf4:	e96d ce04 	strd	ip, lr, [sp, #-16]!
 8000bf8:	f000 f806 	bl	8000c08 <__udivmoddi4>
 8000bfc:	f8dd e004 	ldr.w	lr, [sp, #4]
 8000c00:	e9dd 2302 	ldrd	r2, r3, [sp, #8]
 8000c04:	b004      	add	sp, #16
 8000c06:	4770      	bx	lr

08000c08 <__udivmoddi4>:
 8000c08:	e92d 47f0 	stmdb	sp!, {r4, r5, r6, r7, r8, r9, sl, lr}
 8000c0c:	9e08      	ldr	r6, [sp, #32]
 8000c0e:	460d      	mov	r5, r1
 8000c10:	4604      	mov	r4, r0
 8000c12:	460f      	mov	r7, r1
 8000c14:	2b00      	cmp	r3, #0
 8000c16:	d14a      	bne.n	8000cae <__udivmoddi4+0xa6>
 8000c18:	428a      	cmp	r2, r1
 8000c1a:	4694      	mov	ip, r2
 8000c1c:	d965      	bls.n	8000cea <__udivmoddi4+0xe2>
 8000c1e:	fab2 f382 	clz	r3, r2
 8000c22:	b143      	cbz	r3, 8000c36 <__udivmoddi4+0x2e>
 8000c24:	fa02 fc03 	lsl.w	ip, r2, r3
 8000c28:	f1c3 0220 	rsb	r2, r3, #32
 8000c2c:	409f      	lsls	r7, r3
 8000c2e:	fa20 f202 	lsr.w	r2, r0, r2
 8000c32:	4317      	orrs	r7, r2
 8000c34:	409c      	lsls	r4, r3
 8000c36:	ea4f 4e1c 	mov.w	lr, ip, lsr #16
 8000c3a:	fa1f f58c 	uxth.w	r5, ip
 8000c3e:	fbb7 f1fe 	udiv	r1, r7, lr
 8000c42:	0c22      	lsrs	r2, r4, #16
 8000c44:	fb0e 7711 	mls	r7, lr, r1, r7
 8000c48:	ea42 4207 	orr.w	r2, r2, r7, lsl #16
 8000c4c:	fb01 f005 	mul.w	r0, r1, r5
 8000c50:	4290      	cmp	r0, r2
 8000c52:	d90a      	bls.n	8000c6a <__udivmoddi4+0x62>
 8000c54:	eb1c 0202 	adds.w	r2, ip, r2
 8000c58:	f101 37ff 	add.w	r7, r1, #4294967295
 8000c5c:	f080 811c 	bcs.w	8000e98 <__udivmoddi4+0x290>
 8000c60:	4290      	cmp	r0, r2
 8000c62:	f240 8119 	bls.w	8000e98 <__udivmoddi4+0x290>
 8000c66:	3902      	subs	r1, #2
 8000c68:	4462      	add	r2, ip
 8000c6a:	1a12      	subs	r2, r2, r0
 8000c6c:	b2a4      	uxth	r4, r4
 8000c6e:	fbb2 f0fe 	udiv	r0, r2, lr
 8000c72:	fb0e 2210 	mls	r2, lr, r0, r2
 8000c76:	ea44 4402 	orr.w	r4, r4, r2, lsl #16
 8000c7a:	fb00 f505 	mul.w	r5, r0, r5
 8000c7e:	42a5      	cmp	r5, r4
 8000c80:	d90a      	bls.n	8000c98 <__udivmoddi4+0x90>
 8000c82:	eb1c 0404 	adds.w	r4, ip, r4
 8000c86:	f100 32ff 	add.w	r2, r0, #4294967295
 8000c8a:	f080 8107 	bcs.w	8000e9c <__udivmoddi4+0x294>
 8000c8e:	42a5      	cmp	r5, r4
 8000c90:	f240 8104 	bls.w	8000e9c <__udivmoddi4+0x294>
 8000c94:	4464      	add	r4, ip
 8000c96:	3802      	subs	r0, #2
 8000c98:	ea40 4001 	orr.w	r0, r0, r1, lsl #16
 8000c9c:	1b64      	subs	r4, r4, r5
 8000c9e:	2100      	movs	r1, #0
 8000ca0:	b11e      	cbz	r6, 8000caa <__udivmoddi4+0xa2>
 8000ca2:	40dc      	lsrs	r4, r3
 8000ca4:	2300      	movs	r3, #0
 8000ca6:	e9c6 4300 	strd	r4, r3, [r6]
 8000caa:	e8bd 87f0 	ldmia.w	sp!, {r4, r5, r6, r7, r8, r9, sl, pc}
 8000cae:	428b      	cmp	r3, r1
 8000cb0:	d908      	bls.n	8000cc4 <__udivmoddi4+0xbc>
 8000cb2:	2e00      	cmp	r6, #0
 8000cb4:	f000 80ed 	beq.w	8000e92 <__udivmoddi4+0x28a>
 8000cb8:	2100      	movs	r1, #0
 8000cba:	e9c6 0500 	strd	r0, r5, [r6]
 8000cbe:	4608      	mov	r0, r1
 8000cc0:	e8bd 87f0 	ldmia.w	sp!, {r4, r5, r6, r7, r8, r9, sl, pc}
 8000cc4:	fab3 f183 	clz	r1, r3
 8000cc8:	2900      	cmp	r1, #0
 8000cca:	d149      	bne.n	8000d60 <__udivmoddi4+0x158>
 8000ccc:	42ab      	cmp	r3, r5
 8000cce:	d302      	bcc.n	8000cd6 <__udivmoddi4+0xce>
 8000cd0:	4282      	cmp	r2, r0
 8000cd2:	f200 80f8 	bhi.w	8000ec6 <__udivmoddi4+0x2be>
 8000cd6:	1a84      	subs	r4, r0, r2
 8000cd8:	eb65 0203 	sbc.w	r2, r5, r3
 8000cdc:	2001      	movs	r0, #1
 8000cde:	4617      	mov	r7, r2
 8000ce0:	2e00      	cmp	r6, #0
 8000ce2:	d0e2      	beq.n	8000caa <__udivmoddi4+0xa2>
 8000ce4:	e9c6 4700 	strd	r4, r7, [r6]
 8000ce8:	e7df      	b.n	8000caa <__udivmoddi4+0xa2>
 8000cea:	b902      	cbnz	r2, 8000cee <__udivmoddi4+0xe6>
 8000cec:	deff      	udf	#255	; 0xff
 8000cee:	fab2 f382 	clz	r3, r2
 8000cf2:	2b00      	cmp	r3, #0
 8000cf4:	f040 8090 	bne.w	8000e18 <__udivmoddi4+0x210>
 8000cf8:	1a8a      	subs	r2, r1, r2
 8000cfa:	ea4f 471c 	mov.w	r7, ip, lsr #16
 8000cfe:	fa1f fe8c 	uxth.w	lr, ip
 8000d02:	2101      	movs	r1, #1
 8000d04:	fbb2 f5f7 	udiv	r5, r2, r7
 8000d08:	fb07 2015 	mls	r0, r7, r5, r2
 8000d0c:	0c22      	lsrs	r2, r4, #16
 8000d0e:	ea42 4200 	orr.w	r2, r2, r0, lsl #16
 8000d12:	fb0e f005 	mul.w	r0, lr, r5
 8000d16:	4290      	cmp	r0, r2
 8000d18:	d908      	bls.n	8000d2c <__udivmoddi4+0x124>
 8000d1a:	eb1c 0202 	adds.w	r2, ip, r2
 8000d1e:	f105 38ff 	add.w	r8, r5, #4294967295
 8000d22:	d202      	bcs.n	8000d2a <__udivmoddi4+0x122>
 8000d24:	4290      	cmp	r0, r2
 8000d26:	f200 80cb 	bhi.w	8000ec0 <__udivmoddi4+0x2b8>
 8000d2a:	4645      	mov	r5, r8
 8000d2c:	1a12      	subs	r2, r2, r0
 8000d2e:	b2a4      	uxth	r4, r4
 8000d30:	fbb2 f0f7 	udiv	r0, r2, r7
 8000d34:	fb07 2210 	mls	r2, r7, r0, r2
 8000d38:	ea44 4402 	orr.w	r4, r4, r2, lsl #16
 8000d3c:	fb0e fe00 	mul.w	lr, lr, r0
 8000d40:	45a6      	cmp	lr, r4
 8000d42:	d908      	bls.n	8000d56 <__udivmoddi4+0x14e>
 8000d44:	eb1c 0404 	adds.w	r4, ip, r4
 8000d48:	f100 32ff 	add.w	r2, r0, #4294967295
 8000d4c:	d202      	bcs.n	8000d54 <__udivmoddi4+0x14c>
 8000d4e:	45a6      	cmp	lr, r4
 8000d50:	f200 80bb 	bhi.w	8000eca <__udivmoddi4+0x2c2>
 8000d54:	4610      	mov	r0, r2
 8000d56:	eba4 040e 	sub.w	r4, r4, lr
 8000d5a:	ea40 4005 	orr.w	r0, r0, r5, lsl #16
 8000d5e:	e79f      	b.n	8000ca0 <__udivmoddi4+0x98>
 8000d60:	f1c1 0720 	rsb	r7, r1, #32
 8000d64:	408b      	lsls	r3, r1
 8000d66:	fa22 fc07 	lsr.w	ip, r2, r7
 8000d6a:	ea4c 0c03 	orr.w	ip, ip, r3
 8000d6e:	fa05 f401 	lsl.w	r4, r5, r1
 8000d72:	fa20 f307 	lsr.w	r3, r0, r7
 8000d76:	40fd      	lsrs	r5, r7
 8000d78:	ea4f 491c 	mov.w	r9, ip, lsr #16
 8000d7c:	4323      	orrs	r3, r4
 8000d7e:	fbb5 f8f9 	udiv	r8, r5, r9
 8000d82:	fa1f fe8c 	uxth.w	lr, ip
 8000d86:	fb09 5518 	mls	r5, r9, r8, r5
 8000d8a:	0c1c      	lsrs	r4, r3, #16
 8000d8c:	ea44 4405 	orr.w	r4, r4, r5, lsl #16
 8000d90:	fb08 f50e 	mul.w	r5, r8, lr
 8000d94:	42a5      	cmp	r5, r4
 8000d96:	fa02 f201 	lsl.w	r2, r2, r1
 8000d9a:	fa00 f001 	lsl.w	r0, r0, r1
 8000d9e:	d90b      	bls.n	8000db8 <__udivmoddi4+0x1b0>
 8000da0:	eb1c 0404 	adds.w	r4, ip, r4
 8000da4:	f108 3aff 	add.w	sl, r8, #4294967295
 8000da8:	f080 8088 	bcs.w	8000ebc <__udivmoddi4+0x2b4>
 8000dac:	42a5      	cmp	r5, r4
 8000dae:	f240 8085 	bls.w	8000ebc <__udivmoddi4+0x2b4>
 8000db2:	f1a8 0802 	sub.w	r8, r8, #2
 8000db6:	4464      	add	r4, ip
 8000db8:	1b64      	subs	r4, r4, r5
 8000dba:	b29d      	uxth	r5, r3
 8000dbc:	fbb4 f3f9 	udiv	r3, r4, r9
 8000dc0:	fb09 4413 	mls	r4, r9, r3, r4
 8000dc4:	ea45 4404 	orr.w	r4, r5, r4, lsl #16
 8000dc8:	fb03 fe0e 	mul.w	lr, r3, lr
 8000dcc:	45a6      	cmp	lr, r4
 8000dce:	d908      	bls.n	8000de2 <__udivmoddi4+0x1da>
 8000dd0:	eb1c 0404 	adds.w	r4, ip, r4
 8000dd4:	f103 35ff 	add.w	r5, r3, #4294967295
 8000dd8:	d26c      	bcs.n	8000eb4 <__udivmoddi4+0x2ac>
 8000dda:	45a6      	cmp	lr, r4
 8000ddc:	d96a      	bls.n	8000eb4 <__udivmoddi4+0x2ac>
 8000dde:	3b02      	subs	r3, #2
 8000de0:	4464      	add	r4, ip
 8000de2:	ea43 4308 	orr.w	r3, r3, r8, lsl #16
 8000de6:	fba3 9502 	umull	r9, r5, r3, r2
 8000dea:	eba4 040e 	sub.w	r4, r4, lr
 8000dee:	42ac      	cmp	r4, r5
 8000df0:	46c8      	mov	r8, r9
 8000df2:	46ae      	mov	lr, r5
 8000df4:	d356      	bcc.n	8000ea4 <__udivmoddi4+0x29c>
 8000df6:	d053      	beq.n	8000ea0 <__udivmoddi4+0x298>
 8000df8:	b156      	cbz	r6, 8000e10 <__udivmoddi4+0x208>
 8000dfa:	ebb0 0208 	subs.w	r2, r0, r8
 8000dfe:	eb64 040e 	sbc.w	r4, r4, lr
 8000e02:	fa04 f707 	lsl.w	r7, r4, r7
 8000e06:	40ca      	lsrs	r2, r1
 8000e08:	40cc      	lsrs	r4, r1
 8000e0a:	4317      	orrs	r7, r2
 8000e0c:	e9c6 7400 	strd	r7, r4, [r6]
 8000e10:	4618      	mov	r0, r3
 8000e12:	2100      	movs	r1, #0
 8000e14:	e8bd 87f0 	ldmia.w	sp!, {r4, r5, r6, r7, r8, r9, sl, pc}
 8000e18:	f1c3 0120 	rsb	r1, r3, #32
 8000e1c:	fa02 fc03 	lsl.w	ip, r2, r3
 8000e20:	fa20 f201 	lsr.w	r2, r0, r1
 8000e24:	fa25 f101 	lsr.w	r1, r5, r1
 8000e28:	409d      	lsls	r5, r3
 8000e2a:	432a      	orrs	r2, r5
 8000e2c:	ea4f 471c 	mov.w	r7, ip, lsr #16
 8000e30:	fa1f fe8c 	uxth.w	lr, ip
 8000e34:	fbb1 f0f7 	udiv	r0, r1, r7
 8000e38:	fb07 1510 	mls	r5, r7, r0, r1
 8000e3c:	0c11      	lsrs	r1, r2, #16
 8000e3e:	ea41 4105 	orr.w	r1, r1, r5, lsl #16
 8000e42:	fb00 f50e 	mul.w	r5, r0, lr
 8000e46:	428d      	cmp	r5, r1
 8000e48:	fa04 f403 	lsl.w	r4, r4, r3
 8000e4c:	d908      	bls.n	8000e60 <__udivmoddi4+0x258>
 8000e4e:	eb1c 0101 	adds.w	r1, ip, r1
 8000e52:	f100 38ff 	add.w	r8, r0, #4294967295
 8000e56:	d22f      	bcs.n	8000eb8 <__udivmoddi4+0x2b0>
 8000e58:	428d      	cmp	r5, r1
 8000e5a:	d92d      	bls.n	8000eb8 <__udivmoddi4+0x2b0>
 8000e5c:	3802      	subs	r0, #2
 8000e5e:	4461      	add	r1, ip
 8000e60:	1b49      	subs	r1, r1, r5
 8000e62:	b292      	uxth	r2, r2
 8000e64:	fbb1 f5f7 	udiv	r5, r1, r7
 8000e68:	fb07 1115 	mls	r1, r7, r5, r1
 8000e6c:	ea42 4201 	orr.w	r2, r2, r1, lsl #16
 8000e70:	fb05 f10e 	mul.w	r1, r5, lr
 8000e74:	4291      	cmp	r1, r2
 8000e76:	d908      	bls.n	8000e8a <__udivmoddi4+0x282>
 8000e78:	eb1c 0202 	adds.w	r2, ip, r2
 8000e7c:	f105 38ff 	add.w	r8, r5, #4294967295
 8000e80:	d216      	bcs.n	8000eb0 <__udivmoddi4+0x2a8>
 8000e82:	4291      	cmp	r1, r2
 8000e84:	d914      	bls.n	8000eb0 <__udivmoddi4+0x2a8>
 8000e86:	3d02      	subs	r5, #2
 8000e88:	4462      	add	r2, ip
 8000e8a:	1a52      	subs	r2, r2, r1
 8000e8c:	ea45 4100 	orr.w	r1, r5, r0, lsl #16
 8000e90:	e738      	b.n	8000d04 <__udivmoddi4+0xfc>
 8000e92:	4631      	mov	r1, r6
 8000e94:	4630      	mov	r0, r6
 8000e96:	e708      	b.n	8000caa <__udivmoddi4+0xa2>
 8000e98:	4639      	mov	r1, r7
 8000e9a:	e6e6      	b.n	8000c6a <__udivmoddi4+0x62>
 8000e9c:	4610      	mov	r0, r2
 8000e9e:	e6fb      	b.n	8000c98 <__udivmoddi4+0x90>
 8000ea0:	4548      	cmp	r0, r9
 8000ea2:	d2a9      	bcs.n	8000df8 <__udivmoddi4+0x1f0>
 8000ea4:	ebb9 0802 	subs.w	r8, r9, r2
 8000ea8:	eb65 0e0c 	sbc.w	lr, r5, ip
 8000eac:	3b01      	subs	r3, #1
 8000eae:	e7a3      	b.n	8000df8 <__udivmoddi4+0x1f0>
 8000eb0:	4645      	mov	r5, r8
 8000eb2:	e7ea      	b.n	8000e8a <__udivmoddi4+0x282>
 8000eb4:	462b      	mov	r3, r5
 8000eb6:	e794      	b.n	8000de2 <__udivmoddi4+0x1da>
 8000eb8:	4640      	mov	r0, r8
 8000eba:	e7d1      	b.n	8000e60 <__udivmoddi4+0x258>
 8000ebc:	46d0      	mov	r8, sl
 8000ebe:	e77b      	b.n	8000db8 <__udivmoddi4+0x1b0>
 8000ec0:	3d02      	subs	r5, #2
 8000ec2:	4462      	add	r2, ip
 8000ec4:	e732      	b.n	8000d2c <__udivmoddi4+0x124>
 8000ec6:	4608      	mov	r0, r1
 8000ec8:	e70a      	b.n	8000ce0 <__udivmoddi4+0xd8>
 8000eca:	4464      	add	r4, ip
 8000ecc:	3802      	subs	r0, #2
 8000ece:	e742      	b.n	8000d56 <__udivmoddi4+0x14e>

08000ed0 <__aeabi_idiv0>:
 8000ed0:	4770      	bx	lr
 8000ed2:	bf00      	nop

08000ed4 <vApplicationGetIdleTaskMemory>:
 8000ed4:	4b03      	ldr	r3, [pc, #12]	; (8000ee4 <vApplicationGetIdleTaskMemory+0x10>)
 8000ed6:	6003      	str	r3, [r0, #0]
 8000ed8:	4b03      	ldr	r3, [pc, #12]	; (8000ee8 <vApplicationGetIdleTaskMemory+0x14>)
 8000eda:	600b      	str	r3, [r1, #0]
 8000edc:	2380      	movs	r3, #128	; 0x80
 8000ede:	6013      	str	r3, [r2, #0]
 8000ee0:	4770      	bx	lr
 8000ee2:	bf00      	nop
 8000ee4:	2000048c 	.word	0x2000048c
 8000ee8:	2000028c 	.word	0x2000028c

08000eec <StartTaskBtnInput>:
 8000eec:	b508      	push	{r3, lr}
 8000eee:	4c0a      	ldr	r4, [pc, #40]	; (8000f18 <StartTaskBtnInput+0x2c>)
 8000ef0:	4d0a      	ldr	r5, [pc, #40]	; (8000f1c <StartTaskBtnInput+0x30>)
 8000ef2:	4e0b      	ldr	r6, [pc, #44]	; (8000f20 <StartTaskBtnInput+0x34>)
 8000ef4:	2001      	movs	r0, #1
 8000ef6:	f003 ffb1 	bl	8004e5c <osDelay>
 8000efa:	6823      	ldr	r3, [r4, #0]
 8000efc:	2b01      	cmp	r3, #1
 8000efe:	d1f9      	bne.n	8000ef4 <StartTaskBtnInput+0x8>
 8000f00:	682b      	ldr	r3, [r5, #0]
 8000f02:	6832      	ldr	r2, [r6, #0]
 8000f04:	3301      	adds	r3, #1
 8000f06:	fb93 f1f2 	sdiv	r1, r3, r2
 8000f0a:	fb02 3311 	mls	r3, r2, r1, r3
 8000f0e:	602b      	str	r3, [r5, #0]
 8000f10:	2300      	movs	r3, #0
 8000f12:	6023      	str	r3, [r4, #0]
 8000f14:	e7ee      	b.n	8000ef4 <StartTaskBtnInput+0x8>
 8000f16:	bf00      	nop
 8000f18:	200004e8 	.word	0x200004e8
 8000f1c:	20000000 	.word	0x20000000
 8000f20:	20000004 	.word	0x20000004

08000f24 <StartTaskTransmit>:
 8000f24:	b573      	push	{r0, r1, r4, r5, r6, lr}
 8000f26:	4d26      	ldr	r5, [pc, #152]	; (8000fc0 <StartTaskTransmit+0x9c>)
 8000f28:	4e26      	ldr	r6, [pc, #152]	; (8000fc4 <StartTaskTransmit+0xa0>)
 8000f2a:	2001      	movs	r0, #1
 8000f2c:	f003 ff96 	bl	8004e5c <osDelay>
 8000f30:	2164      	movs	r1, #100	; 0x64
 8000f32:	2001      	movs	r0, #1
 8000f34:	f004 fdd0 	bl	8005ad8 <calloc>
 8000f38:	682b      	ldr	r3, [r5, #0]
 8000f3a:	4604      	mov	r4, r0
 8000f3c:	2b03      	cmp	r3, #3
 8000f3e:	d83b      	bhi.n	8000fb8 <StartTaskTransmit+0x94>
 8000f40:	e8df f003 	tbb	[pc, r3]
 8000f44:	30231b02 	.word	0x30231b02
 8000f48:	4b1f      	ldr	r3, [pc, #124]	; (8000fc8 <StartTaskTransmit+0xa4>)
 8000f4a:	6818      	ldr	r0, [r3, #0]
 8000f4c:	f7ff fb14 	bl	8000578 <__aeabi_f2d>
 8000f50:	460b      	mov	r3, r1
 8000f52:	491e      	ldr	r1, [pc, #120]	; (8000fcc <StartTaskTransmit+0xa8>)
 8000f54:	4602      	mov	r2, r0
 8000f56:	4620      	mov	r0, r4
 8000f58:	f005 fbb0 	bl	80066bc <siprintf>
 8000f5c:	4620      	mov	r0, r4
 8000f5e:	f7ff f99f 	bl	80002a0 <strlen>
 8000f62:	f04f 33ff 	mov.w	r3, #4294967295
 8000f66:	b282      	uxth	r2, r0
 8000f68:	4621      	mov	r1, r4
 8000f6a:	4819      	ldr	r0, [pc, #100]	; (8000fd0 <StartTaskTransmit+0xac>)
 8000f6c:	f003 fdea 	bl	8004b44 <HAL_UART_Transmit>
 8000f70:	f44f 70fa 	mov.w	r0, #500	; 0x1f4
 8000f74:	f001 fa3c 	bl	80023f0 <HAL_Delay>
 8000f78:	e7d7      	b.n	8000f2a <StartTaskTransmit+0x6>
 8000f7a:	4b16      	ldr	r3, [pc, #88]	; (8000fd4 <StartTaskTransmit+0xb0>)
 8000f7c:	6818      	ldr	r0, [r3, #0]
 8000f7e:	f7ff fafb 	bl	8000578 <__aeabi_f2d>
 8000f82:	460b      	mov	r3, r1
 8000f84:	4602      	mov	r2, r0
 8000f86:	4914      	ldr	r1, [pc, #80]	; (8000fd8 <StartTaskTransmit+0xb4>)
 8000f88:	e7e5      	b.n	8000f56 <StartTaskTransmit+0x32>
 8000f8a:	4a14      	ldr	r2, [pc, #80]	; (8000fdc <StartTaskTransmit+0xb8>)
 8000f8c:	4914      	ldr	r1, [pc, #80]	; (8000fe0 <StartTaskTransmit+0xbc>)
 8000f8e:	f9b2 3004 	ldrsh.w	r3, [r2, #4]
 8000f92:	9300      	str	r3, [sp, #0]
 8000f94:	f9b2 3002 	ldrsh.w	r3, [r2, #2]
 8000f98:	f9b2 2000 	ldrsh.w	r2, [r2]
 8000f9c:	4620      	mov	r0, r4
 8000f9e:	f005 fb8d 	bl	80066bc <siprintf>
 8000fa2:	e7db      	b.n	8000f5c <StartTaskTransmit+0x38>
 8000fa4:	4a0f      	ldr	r2, [pc, #60]	; (8000fe4 <StartTaskTransmit+0xc0>)
 8000fa6:	4910      	ldr	r1, [pc, #64]	; (8000fe8 <StartTaskTransmit+0xc4>)
 8000fa8:	f9b2 3004 	ldrsh.w	r3, [r2, #4]
 8000fac:	9300      	str	r3, [sp, #0]
 8000fae:	f9b2 3002 	ldrsh.w	r3, [r2, #2]
 8000fb2:	f9b2 2000 	ldrsh.w	r2, [r2]
 8000fb6:	e7f1      	b.n	8000f9c <StartTaskTransmit+0x78>
 8000fb8:	4631      	mov	r1, r6
 8000fba:	f005 fc72 	bl	80068a2 <strcpy>
 8000fbe:	e7cd      	b.n	8000f5c <StartTaskTransmit+0x38>
 8000fc0:	20000000 	.word	0x20000000
 8000fc4:	08008906 	.word	0x08008906
 8000fc8:	20000704 	.word	0x20000704
 8000fcc:	0800886c 	.word	0x0800886c
 8000fd0:	20000590 	.word	0x20000590
 8000fd4:	2000062c 	.word	0x2000062c
 8000fd8:	08008887 	.word	0x08008887
 8000fdc:	200004e0 	.word	0x200004e0
 8000fe0:	0800889f 	.word	0x0800889f
 8000fe4:	20000624 	.word	0x20000624
 8000fe8:	080088d3 	.word	0x080088d3

08000fec <HAL_GPIO_EXTI_Callback>:
 8000fec:	f5b0 5f00 	cmp.w	r0, #8192	; 0x2000
 8000ff0:	bf02      	ittt	eq
 8000ff2:	4b02      	ldreq	r3, [pc, #8]	; (8000ffc <HAL_GPIO_EXTI_Callback+0x10>)
 8000ff4:	2201      	moveq	r2, #1
 8000ff6:	601a      	streq	r2, [r3, #0]
 8000ff8:	4770      	bx	lr
 8000ffa:	bf00      	nop
 8000ffc:	200004e8 	.word	0x200004e8

08001000 <HAL_TIM_PeriodElapsedCallback>:
 8001000:	6802      	ldr	r2, [r0, #0]
 8001002:	4b03      	ldr	r3, [pc, #12]	; (8001010 <HAL_TIM_PeriodElapsedCallback+0x10>)
 8001004:	429a      	cmp	r2, r3
 8001006:	d101      	bne.n	800100c <HAL_TIM_PeriodElapsedCallback+0xc>
 8001008:	f001 b9e0 	b.w	80023cc <HAL_IncTick>
 800100c:	4770      	bx	lr
 800100e:	bf00      	nop
 8001010:	40001000 	.word	0x40001000

08001014 <Error_Handler>:
 8001014:	b508      	push	{r3, lr}
 8001016:	b672      	cpsid	i
 8001018:	4c03      	ldr	r4, [pc, #12]	; (8001028 <Error_Handler+0x14>)
 800101a:	2200      	movs	r2, #0
 800101c:	2108      	movs	r1, #8
 800101e:	4620      	mov	r0, r4
 8001020:	f001 fbb4 	bl	800278c <HAL_GPIO_WritePin>
 8001024:	be00      	bkpt	0x0000
 8001026:	e7f8      	b.n	800101a <Error_Handler+0x6>
 8001028:	48001000 	.word	0x48001000

0800102c <SystemClock_Config>:
 800102c:	b500      	push	{lr}
 800102e:	b097      	sub	sp, #92	; 0x5c
 8001030:	2244      	movs	r2, #68	; 0x44
 8001032:	2100      	movs	r1, #0
 8001034:	a805      	add	r0, sp, #20
 8001036:	f005 fba4 	bl	8006782 <memset>
 800103a:	2214      	movs	r2, #20
 800103c:	2100      	movs	r1, #0
 800103e:	4668      	mov	r0, sp
 8001040:	f005 fb9f 	bl	8006782 <memset>
 8001044:	2000      	movs	r0, #0
 8001046:	f002 fa0b 	bl	8003460 <HAL_PWREx_ControlVoltageScaling>
 800104a:	b108      	cbz	r0, 8001050 <SystemClock_Config+0x24>
 800104c:	f7ff ffe2 	bl	8001014 <Error_Handler>
 8001050:	2310      	movs	r3, #16
 8001052:	9305      	str	r3, [sp, #20]
 8001054:	2360      	movs	r3, #96	; 0x60
 8001056:	2201      	movs	r2, #1
 8001058:	930d      	str	r3, [sp, #52]	; 0x34
 800105a:	2302      	movs	r3, #2
 800105c:	e9cd 200b 	strd	r2, r0, [sp, #44]	; 0x2c
 8001060:	e9cd 320f 	strd	r3, r2, [sp, #60]	; 0x3c
 8001064:	9211      	str	r2, [sp, #68]	; 0x44
 8001066:	a805      	add	r0, sp, #20
 8001068:	223c      	movs	r2, #60	; 0x3c
 800106a:	e9cd 2312 	strd	r2, r3, [sp, #72]	; 0x48
 800106e:	e9cd 3314 	strd	r3, r3, [sp, #80]	; 0x50
 8001072:	f002 fadb 	bl	800362c <HAL_RCC_OscConfig>
 8001076:	2800      	cmp	r0, #0
 8001078:	d1e8      	bne.n	800104c <SystemClock_Config+0x20>
 800107a:	e9cd 0002 	strd	r0, r0, [sp, #8]
 800107e:	220f      	movs	r2, #15
 8001080:	2303      	movs	r3, #3
 8001082:	9004      	str	r0, [sp, #16]
 8001084:	2105      	movs	r1, #5
 8001086:	4668      	mov	r0, sp
 8001088:	e9cd 2300 	strd	r2, r3, [sp]
 800108c:	f002 fd76 	bl	8003b7c <HAL_RCC_ClockConfig>
 8001090:	2800      	cmp	r0, #0
 8001092:	d1db      	bne.n	800104c <SystemClock_Config+0x20>
 8001094:	b017      	add	sp, #92	; 0x5c
 8001096:	f85d fb04 	ldr.w	pc, [sp], #4
	...

0800109c <main>:
 800109c:	b580      	push	{r7, lr}
 800109e:	b09a      	sub	sp, #104	; 0x68
 80010a0:	f001 f984 	bl	80023ac <HAL_Init>
 80010a4:	f7ff ffc2 	bl	800102c <SystemClock_Config>
 80010a8:	2214      	movs	r2, #20
 80010aa:	2100      	movs	r1, #0
 80010ac:	a813      	add	r0, sp, #76	; 0x4c
 80010ae:	f005 fb68 	bl	8006782 <memset>
 80010b2:	4b78      	ldr	r3, [pc, #480]	; (8001294 <main+0x1f8>)
 80010b4:	4878      	ldr	r0, [pc, #480]	; (8001298 <main+0x1fc>)
 80010b6:	6cda      	ldr	r2, [r3, #76]	; 0x4c
 80010b8:	4c78      	ldr	r4, [pc, #480]	; (800129c <main+0x200>)
 80010ba:	f042 0210 	orr.w	r2, r2, #16
 80010be:	64da      	str	r2, [r3, #76]	; 0x4c
 80010c0:	6cda      	ldr	r2, [r3, #76]	; 0x4c
 80010c2:	f002 0210 	and.w	r2, r2, #16
 80010c6:	9201      	str	r2, [sp, #4]
 80010c8:	9a01      	ldr	r2, [sp, #4]
 80010ca:	6cda      	ldr	r2, [r3, #76]	; 0x4c
 80010cc:	f042 0204 	orr.w	r2, r2, #4
 80010d0:	64da      	str	r2, [r3, #76]	; 0x4c
 80010d2:	6cda      	ldr	r2, [r3, #76]	; 0x4c
 80010d4:	f002 0204 	and.w	r2, r2, #4
 80010d8:	9202      	str	r2, [sp, #8]
 80010da:	9a02      	ldr	r2, [sp, #8]
 80010dc:	6cda      	ldr	r2, [r3, #76]	; 0x4c
 80010de:	f042 0202 	orr.w	r2, r2, #2
 80010e2:	64da      	str	r2, [r3, #76]	; 0x4c
 80010e4:	6cda      	ldr	r2, [r3, #76]	; 0x4c
 80010e6:	f002 0202 	and.w	r2, r2, #2
 80010ea:	9203      	str	r2, [sp, #12]
 80010ec:	9a03      	ldr	r2, [sp, #12]
 80010ee:	6cda      	ldr	r2, [r3, #76]	; 0x4c
 80010f0:	f042 0201 	orr.w	r2, r2, #1
 80010f4:	64da      	str	r2, [r3, #76]	; 0x4c
 80010f6:	6cdb      	ldr	r3, [r3, #76]	; 0x4c
 80010f8:	f003 0301 	and.w	r3, r3, #1
 80010fc:	2200      	movs	r2, #0
 80010fe:	9304      	str	r3, [sp, #16]
 8001100:	2108      	movs	r1, #8
 8001102:	2500      	movs	r5, #0
 8001104:	9b04      	ldr	r3, [sp, #16]
 8001106:	2708      	movs	r7, #8
 8001108:	f001 fb40 	bl	800278c <HAL_GPIO_WritePin>
 800110c:	2601      	movs	r6, #1
 800110e:	4862      	ldr	r0, [pc, #392]	; (8001298 <main+0x1fc>)
 8001110:	a913      	add	r1, sp, #76	; 0x4c
 8001112:	e9cd 7613 	strd	r7, r6, [sp, #76]	; 0x4c
 8001116:	e9cd 5515 	strd	r5, r5, [sp, #84]	; 0x54
 800111a:	f001 f9cf 	bl	80024bc <HAL_GPIO_Init>
 800111e:	f44f 5200 	mov.w	r2, #8192	; 0x2000
 8001122:	f44f 1388 	mov.w	r3, #1114112	; 0x110000
 8001126:	485e      	ldr	r0, [pc, #376]	; (80012a0 <main+0x204>)
 8001128:	9515      	str	r5, [sp, #84]	; 0x54
 800112a:	a913      	add	r1, sp, #76	; 0x4c
 800112c:	e9cd 2313 	strd	r2, r3, [sp, #76]	; 0x4c
 8001130:	f001 f9c4 	bl	80024bc <HAL_GPIO_Init>
 8001134:	f44f 417c 	mov.w	r1, #64512	; 0xfc00
 8001138:	2302      	movs	r3, #2
 800113a:	e9cd 1313 	strd	r1, r3, [sp, #76]	; 0x4c
 800113e:	2003      	movs	r0, #3
 8001140:	230a      	movs	r3, #10
 8001142:	e9cd 0316 	strd	r0, r3, [sp, #88]	; 0x58
 8001146:	a913      	add	r1, sp, #76	; 0x4c
 8001148:	4853      	ldr	r0, [pc, #332]	; (8001298 <main+0x1fc>)
 800114a:	9515      	str	r5, [sp, #84]	; 0x54
 800114c:	f001 f9b6 	bl	80024bc <HAL_GPIO_Init>
 8001150:	2105      	movs	r1, #5
 8001152:	462a      	mov	r2, r5
 8001154:	2028      	movs	r0, #40	; 0x28
 8001156:	f001 f971 	bl	800243c <HAL_NVIC_SetPriority>
 800115a:	2028      	movs	r0, #40	; 0x28
 800115c:	f001 f9a0 	bl	80024a0 <HAL_NVIC_EnableIRQ>
 8001160:	f8df c160 	ldr.w	ip, [pc, #352]	; 80012c4 <main+0x228>
 8001164:	6125      	str	r5, [r4, #16]
 8001166:	f44f 33e1 	mov.w	r3, #115200	; 0x1c200
 800116a:	e9c4 c300 	strd	ip, r3, [r4]
 800116e:	4620      	mov	r0, r4
 8001170:	230c      	movs	r3, #12
 8001172:	e9c4 5502 	strd	r5, r5, [r4, #8]
 8001176:	e9c4 3505 	strd	r3, r5, [r4, #20]
 800117a:	e9c4 5507 	strd	r5, r5, [r4, #28]
 800117e:	e9c4 5509 	strd	r5, r5, [r4, #36]	; 0x24
 8001182:	f003 fd91 	bl	8004ca8 <HAL_UART_Init>
 8001186:	4601      	mov	r1, r0
 8001188:	b108      	cbz	r0, 800118e <main+0xf2>
 800118a:	f7ff ff43 	bl	8001014 <Error_Handler>
 800118e:	4620      	mov	r0, r4
 8001190:	f003 fdf7 	bl	8004d82 <HAL_UARTEx_SetTxFifoThreshold>
 8001194:	4601      	mov	r1, r0
 8001196:	2800      	cmp	r0, #0
 8001198:	d1f7      	bne.n	800118a <main+0xee>
 800119a:	4620      	mov	r0, r4
 800119c:	f003 fe11 	bl	8004dc2 <HAL_UARTEx_SetRxFifoThreshold>
 80011a0:	2800      	cmp	r0, #0
 80011a2:	d1f2      	bne.n	800118a <main+0xee>
 80011a4:	4620      	mov	r0, r4
 80011a6:	f003 fdd1 	bl	8004d4c <HAL_UARTEx_DisableFifoMode>
 80011aa:	2800      	cmp	r0, #0
 80011ac:	d1ed      	bne.n	800118a <main+0xee>
 80011ae:	4c3d      	ldr	r4, [pc, #244]	; (80012a4 <main+0x208>)
 80011b0:	4b3d      	ldr	r3, [pc, #244]	; (80012a8 <main+0x20c>)
 80011b2:	6023      	str	r3, [r4, #0]
 80011b4:	f1a3 6378 	sub.w	r3, r3, #260046848	; 0xf800000
 80011b8:	f5a3 237e 	sub.w	r3, r3, #1040384	; 0xfe000
 80011bc:	f2a3 234f 	subw	r3, r3, #591	; 0x24f
 80011c0:	e9c4 3001 	strd	r3, r0, [r4, #4]
 80011c4:	e9c4 6003 	strd	r6, r0, [r4, #12]
 80011c8:	e9c4 0005 	strd	r0, r0, [r4, #20]
 80011cc:	e9c4 0007 	strd	r0, r0, [r4, #28]
 80011d0:	4620      	mov	r0, r4
 80011d2:	f001 fc18 	bl	8002a06 <HAL_I2C_Init>
 80011d6:	4601      	mov	r1, r0
 80011d8:	2800      	cmp	r0, #0
 80011da:	d1d6      	bne.n	800118a <main+0xee>
 80011dc:	4620      	mov	r0, r4
 80011de:	f001 fe39 	bl	8002e54 <HAL_I2CEx_ConfigAnalogFilter>
 80011e2:	4601      	mov	r1, r0
 80011e4:	2800      	cmp	r0, #0
 80011e6:	d1d0      	bne.n	800118a <main+0xee>
 80011e8:	4620      	mov	r0, r4
 80011ea:	f001 fe59 	bl	8002ea0 <HAL_I2CEx_ConfigDigitalFilter>
 80011ee:	2800      	cmp	r0, #0
 80011f0:	d1cb      	bne.n	800118a <main+0xee>
 80011f2:	4b2e      	ldr	r3, [pc, #184]	; (80012ac <main+0x210>)
 80011f4:	4a2e      	ldr	r2, [pc, #184]	; (80012b0 <main+0x214>)
 80011f6:	631f      	str	r7, [r3, #48]	; 0x30
 80011f8:	e9c3 2600 	strd	r2, r6, [r3]
 80011fc:	e9c3 0002 	strd	r0, r0, [r3, #8]
 8001200:	e9c3 0006 	strd	r0, r0, [r3, #24]
 8001204:	e9c3 6008 	strd	r6, r0, [r3, #32]
 8001208:	e9c3 000a 	strd	r0, r0, [r3, #40]	; 0x28
 800120c:	2220      	movs	r2, #32
 800120e:	4618      	mov	r0, r3
 8001210:	e9c3 2604 	strd	r2, r6, [r3, #16]
 8001214:	f001 ff6c 	bl	80030f0 <HAL_OSPI_Init>
 8001218:	4607      	mov	r7, r0
 800121a:	2800      	cmp	r0, #0
 800121c:	d1b5      	bne.n	800118a <main+0xee>
 800121e:	4c25      	ldr	r4, [pc, #148]	; (80012b4 <main+0x218>)
 8001220:	f000 fb0e 	bl	8001840 <BSP_QSPI_Init>
 8001224:	f000 f988 	bl	8001538 <BSP_HSENSOR_Init>
 8001228:	f000 fc44 	bl	8001ab4 <BSP_TSENSOR_Init>
 800122c:	f000 f9c0 	bl	80015b0 <BSP_PSENSOR_Init>
 8001230:	f000 f964 	bl	80014fc <BSP_ACCELERO_Init>
 8001234:	f000 f994 	bl	8001560 <BSP_MAGNETO_Init>
 8001238:	cc0f      	ldmia	r4!, {r0, r1, r2, r3}
 800123a:	ad05      	add	r5, sp, #20
 800123c:	c50f      	stmia	r5!, {r0, r1, r2, r3}
 800123e:	e894 0007 	ldmia.w	r4, {r0, r1, r2}
 8001242:	e885 0007 	stmia.w	r5, {r0, r1, r2}
 8001246:	4639      	mov	r1, r7
 8001248:	a805      	add	r0, sp, #20
 800124a:	f003 fddf 	bl	8004e0c <osThreadCreate>
 800124e:	4b1a      	ldr	r3, [pc, #104]	; (80012b8 <main+0x21c>)
 8001250:	f104 060c 	add.w	r6, r4, #12
 8001254:	6018      	str	r0, [r3, #0]
 8001256:	ce0f      	ldmia	r6!, {r0, r1, r2, r3}
 8001258:	ad0c      	add	r5, sp, #48	; 0x30
 800125a:	c50f      	stmia	r5!, {r0, r1, r2, r3}
 800125c:	e896 0007 	ldmia.w	r6, {r0, r1, r2}
 8001260:	e885 0007 	stmia.w	r5, {r0, r1, r2}
 8001264:	4639      	mov	r1, r7
 8001266:	a80c      	add	r0, sp, #48	; 0x30
 8001268:	f003 fdd0 	bl	8004e0c <osThreadCreate>
 800126c:	4b13      	ldr	r3, [pc, #76]	; (80012bc <main+0x220>)
 800126e:	3428      	adds	r4, #40	; 0x28
 8001270:	6018      	str	r0, [r3, #0]
 8001272:	cc0f      	ldmia	r4!, {r0, r1, r2, r3}
 8001274:	ad13      	add	r5, sp, #76	; 0x4c
 8001276:	c50f      	stmia	r5!, {r0, r1, r2, r3}
 8001278:	e894 0007 	ldmia.w	r4, {r0, r1, r2}
 800127c:	e885 0007 	stmia.w	r5, {r0, r1, r2}
 8001280:	4639      	mov	r1, r7
 8001282:	a813      	add	r0, sp, #76	; 0x4c
 8001284:	f003 fdc2 	bl	8004e0c <osThreadCreate>
 8001288:	4b0d      	ldr	r3, [pc, #52]	; (80012c0 <main+0x224>)
 800128a:	6018      	str	r0, [r3, #0]
 800128c:	f003 fdb9 	bl	8004e02 <osKernelStart>
 8001290:	e7fe      	b.n	8001290 <main+0x1f4>
 8001292:	bf00      	nop
 8001294:	40021000 	.word	0x40021000
 8001298:	48001000 	.word	0x48001000
 800129c:	20000590 	.word	0x20000590
 80012a0:	48000800 	.word	0x48000800
 80012a4:	200004ec 	.word	0x200004ec
 80012a8:	40005800 	.word	0x40005800
 80012ac:	20000540 	.word	0x20000540
 80012b0:	a0001000 	.word	0xa0001000
 80012b4:	08008818 	.word	0x08008818
 80012b8:	200006fc 	.word	0x200006fc
 80012bc:	200006f8 	.word	0x200006f8
 80012c0:	20000700 	.word	0x20000700
 80012c4:	40013800 	.word	0x40013800

080012c8 <StartTaskReadSensor>:
 80012c8:	e92d 41f3 	stmdb	sp!, {r0, r1, r4, r5, r6, r7, r8, lr}
 80012cc:	4c2a      	ldr	r4, [pc, #168]	; (8001378 <StartTaskReadSensor+0xb0>)
 80012ce:	4d2b      	ldr	r5, [pc, #172]	; (800137c <StartTaskReadSensor+0xb4>)
 80012d0:	4f2b      	ldr	r7, [pc, #172]	; (8001380 <StartTaskReadSensor+0xb8>)
 80012d2:	2001      	movs	r0, #1
 80012d4:	f003 fdc2 	bl	8004e5c <osDelay>
 80012d8:	f000 fbfe 	bl	8001ad8 <BSP_TSENSOR_ReadTemp>
 80012dc:	ed84 0a00 	vstr	s0, [r4]
 80012e0:	f000 f97a 	bl	80015d8 <BSP_PSENSOR_ReadPressure>
 80012e4:	4638      	mov	r0, r7
 80012e6:	ed85 0a00 	vstr	s0, [r5]
 80012ea:	f000 f91b 	bl	8001524 <BSP_ACCELERO_AccGetXYZ>
 80012ee:	4825      	ldr	r0, [pc, #148]	; (8001384 <StartTaskReadSensor+0xbc>)
 80012f0:	f000 f954 	bl	800159c <BSP_MAGNETO_GetXYZ>
 80012f4:	ed9f 7a24 	vldr	s14, [pc, #144]	; 8001388 <StartTaskReadSensor+0xc0>
 80012f8:	edd4 7a00 	vldr	s15, [r4]
 80012fc:	f8df c090 	ldr.w	ip, [pc, #144]	; 8001390 <StartTaskReadSensor+0xc8>
 8001300:	4822      	ldr	r0, [pc, #136]	; (800138c <StartTaskReadSensor+0xc4>)
 8001302:	ee67 7a87 	vmul.f32	s15, s15, s14
 8001306:	2100      	movs	r1, #0
 8001308:	eefd 7ae7 	vcvt.s32.f32	s15, s15
 800130c:	46e0      	mov	r8, ip
 800130e:	ee17 3a90 	vmov	r3, s15
 8001312:	edd5 7a00 	vldr	s15, [r5]
 8001316:	ee67 7a87 	vmul.f32	s15, s15, s14
 800131a:	b21a      	sxth	r2, r3
 800131c:	eefd 7ae7 	vcvt.s32.f32	s15, s15
 8001320:	4606      	mov	r6, r0
 8001322:	ee17 3a90 	vmov	r3, s15
 8001326:	b21b      	sxth	r3, r3
 8001328:	3101      	adds	r1, #1
 800132a:	2964      	cmp	r1, #100	; 0x64
 800132c:	f82c 2b02 	strh.w	r2, [ip], #2
 8001330:	f820 3b02 	strh.w	r3, [r0], #2
 8001334:	d1f8      	bne.n	8001328 <StartTaskReadSensor+0x60>
 8001336:	2000      	movs	r0, #0
 8001338:	f000 fa1c 	bl	8001774 <BSP_QSPI_Erase_Block>
 800133c:	4601      	mov	r1, r0
 800133e:	b108      	cbz	r0, 8001344 <StartTaskReadSensor+0x7c>
 8001340:	f7ff fe68 	bl	8001014 <Error_Handler>
 8001344:	2201      	movs	r2, #1
 8001346:	4668      	mov	r0, sp
 8001348:	f88d 8000 	strb.w	r8, [sp]
 800134c:	f000 f9c0 	bl	80016d0 <BSP_QSPI_Write>
 8001350:	2800      	cmp	r0, #0
 8001352:	d1f5      	bne.n	8001340 <StartTaskReadSensor+0x78>
 8001354:	f44f 3080 	mov.w	r0, #65536	; 0x10000
 8001358:	f000 fa0c 	bl	8001774 <BSP_QSPI_Erase_Block>
 800135c:	2800      	cmp	r0, #0
 800135e:	d1ef      	bne.n	8001340 <StartTaskReadSensor+0x78>
 8001360:	2201      	movs	r2, #1
 8001362:	f44f 3180 	mov.w	r1, #65536	; 0x10000
 8001366:	a801      	add	r0, sp, #4
 8001368:	f88d 6004 	strb.w	r6, [sp, #4]
 800136c:	f000 f9b0 	bl	80016d0 <BSP_QSPI_Write>
 8001370:	2800      	cmp	r0, #0
 8001372:	d0ae      	beq.n	80012d2 <StartTaskReadSensor+0xa>
 8001374:	e7e4      	b.n	8001340 <StartTaskReadSensor+0x78>
 8001376:	bf00      	nop
 8001378:	20000704 	.word	0x20000704
 800137c:	2000062c 	.word	0x2000062c
 8001380:	200004e0 	.word	0x200004e0
 8001384:	20000624 	.word	0x20000624
 8001388:	447a0000 	.word	0x447a0000
 800138c:	20000630 	.word	0x20000630
 8001390:	20000708 	.word	0x20000708

08001394 <I2Cx_Init.constprop.0>:
 8001394:	b570      	push	{r4, r5, r6, lr}
 8001396:	4a2a      	ldr	r2, [pc, #168]	; (8001440 <I2Cx_Init.constprop.0+0xac>)
 8001398:	4c2a      	ldr	r4, [pc, #168]	; (8001444 <I2Cx_Init.constprop.0+0xb0>)
 800139a:	4b2b      	ldr	r3, [pc, #172]	; (8001448 <I2Cx_Init.constprop.0+0xb4>)
 800139c:	4d2b      	ldr	r5, [pc, #172]	; (800144c <I2Cx_Init.constprop.0+0xb8>)
 800139e:	2600      	movs	r6, #0
 80013a0:	e9c4 2300 	strd	r2, r3, [r4]
 80013a4:	2201      	movs	r2, #1
 80013a6:	e9c4 6202 	strd	r6, r2, [r4, #8]
 80013aa:	e9c4 6604 	strd	r6, r6, [r4, #16]
 80013ae:	e9c4 6607 	strd	r6, r6, [r4, #28]
 80013b2:	6ceb      	ldr	r3, [r5, #76]	; 0x4c
 80013b4:	f043 0302 	orr.w	r3, r3, #2
 80013b8:	64eb      	str	r3, [r5, #76]	; 0x4c
 80013ba:	6ceb      	ldr	r3, [r5, #76]	; 0x4c
 80013bc:	b088      	sub	sp, #32
 80013be:	f003 0302 	and.w	r3, r3, #2
 80013c2:	9301      	str	r3, [sp, #4]
 80013c4:	9b01      	ldr	r3, [sp, #4]
 80013c6:	9205      	str	r2, [sp, #20]
 80013c8:	f44f 6140 	mov.w	r1, #3072	; 0xc00
 80013cc:	2312      	movs	r3, #18
 80013ce:	e9cd 1303 	strd	r1, r3, [sp, #12]
 80013d2:	2003      	movs	r0, #3
 80013d4:	2304      	movs	r3, #4
 80013d6:	e9cd 0306 	strd	r0, r3, [sp, #24]
 80013da:	a903      	add	r1, sp, #12
 80013dc:	481c      	ldr	r0, [pc, #112]	; (8001450 <I2Cx_Init.constprop.0+0xbc>)
 80013de:	f001 f86d 	bl	80024bc <HAL_GPIO_Init>
 80013e2:	a903      	add	r1, sp, #12
 80013e4:	481a      	ldr	r0, [pc, #104]	; (8001450 <I2Cx_Init.constprop.0+0xbc>)
 80013e6:	f001 f869 	bl	80024bc <HAL_GPIO_Init>
 80013ea:	6dab      	ldr	r3, [r5, #88]	; 0x58
 80013ec:	f443 0380 	orr.w	r3, r3, #4194304	; 0x400000
 80013f0:	65ab      	str	r3, [r5, #88]	; 0x58
 80013f2:	6dab      	ldr	r3, [r5, #88]	; 0x58
 80013f4:	f403 0380 	and.w	r3, r3, #4194304	; 0x400000
 80013f8:	9302      	str	r3, [sp, #8]
 80013fa:	9b02      	ldr	r3, [sp, #8]
 80013fc:	6bab      	ldr	r3, [r5, #56]	; 0x38
 80013fe:	f443 0380 	orr.w	r3, r3, #4194304	; 0x400000
 8001402:	63ab      	str	r3, [r5, #56]	; 0x38
 8001404:	6bab      	ldr	r3, [r5, #56]	; 0x38
 8001406:	f423 0380 	bic.w	r3, r3, #4194304	; 0x400000
 800140a:	63ab      	str	r3, [r5, #56]	; 0x38
 800140c:	4632      	mov	r2, r6
 800140e:	210f      	movs	r1, #15
 8001410:	2021      	movs	r0, #33	; 0x21
 8001412:	f001 f813 	bl	800243c <HAL_NVIC_SetPriority>
 8001416:	2021      	movs	r0, #33	; 0x21
 8001418:	f001 f842 	bl	80024a0 <HAL_NVIC_EnableIRQ>
 800141c:	4632      	mov	r2, r6
 800141e:	210f      	movs	r1, #15
 8001420:	2022      	movs	r0, #34	; 0x22
 8001422:	f001 f80b 	bl	800243c <HAL_NVIC_SetPriority>
 8001426:	2022      	movs	r0, #34	; 0x22
 8001428:	f001 f83a 	bl	80024a0 <HAL_NVIC_EnableIRQ>
 800142c:	4620      	mov	r0, r4
 800142e:	f001 faea 	bl	8002a06 <HAL_I2C_Init>
 8001432:	4631      	mov	r1, r6
 8001434:	4620      	mov	r0, r4
 8001436:	b008      	add	sp, #32
 8001438:	e8bd 4070 	ldmia.w	sp!, {r4, r5, r6, lr}
 800143c:	f001 bd0a 	b.w	8002e54 <HAL_I2CEx_ConfigAnalogFilter>
 8001440:	40005800 	.word	0x40005800
 8001444:	200007d0 	.word	0x200007d0
 8001448:	00702681 	.word	0x00702681
 800144c:	40021000 	.word	0x40021000
 8001450:	48000400 	.word	0x48000400

08001454 <SENSOR_IO_Init>:
 8001454:	f7ff bf9e 	b.w	8001394 <I2Cx_Init.constprop.0>

08001458 <SENSOR_IO_Write>:
 8001458:	b57f      	push	{r0, r1, r2, r3, r4, r5, r6, lr}
 800145a:	2301      	movs	r3, #1
 800145c:	f88d 2017 	strb.w	r2, [sp, #23]
 8001460:	f44f 727a 	mov.w	r2, #1000	; 0x3e8
 8001464:	e9cd 3201 	strd	r3, r2, [sp, #4]
 8001468:	f10d 0217 	add.w	r2, sp, #23
 800146c:	9200      	str	r2, [sp, #0]
 800146e:	460a      	mov	r2, r1
 8001470:	4601      	mov	r1, r0
 8001472:	4806      	ldr	r0, [pc, #24]	; (800148c <SENSOR_IO_Write+0x34>)
 8001474:	f001 fb36 	bl	8002ae4 <HAL_I2C_Mem_Write>
 8001478:	b120      	cbz	r0, 8001484 <SENSOR_IO_Write+0x2c>
 800147a:	4804      	ldr	r0, [pc, #16]	; (800148c <SENSOR_IO_Write+0x34>)
 800147c:	f001 fb18 	bl	8002ab0 <HAL_I2C_DeInit>
 8001480:	f7ff ff88 	bl	8001394 <I2Cx_Init.constprop.0>
 8001484:	b007      	add	sp, #28
 8001486:	f85d fb04 	ldr.w	pc, [sp], #4
 800148a:	bf00      	nop
 800148c:	200007d0 	.word	0x200007d0

08001490 <SENSOR_IO_Read>:
 8001490:	b57f      	push	{r0, r1, r2, r3, r4, r5, r6, lr}
 8001492:	2300      	movs	r3, #0
 8001494:	460a      	mov	r2, r1
 8001496:	f88d 3017 	strb.w	r3, [sp, #23]
 800149a:	f44f 717a 	mov.w	r1, #1000	; 0x3e8
 800149e:	2301      	movs	r3, #1
 80014a0:	e9cd 3101 	strd	r3, r1, [sp, #4]
 80014a4:	f10d 0117 	add.w	r1, sp, #23
 80014a8:	9100      	str	r1, [sp, #0]
 80014aa:	4601      	mov	r1, r0
 80014ac:	4806      	ldr	r0, [pc, #24]	; (80014c8 <SENSOR_IO_Read+0x38>)
 80014ae:	f001 fbf3 	bl	8002c98 <HAL_I2C_Mem_Read>
 80014b2:	b120      	cbz	r0, 80014be <SENSOR_IO_Read+0x2e>
 80014b4:	4804      	ldr	r0, [pc, #16]	; (80014c8 <SENSOR_IO_Read+0x38>)
 80014b6:	f001 fafb 	bl	8002ab0 <HAL_I2C_DeInit>
 80014ba:	f7ff ff6b 	bl	8001394 <I2Cx_Init.constprop.0>
 80014be:	f89d 0017 	ldrb.w	r0, [sp, #23]
 80014c2:	b007      	add	sp, #28
 80014c4:	f85d fb04 	ldr.w	pc, [sp], #4
 80014c8:	200007d0 	.word	0x200007d0

080014cc <SENSOR_IO_ReadMultiple>:
 80014cc:	b51f      	push	{r0, r1, r2, r3, r4, lr}
 80014ce:	f44f 747a 	mov.w	r4, #1000	; 0x3e8
 80014d2:	e9cd 3401 	strd	r3, r4, [sp, #4]
 80014d6:	9200      	str	r2, [sp, #0]
 80014d8:	2301      	movs	r3, #1
 80014da:	460a      	mov	r2, r1
 80014dc:	4601      	mov	r1, r0
 80014de:	4806      	ldr	r0, [pc, #24]	; (80014f8 <SENSOR_IO_ReadMultiple+0x2c>)
 80014e0:	f001 fbda 	bl	8002c98 <HAL_I2C_Mem_Read>
 80014e4:	4604      	mov	r4, r0
 80014e6:	b120      	cbz	r0, 80014f2 <SENSOR_IO_ReadMultiple+0x26>
 80014e8:	4803      	ldr	r0, [pc, #12]	; (80014f8 <SENSOR_IO_ReadMultiple+0x2c>)
 80014ea:	f001 fae1 	bl	8002ab0 <HAL_I2C_DeInit>
 80014ee:	f7ff ff51 	bl	8001394 <I2Cx_Init.constprop.0>
 80014f2:	b2a0      	uxth	r0, r4
 80014f4:	b004      	add	sp, #16
 80014f6:	bd10      	pop	{r4, pc}
 80014f8:	200007d0 	.word	0x200007d0

080014fc <BSP_ACCELERO_Init>:
 80014fc:	b510      	push	{r4, lr}
 80014fe:	4c07      	ldr	r4, [pc, #28]	; (800151c <BSP_ACCELERO_Init+0x20>)
 8001500:	68a3      	ldr	r3, [r4, #8]
 8001502:	4798      	blx	r3
 8001504:	286a      	cmp	r0, #106	; 0x6a
 8001506:	d107      	bne.n	8001518 <BSP_ACCELERO_Init+0x1c>
 8001508:	4b05      	ldr	r3, [pc, #20]	; (8001520 <BSP_ACCELERO_Init+0x24>)
 800150a:	f244 4030 	movw	r0, #17456	; 0x4430
 800150e:	601c      	str	r4, [r3, #0]
 8001510:	6823      	ldr	r3, [r4, #0]
 8001512:	4798      	blx	r3
 8001514:	2000      	movs	r0, #0
 8001516:	bd10      	pop	{r4, pc}
 8001518:	2001      	movs	r0, #1
 800151a:	e7fc      	b.n	8001516 <BSP_ACCELERO_Init+0x1a>
 800151c:	20000068 	.word	0x20000068
 8001520:	20000824 	.word	0x20000824

08001524 <BSP_ACCELERO_AccGetXYZ>:
 8001524:	4b03      	ldr	r3, [pc, #12]	; (8001534 <BSP_ACCELERO_AccGetXYZ+0x10>)
 8001526:	681b      	ldr	r3, [r3, #0]
 8001528:	b113      	cbz	r3, 8001530 <BSP_ACCELERO_AccGetXYZ+0xc>
 800152a:	6b1b      	ldr	r3, [r3, #48]	; 0x30
 800152c:	b103      	cbz	r3, 8001530 <BSP_ACCELERO_AccGetXYZ+0xc>
 800152e:	4718      	bx	r3
 8001530:	4770      	bx	lr
 8001532:	bf00      	nop
 8001534:	20000824 	.word	0x20000824

08001538 <BSP_HSENSOR_Init>:
 8001538:	b510      	push	{r4, lr}
 800153a:	4c07      	ldr	r4, [pc, #28]	; (8001558 <BSP_HSENSOR_Init+0x20>)
 800153c:	20be      	movs	r0, #190	; 0xbe
 800153e:	6863      	ldr	r3, [r4, #4]
 8001540:	4798      	blx	r3
 8001542:	28bc      	cmp	r0, #188	; 0xbc
 8001544:	d106      	bne.n	8001554 <BSP_HSENSOR_Init+0x1c>
 8001546:	4b05      	ldr	r3, [pc, #20]	; (800155c <BSP_HSENSOR_Init+0x24>)
 8001548:	20be      	movs	r0, #190	; 0xbe
 800154a:	601c      	str	r4, [r3, #0]
 800154c:	6823      	ldr	r3, [r4, #0]
 800154e:	4798      	blx	r3
 8001550:	2000      	movs	r0, #0
 8001552:	bd10      	pop	{r4, pc}
 8001554:	2001      	movs	r0, #1
 8001556:	e7fc      	b.n	8001552 <BSP_HSENSOR_Init+0x1a>
 8001558:	2000000c 	.word	0x2000000c
 800155c:	20000828 	.word	0x20000828

08001560 <BSP_MAGNETO_Init>:
 8001560:	b513      	push	{r0, r1, r4, lr}
 8001562:	4c0b      	ldr	r4, [pc, #44]	; (8001590 <BSP_MAGNETO_Init+0x30>)
 8001564:	68a3      	ldr	r3, [r4, #8]
 8001566:	4798      	blx	r3
 8001568:	283d      	cmp	r0, #61	; 0x3d
 800156a:	d10e      	bne.n	800158a <BSP_MAGNETO_Init+0x2a>
 800156c:	4b09      	ldr	r3, [pc, #36]	; (8001594 <BSP_MAGNETO_Init+0x34>)
 800156e:	601c      	str	r4, [r3, #0]
 8001570:	4b09      	ldr	r3, [pc, #36]	; (8001598 <BSP_MAGNETO_Init+0x38>)
 8001572:	9300      	str	r3, [sp, #0]
 8001574:	2340      	movs	r3, #64	; 0x40
 8001576:	f88d 3004 	strb.w	r3, [sp, #4]
 800157a:	aa02      	add	r2, sp, #8
 800157c:	e912 0003 	ldmdb	r2, {r0, r1}
 8001580:	6823      	ldr	r3, [r4, #0]
 8001582:	4798      	blx	r3
 8001584:	2000      	movs	r0, #0
 8001586:	b002      	add	sp, #8
 8001588:	bd10      	pop	{r4, pc}
 800158a:	2001      	movs	r0, #1
 800158c:	e7fb      	b.n	8001586 <BSP_MAGNETO_Init+0x26>
 800158e:	bf00      	nop
 8001590:	20000028 	.word	0x20000028
 8001594:	2000082c 	.word	0x2000082c
 8001598:	08000058 	.word	0x08000058

0800159c <BSP_MAGNETO_GetXYZ>:
 800159c:	4b03      	ldr	r3, [pc, #12]	; (80015ac <BSP_MAGNETO_GetXYZ+0x10>)
 800159e:	681b      	ldr	r3, [r3, #0]
 80015a0:	b113      	cbz	r3, 80015a8 <BSP_MAGNETO_GetXYZ+0xc>
 80015a2:	6b1b      	ldr	r3, [r3, #48]	; 0x30
 80015a4:	b103      	cbz	r3, 80015a8 <BSP_MAGNETO_GetXYZ+0xc>
 80015a6:	4718      	bx	r3
 80015a8:	4770      	bx	lr
 80015aa:	bf00      	nop
 80015ac:	2000082c 	.word	0x2000082c

080015b0 <BSP_PSENSOR_Init>:
 80015b0:	b510      	push	{r4, lr}
 80015b2:	4c07      	ldr	r4, [pc, #28]	; (80015d0 <BSP_PSENSOR_Init+0x20>)
 80015b4:	20ba      	movs	r0, #186	; 0xba
 80015b6:	6863      	ldr	r3, [r4, #4]
 80015b8:	4798      	blx	r3
 80015ba:	28b1      	cmp	r0, #177	; 0xb1
 80015bc:	d106      	bne.n	80015cc <BSP_PSENSOR_Init+0x1c>
 80015be:	4b05      	ldr	r3, [pc, #20]	; (80015d4 <BSP_PSENSOR_Init+0x24>)
 80015c0:	20ba      	movs	r0, #186	; 0xba
 80015c2:	601c      	str	r4, [r3, #0]
 80015c4:	6823      	ldr	r3, [r4, #0]
 80015c6:	4798      	blx	r3
 80015c8:	2000      	movs	r0, #0
 80015ca:	bd10      	pop	{r4, pc}
 80015cc:	2001      	movs	r0, #1
 80015ce:	e7fc      	b.n	80015ca <BSP_PSENSOR_Init+0x1a>
 80015d0:	2000005c 	.word	0x2000005c
 80015d4:	20000830 	.word	0x20000830

080015d8 <BSP_PSENSOR_ReadPressure>:
 80015d8:	4b02      	ldr	r3, [pc, #8]	; (80015e4 <BSP_PSENSOR_ReadPressure+0xc>)
 80015da:	681b      	ldr	r3, [r3, #0]
 80015dc:	20ba      	movs	r0, #186	; 0xba
 80015de:	689b      	ldr	r3, [r3, #8]
 80015e0:	4718      	bx	r3
 80015e2:	bf00      	nop
 80015e4:	20000830 	.word	0x20000830

080015e8 <QSPI_WriteEnable.constprop.0>:
 80015e8:	b510      	push	{r4, lr}
 80015ea:	2206      	movs	r2, #6
 80015ec:	b09a      	sub	sp, #104	; 0x68
 80015ee:	2401      	movs	r4, #1
 80015f0:	2300      	movs	r3, #0
 80015f2:	e9cd 2408 	strd	r2, r4, [sp, #32]
 80015f6:	481b      	ldr	r0, [pc, #108]	; (8001664 <QSPI_WriteEnable.constprop.0+0x7c>)
 80015f8:	930d      	str	r3, [sp, #52]	; 0x34
 80015fa:	f241 3288 	movw	r2, #5000	; 0x1388
 80015fe:	a906      	add	r1, sp, #24
 8001600:	e9cd 3306 	strd	r3, r3, [sp, #24]
 8001604:	e9cd 330a 	strd	r3, r3, [sp, #40]	; 0x28
 8001608:	e9cd 3317 	strd	r3, r3, [sp, #92]	; 0x5c
 800160c:	9311      	str	r3, [sp, #68]	; 0x44
 800160e:	9314      	str	r3, [sp, #80]	; 0x50
 8001610:	9319      	str	r3, [sp, #100]	; 0x64
 8001612:	f001 fdea 	bl	80031ea <HAL_OSPI_Command>
 8001616:	b110      	cbz	r0, 800161e <QSPI_WriteEnable.constprop.0+0x36>
 8001618:	2001      	movs	r0, #1
 800161a:	b01a      	add	sp, #104	; 0x68
 800161c:	bd10      	pop	{r4, pc}
 800161e:	2302      	movs	r3, #2
 8001620:	2210      	movs	r2, #16
 8001622:	e9cd 3301 	strd	r3, r3, [sp, #4]
 8001626:	f44f 0380 	mov.w	r3, #4194304	; 0x400000
 800162a:	e9cd 3204 	strd	r3, r2, [sp, #16]
 800162e:	2305      	movs	r3, #5
 8001630:	9003      	str	r0, [sp, #12]
 8001632:	9308      	str	r3, [sp, #32]
 8001634:	9016      	str	r0, [sp, #88]	; 0x58
 8001636:	f04f 7380 	mov.w	r3, #16777216	; 0x1000000
 800163a:	480a      	ldr	r0, [pc, #40]	; (8001664 <QSPI_WriteEnable.constprop.0+0x7c>)
 800163c:	f241 3288 	movw	r2, #5000	; 0x1388
 8001640:	a906      	add	r1, sp, #24
 8001642:	e9cd 3414 	strd	r3, r4, [sp, #80]	; 0x50
 8001646:	f001 fdd0 	bl	80031ea <HAL_OSPI_Command>
 800164a:	2800      	cmp	r0, #0
 800164c:	d1e4      	bne.n	8001618 <QSPI_WriteEnable.constprop.0+0x30>
 800164e:	4805      	ldr	r0, [pc, #20]	; (8001664 <QSPI_WriteEnable.constprop.0+0x7c>)
 8001650:	f241 3288 	movw	r2, #5000	; 0x1388
 8001654:	a901      	add	r1, sp, #4
 8001656:	f001 fea2 	bl	800339e <HAL_OSPI_AutoPolling>
 800165a:	3800      	subs	r0, #0
 800165c:	bf18      	it	ne
 800165e:	2001      	movne	r0, #1
 8001660:	e7db      	b.n	800161a <QSPI_WriteEnable.constprop.0+0x32>
 8001662:	bf00      	nop
 8001664:	20000834 	.word	0x20000834

08001668 <QSPI_AutoPollingMemReady.constprop.0>:
 8001668:	b530      	push	{r4, r5, lr}
 800166a:	2205      	movs	r2, #5
 800166c:	b09b      	sub	sp, #108	; 0x6c
 800166e:	2401      	movs	r4, #1
 8001670:	2300      	movs	r3, #0
 8001672:	e9cd 2408 	strd	r2, r4, [sp, #32]
 8001676:	f04f 7280 	mov.w	r2, #16777216	; 0x1000000
 800167a:	e9cd 3306 	strd	r3, r3, [sp, #24]
 800167e:	e9cd 330a 	strd	r3, r3, [sp, #40]	; 0x28
 8001682:	e9cd 2414 	strd	r2, r4, [sp, #80]	; 0x50
 8001686:	e9cd 3316 	strd	r3, r3, [sp, #88]	; 0x58
 800168a:	2210      	movs	r2, #16
 800168c:	e9cd 3318 	strd	r3, r3, [sp, #96]	; 0x60
 8001690:	e9cd 3401 	strd	r3, r4, [sp, #4]
 8001694:	930d      	str	r3, [sp, #52]	; 0x34
 8001696:	9311      	str	r3, [sp, #68]	; 0x44
 8001698:	9303      	str	r3, [sp, #12]
 800169a:	f44f 0380 	mov.w	r3, #4194304	; 0x400000
 800169e:	e9cd 3204 	strd	r3, r2, [sp, #16]
 80016a2:	4605      	mov	r5, r0
 80016a4:	f241 3288 	movw	r2, #5000	; 0x1388
 80016a8:	4808      	ldr	r0, [pc, #32]	; (80016cc <QSPI_AutoPollingMemReady.constprop.0+0x64>)
 80016aa:	a906      	add	r1, sp, #24
 80016ac:	f001 fd9d 	bl	80031ea <HAL_OSPI_Command>
 80016b0:	b948      	cbnz	r0, 80016c6 <QSPI_AutoPollingMemReady.constprop.0+0x5e>
 80016b2:	4806      	ldr	r0, [pc, #24]	; (80016cc <QSPI_AutoPollingMemReady.constprop.0+0x64>)
 80016b4:	462a      	mov	r2, r5
 80016b6:	a901      	add	r1, sp, #4
 80016b8:	f001 fe71 	bl	800339e <HAL_OSPI_AutoPolling>
 80016bc:	3800      	subs	r0, #0
 80016be:	bf18      	it	ne
 80016c0:	2001      	movne	r0, #1
 80016c2:	b01b      	add	sp, #108	; 0x6c
 80016c4:	bd30      	pop	{r4, r5, pc}
 80016c6:	4620      	mov	r0, r4
 80016c8:	e7fb      	b.n	80016c2 <QSPI_AutoPollingMemReady.constprop.0+0x5a>
 80016ca:	bf00      	nop
 80016cc:	20000834 	.word	0x20000834

080016d0 <BSP_QSPI_Write>:
 80016d0:	e92d 41f0 	stmdb	sp!, {r4, r5, r6, r7, r8, lr}
 80016d4:	b2cd      	uxtb	r5, r1
 80016d6:	f5c5 7580 	rsb	r5, r5, #256	; 0x100
 80016da:	4295      	cmp	r5, r2
 80016dc:	b094      	sub	sp, #80	; 0x50
 80016de:	f04f 0300 	mov.w	r3, #0
 80016e2:	eb01 0602 	add.w	r6, r1, r2
 80016e6:	460c      	mov	r4, r1
 80016e8:	bf28      	it	cs
 80016ea:	4615      	movcs	r5, r2
 80016ec:	2138      	movs	r1, #56	; 0x38
 80016ee:	2201      	movs	r2, #1
 80016f0:	e9cd 1202 	strd	r1, r2, [sp, #8]
 80016f4:	4607      	mov	r7, r0
 80016f6:	f44f 5200 	mov.w	r2, #8192	; 0x2000
 80016fa:	f44f 7040 	mov.w	r0, #768	; 0x300
 80016fe:	e9cd 3300 	strd	r3, r3, [sp]
 8001702:	e9cd 3304 	strd	r3, r3, [sp, #16]
 8001706:	e9cd 3310 	strd	r3, r3, [sp, #64]	; 0x40
 800170a:	e9cd 3312 	strd	r3, r3, [sp, #72]	; 0x48
 800170e:	e9cd 0207 	strd	r0, r2, [sp, #28]
 8001712:	f8df 805c 	ldr.w	r8, [pc, #92]	; 8001770 <BSP_QSPI_Write+0xa0>
 8001716:	9309      	str	r3, [sp, #36]	; 0x24
 8001718:	f04f 7240 	mov.w	r2, #50331648	; 0x3000000
 800171c:	930b      	str	r3, [sp, #44]	; 0x2c
 800171e:	920e      	str	r2, [sp, #56]	; 0x38
 8001720:	9406      	str	r4, [sp, #24]
 8001722:	950f      	str	r5, [sp, #60]	; 0x3c
 8001724:	f7ff ff60 	bl	80015e8 <QSPI_WriteEnable.constprop.0>
 8001728:	bb00      	cbnz	r0, 800176c <BSP_QSPI_Write+0x9c>
 800172a:	4811      	ldr	r0, [pc, #68]	; (8001770 <BSP_QSPI_Write+0xa0>)
 800172c:	f241 3288 	movw	r2, #5000	; 0x1388
 8001730:	4669      	mov	r1, sp
 8001732:	f001 fd5a 	bl	80031ea <HAL_OSPI_Command>
 8001736:	b9c8      	cbnz	r0, 800176c <BSP_QSPI_Write+0x9c>
 8001738:	f241 3288 	movw	r2, #5000	; 0x1388
 800173c:	4639      	mov	r1, r7
 800173e:	4640      	mov	r0, r8
 8001740:	f001 fd9b 	bl	800327a <HAL_OSPI_Transmit>
 8001744:	b990      	cbnz	r0, 800176c <BSP_QSPI_Write+0x9c>
 8001746:	f241 3088 	movw	r0, #5000	; 0x1388
 800174a:	f7ff ff8d 	bl	8001668 <QSPI_AutoPollingMemReady.constprop.0>
 800174e:	b968      	cbnz	r0, 800176c <BSP_QSPI_Write+0x9c>
 8001750:	442c      	add	r4, r5
 8001752:	f504 7380 	add.w	r3, r4, #256	; 0x100
 8001756:	42b3      	cmp	r3, r6
 8001758:	442f      	add	r7, r5
 800175a:	bf8c      	ite	hi
 800175c:	1b35      	subhi	r5, r6, r4
 800175e:	f44f 7580 	movls.w	r5, #256	; 0x100
 8001762:	42a6      	cmp	r6, r4
 8001764:	d8dc      	bhi.n	8001720 <BSP_QSPI_Write+0x50>
 8001766:	b014      	add	sp, #80	; 0x50
 8001768:	e8bd 81f0 	ldmia.w	sp!, {r4, r5, r6, r7, r8, pc}
 800176c:	2001      	movs	r0, #1
 800176e:	e7fa      	b.n	8001766 <BSP_QSPI_Write+0x96>
 8001770:	20000834 	.word	0x20000834

08001774 <BSP_QSPI_Erase_Block>:
 8001774:	b500      	push	{lr}
 8001776:	b095      	sub	sp, #84	; 0x54
 8001778:	2201      	movs	r2, #1
 800177a:	21d8      	movs	r1, #216	; 0xd8
 800177c:	2300      	movs	r3, #0
 800177e:	e9cd 1202 	strd	r1, r2, [sp, #8]
 8001782:	9006      	str	r0, [sp, #24]
 8001784:	f44f 5200 	mov.w	r2, #8192	; 0x2000
 8001788:	f44f 7080 	mov.w	r0, #256	; 0x100
 800178c:	e9cd 3300 	strd	r3, r3, [sp]
 8001790:	e9cd 3304 	strd	r3, r3, [sp, #16]
 8001794:	e9cd 0207 	strd	r0, r2, [sp, #28]
 8001798:	e9cd 3311 	strd	r3, r3, [sp, #68]	; 0x44
 800179c:	9309      	str	r3, [sp, #36]	; 0x24
 800179e:	930b      	str	r3, [sp, #44]	; 0x2c
 80017a0:	930e      	str	r3, [sp, #56]	; 0x38
 80017a2:	9313      	str	r3, [sp, #76]	; 0x4c
 80017a4:	f7ff ff20 	bl	80015e8 <QSPI_WriteEnable.constprop.0>
 80017a8:	b118      	cbz	r0, 80017b2 <BSP_QSPI_Erase_Block+0x3e>
 80017aa:	2001      	movs	r0, #1
 80017ac:	b015      	add	sp, #84	; 0x54
 80017ae:	f85d fb04 	ldr.w	pc, [sp], #4
 80017b2:	4808      	ldr	r0, [pc, #32]	; (80017d4 <BSP_QSPI_Erase_Block+0x60>)
 80017b4:	f241 3288 	movw	r2, #5000	; 0x1388
 80017b8:	4669      	mov	r1, sp
 80017ba:	f001 fd16 	bl	80031ea <HAL_OSPI_Command>
 80017be:	2800      	cmp	r0, #0
 80017c0:	d1f3      	bne.n	80017aa <BSP_QSPI_Erase_Block+0x36>
 80017c2:	f640 50ac 	movw	r0, #3500	; 0xdac
 80017c6:	f7ff ff4f 	bl	8001668 <QSPI_AutoPollingMemReady.constprop.0>
 80017ca:	3800      	subs	r0, #0
 80017cc:	bf18      	it	ne
 80017ce:	2001      	movne	r0, #1
 80017d0:	e7ec      	b.n	80017ac <BSP_QSPI_Erase_Block+0x38>
 80017d2:	bf00      	nop
 80017d4:	20000834 	.word	0x20000834

080017d8 <BSP_QSPI_MspInit>:
 80017d8:	4b17      	ldr	r3, [pc, #92]	; (8001838 <BSP_QSPI_MspInit+0x60>)
 80017da:	4818      	ldr	r0, [pc, #96]	; (800183c <BSP_QSPI_MspInit+0x64>)
 80017dc:	6d1a      	ldr	r2, [r3, #80]	; 0x50
 80017de:	b500      	push	{lr}
 80017e0:	f442 7280 	orr.w	r2, r2, #256	; 0x100
 80017e4:	651a      	str	r2, [r3, #80]	; 0x50
 80017e6:	6d1a      	ldr	r2, [r3, #80]	; 0x50
 80017e8:	b089      	sub	sp, #36	; 0x24
 80017ea:	f402 7280 	and.w	r2, r2, #256	; 0x100
 80017ee:	9201      	str	r2, [sp, #4]
 80017f0:	9a01      	ldr	r2, [sp, #4]
 80017f2:	6b1a      	ldr	r2, [r3, #48]	; 0x30
 80017f4:	f442 7280 	orr.w	r2, r2, #256	; 0x100
 80017f8:	631a      	str	r2, [r3, #48]	; 0x30
 80017fa:	6b1a      	ldr	r2, [r3, #48]	; 0x30
 80017fc:	f422 7280 	bic.w	r2, r2, #256	; 0x100
 8001800:	631a      	str	r2, [r3, #48]	; 0x30
 8001802:	6cda      	ldr	r2, [r3, #76]	; 0x4c
 8001804:	f042 0210 	orr.w	r2, r2, #16
 8001808:	64da      	str	r2, [r3, #76]	; 0x4c
 800180a:	6cdb      	ldr	r3, [r3, #76]	; 0x4c
 800180c:	f003 0310 	and.w	r3, r3, #16
 8001810:	9302      	str	r3, [sp, #8]
 8001812:	9b02      	ldr	r3, [sp, #8]
 8001814:	f44f 427c 	mov.w	r2, #64512	; 0xfc00
 8001818:	2302      	movs	r3, #2
 800181a:	e9cd 2303 	strd	r2, r3, [sp, #12]
 800181e:	2100      	movs	r1, #0
 8001820:	2303      	movs	r3, #3
 8001822:	e9cd 1305 	strd	r1, r3, [sp, #20]
 8001826:	230a      	movs	r3, #10
 8001828:	a903      	add	r1, sp, #12
 800182a:	9307      	str	r3, [sp, #28]
 800182c:	f000 fe46 	bl	80024bc <HAL_GPIO_Init>
 8001830:	b009      	add	sp, #36	; 0x24
 8001832:	f85d fb04 	ldr.w	pc, [sp], #4
 8001836:	bf00      	nop
 8001838:	40021000 	.word	0x40021000
 800183c:	48001000 	.word	0x48001000

08001840 <BSP_QSPI_Init>:
 8001840:	b530      	push	{r4, r5, lr}
 8001842:	4c9a      	ldr	r4, [pc, #616]	; (8001aac <BSP_QSPI_Init+0x26c>)
 8001844:	4b9a      	ldr	r3, [pc, #616]	; (8001ab0 <BSP_QSPI_Init+0x270>)
 8001846:	6023      	str	r3, [r4, #0]
 8001848:	b097      	sub	sp, #92	; 0x5c
 800184a:	4620      	mov	r0, r4
 800184c:	f001 fcba 	bl	80031c4 <HAL_OSPI_DeInit>
 8001850:	4605      	mov	r5, r0
 8001852:	b108      	cbz	r0, 8001858 <BSP_QSPI_Init+0x18>
 8001854:	2001      	movs	r0, #1
 8001856:	e035      	b.n	80018c4 <BSP_QSPI_Init+0x84>
 8001858:	f7ff ffbe 	bl	80017d8 <BSP_QSPI_MspInit>
 800185c:	2304      	movs	r3, #4
 800185e:	e9c4 3501 	strd	r3, r5, [r4, #4]
 8001862:	f04f 7380 	mov.w	r3, #16777216	; 0x1000000
 8001866:	60e3      	str	r3, [r4, #12]
 8001868:	f44f 0300 	mov.w	r3, #8388608	; 0x800000
 800186c:	fa93 f3a3 	rbit	r3, r3
 8001870:	fab3 f383 	clz	r3, r3
 8001874:	2204      	movs	r2, #4
 8001876:	6123      	str	r3, [r4, #16]
 8001878:	2300      	movs	r3, #0
 800187a:	e9c4 2308 	strd	r2, r3, [r4, #32]
 800187e:	2501      	movs	r5, #1
 8001880:	f04f 5280 	mov.w	r2, #268435456	; 0x10000000
 8001884:	4889      	ldr	r0, [pc, #548]	; (8001aac <BSP_QSPI_Init+0x26c>)
 8001886:	61e3      	str	r3, [r4, #28]
 8001888:	e9c4 5305 	strd	r5, r3, [r4, #20]
 800188c:	e9c4 230a 	strd	r2, r3, [r4, #40]	; 0x28
 8001890:	6323      	str	r3, [r4, #48]	; 0x30
 8001892:	f001 fc2d 	bl	80030f0 <HAL_OSPI_Init>
 8001896:	2800      	cmp	r0, #0
 8001898:	d1dc      	bne.n	8001854 <BSP_QSPI_Init+0x14>
 800189a:	e9cd 0002 	strd	r0, r0, [sp, #8]
 800189e:	e9cd 0006 	strd	r0, r0, [sp, #24]
 80018a2:	e9cd 0013 	strd	r0, r0, [sp, #76]	; 0x4c
 80018a6:	2366      	movs	r3, #102	; 0x66
 80018a8:	9009      	str	r0, [sp, #36]	; 0x24
 80018aa:	900d      	str	r0, [sp, #52]	; 0x34
 80018ac:	9010      	str	r0, [sp, #64]	; 0x40
 80018ae:	9015      	str	r0, [sp, #84]	; 0x54
 80018b0:	f241 3288 	movw	r2, #5000	; 0x1388
 80018b4:	487d      	ldr	r0, [pc, #500]	; (8001aac <BSP_QSPI_Init+0x26c>)
 80018b6:	a902      	add	r1, sp, #8
 80018b8:	e9cd 3504 	strd	r3, r5, [sp, #16]
 80018bc:	f001 fc95 	bl	80031ea <HAL_OSPI_Command>
 80018c0:	b110      	cbz	r0, 80018c8 <BSP_QSPI_Init+0x88>
 80018c2:	2004      	movs	r0, #4
 80018c4:	b017      	add	sp, #92	; 0x5c
 80018c6:	bd30      	pop	{r4, r5, pc}
 80018c8:	2399      	movs	r3, #153	; 0x99
 80018ca:	4878      	ldr	r0, [pc, #480]	; (8001aac <BSP_QSPI_Init+0x26c>)
 80018cc:	9304      	str	r3, [sp, #16]
 80018ce:	f241 3288 	movw	r2, #5000	; 0x1388
 80018d2:	a902      	add	r1, sp, #8
 80018d4:	f001 fc89 	bl	80031ea <HAL_OSPI_Command>
 80018d8:	2800      	cmp	r0, #0
 80018da:	d1f2      	bne.n	80018c2 <BSP_QSPI_Init+0x82>
 80018dc:	f241 3088 	movw	r0, #5000	; 0x1388
 80018e0:	f7ff fec2 	bl	8001668 <QSPI_AutoPollingMemReady.constprop.0>
 80018e4:	2800      	cmp	r0, #0
 80018e6:	d1ec      	bne.n	80018c2 <BSP_QSPI_Init+0x82>
 80018e8:	2305      	movs	r3, #5
 80018ea:	e9cd 0002 	strd	r0, r0, [sp, #8]
 80018ee:	e9cd 3504 	strd	r3, r5, [sp, #16]
 80018f2:	e9cd 0006 	strd	r0, r0, [sp, #24]
 80018f6:	e9cd 0012 	strd	r0, r0, [sp, #72]	; 0x48
 80018fa:	e9cd 0014 	strd	r0, r0, [sp, #80]	; 0x50
 80018fe:	9009      	str	r0, [sp, #36]	; 0x24
 8001900:	900d      	str	r0, [sp, #52]	; 0x34
 8001902:	f04f 7380 	mov.w	r3, #16777216	; 0x1000000
 8001906:	4869      	ldr	r0, [pc, #420]	; (8001aac <BSP_QSPI_Init+0x26c>)
 8001908:	9310      	str	r3, [sp, #64]	; 0x40
 800190a:	f241 3288 	movw	r2, #5000	; 0x1388
 800190e:	a902      	add	r1, sp, #8
 8001910:	9511      	str	r5, [sp, #68]	; 0x44
 8001912:	f001 fc6a 	bl	80031ea <HAL_OSPI_Command>
 8001916:	2800      	cmp	r0, #0
 8001918:	d19c      	bne.n	8001854 <BSP_QSPI_Init+0x14>
 800191a:	4864      	ldr	r0, [pc, #400]	; (8001aac <BSP_QSPI_Init+0x26c>)
 800191c:	f241 3288 	movw	r2, #5000	; 0x1388
 8001920:	a901      	add	r1, sp, #4
 8001922:	f001 fcea 	bl	80032fa <HAL_OSPI_Receive>
 8001926:	2800      	cmp	r0, #0
 8001928:	d194      	bne.n	8001854 <BSP_QSPI_Init+0x14>
 800192a:	f7ff fe5d 	bl	80015e8 <QSPI_WriteEnable.constprop.0>
 800192e:	2800      	cmp	r0, #0
 8001930:	d190      	bne.n	8001854 <BSP_QSPI_Init+0x14>
 8001932:	f89d 3004 	ldrb.w	r3, [sp, #4]
 8001936:	485d      	ldr	r0, [pc, #372]	; (8001aac <BSP_QSPI_Init+0x26c>)
 8001938:	9504      	str	r5, [sp, #16]
 800193a:	f043 0340 	orr.w	r3, r3, #64	; 0x40
 800193e:	f241 3288 	movw	r2, #5000	; 0x1388
 8001942:	a902      	add	r1, sp, #8
 8001944:	f88d 3004 	strb.w	r3, [sp, #4]
 8001948:	f001 fc4f 	bl	80031ea <HAL_OSPI_Command>
 800194c:	2800      	cmp	r0, #0
 800194e:	d181      	bne.n	8001854 <BSP_QSPI_Init+0x14>
 8001950:	4856      	ldr	r0, [pc, #344]	; (8001aac <BSP_QSPI_Init+0x26c>)
 8001952:	f241 3288 	movw	r2, #5000	; 0x1388
 8001956:	a901      	add	r1, sp, #4
 8001958:	f001 fc8f 	bl	800327a <HAL_OSPI_Transmit>
 800195c:	2800      	cmp	r0, #0
 800195e:	f47f af79 	bne.w	8001854 <BSP_QSPI_Init+0x14>
 8001962:	f241 3088 	movw	r0, #5000	; 0x1388
 8001966:	f7ff fe7f 	bl	8001668 <QSPI_AutoPollingMemReady.constprop.0>
 800196a:	2800      	cmp	r0, #0
 800196c:	f47f af72 	bne.w	8001854 <BSP_QSPI_Init+0x14>
 8001970:	2505      	movs	r5, #5
 8001972:	484e      	ldr	r0, [pc, #312]	; (8001aac <BSP_QSPI_Init+0x26c>)
 8001974:	9504      	str	r5, [sp, #16]
 8001976:	f241 3288 	movw	r2, #5000	; 0x1388
 800197a:	a902      	add	r1, sp, #8
 800197c:	f001 fc35 	bl	80031ea <HAL_OSPI_Command>
 8001980:	2800      	cmp	r0, #0
 8001982:	f47f af67 	bne.w	8001854 <BSP_QSPI_Init+0x14>
 8001986:	4849      	ldr	r0, [pc, #292]	; (8001aac <BSP_QSPI_Init+0x26c>)
 8001988:	f241 3288 	movw	r2, #5000	; 0x1388
 800198c:	a901      	add	r1, sp, #4
 800198e:	f001 fcb4 	bl	80032fa <HAL_OSPI_Receive>
 8001992:	2800      	cmp	r0, #0
 8001994:	f47f af5e 	bne.w	8001854 <BSP_QSPI_Init+0x14>
 8001998:	f89d 3004 	ldrb.w	r3, [sp, #4]
 800199c:	0659      	lsls	r1, r3, #25
 800199e:	f57f af59 	bpl.w	8001854 <BSP_QSPI_Init+0x14>
 80019a2:	9504      	str	r5, [sp, #16]
 80019a4:	2501      	movs	r5, #1
 80019a6:	e9cd 0002 	strd	r0, r0, [sp, #8]
 80019aa:	e9cd 5005 	strd	r5, r0, [sp, #20]
 80019ae:	e9cd 0012 	strd	r0, r0, [sp, #72]	; 0x48
 80019b2:	e9cd 0014 	strd	r0, r0, [sp, #80]	; 0x50
 80019b6:	9007      	str	r0, [sp, #28]
 80019b8:	9009      	str	r0, [sp, #36]	; 0x24
 80019ba:	900d      	str	r0, [sp, #52]	; 0x34
 80019bc:	f04f 7380 	mov.w	r3, #16777216	; 0x1000000
 80019c0:	483a      	ldr	r0, [pc, #232]	; (8001aac <BSP_QSPI_Init+0x26c>)
 80019c2:	9310      	str	r3, [sp, #64]	; 0x40
 80019c4:	f241 3288 	movw	r2, #5000	; 0x1388
 80019c8:	a902      	add	r1, sp, #8
 80019ca:	9511      	str	r5, [sp, #68]	; 0x44
 80019cc:	f001 fc0d 	bl	80031ea <HAL_OSPI_Command>
 80019d0:	2800      	cmp	r0, #0
 80019d2:	f47f af3f 	bne.w	8001854 <BSP_QSPI_Init+0x14>
 80019d6:	4835      	ldr	r0, [pc, #212]	; (8001aac <BSP_QSPI_Init+0x26c>)
 80019d8:	f241 3288 	movw	r2, #5000	; 0x1388
 80019dc:	a901      	add	r1, sp, #4
 80019de:	f001 fc8c 	bl	80032fa <HAL_OSPI_Receive>
 80019e2:	2800      	cmp	r0, #0
 80019e4:	f47f af36 	bne.w	8001854 <BSP_QSPI_Init+0x14>
 80019e8:	2315      	movs	r3, #21
 80019ea:	9304      	str	r3, [sp, #16]
 80019ec:	482f      	ldr	r0, [pc, #188]	; (8001aac <BSP_QSPI_Init+0x26c>)
 80019ee:	2302      	movs	r3, #2
 80019f0:	f241 3288 	movw	r2, #5000	; 0x1388
 80019f4:	a902      	add	r1, sp, #8
 80019f6:	9311      	str	r3, [sp, #68]	; 0x44
 80019f8:	f001 fbf7 	bl	80031ea <HAL_OSPI_Command>
 80019fc:	2800      	cmp	r0, #0
 80019fe:	f47f af29 	bne.w	8001854 <BSP_QSPI_Init+0x14>
 8001a02:	482a      	ldr	r0, [pc, #168]	; (8001aac <BSP_QSPI_Init+0x26c>)
 8001a04:	f241 3288 	movw	r2, #5000	; 0x1388
 8001a08:	f10d 0105 	add.w	r1, sp, #5
 8001a0c:	f001 fc75 	bl	80032fa <HAL_OSPI_Receive>
 8001a10:	2800      	cmp	r0, #0
 8001a12:	f47f af1f 	bne.w	8001854 <BSP_QSPI_Init+0x14>
 8001a16:	f7ff fde7 	bl	80015e8 <QSPI_WriteEnable.constprop.0>
 8001a1a:	2800      	cmp	r0, #0
 8001a1c:	f47f af1a 	bne.w	8001854 <BSP_QSPI_Init+0x14>
 8001a20:	f89d 3006 	ldrb.w	r3, [sp, #6]
 8001a24:	4821      	ldr	r0, [pc, #132]	; (8001aac <BSP_QSPI_Init+0x26c>)
 8001a26:	9504      	str	r5, [sp, #16]
 8001a28:	f043 0302 	orr.w	r3, r3, #2
 8001a2c:	f88d 3006 	strb.w	r3, [sp, #6]
 8001a30:	f241 3288 	movw	r2, #5000	; 0x1388
 8001a34:	2303      	movs	r3, #3
 8001a36:	a902      	add	r1, sp, #8
 8001a38:	9311      	str	r3, [sp, #68]	; 0x44
 8001a3a:	f001 fbd6 	bl	80031ea <HAL_OSPI_Command>
 8001a3e:	2800      	cmp	r0, #0
 8001a40:	f47f af08 	bne.w	8001854 <BSP_QSPI_Init+0x14>
 8001a44:	4819      	ldr	r0, [pc, #100]	; (8001aac <BSP_QSPI_Init+0x26c>)
 8001a46:	f241 3288 	movw	r2, #5000	; 0x1388
 8001a4a:	a901      	add	r1, sp, #4
 8001a4c:	f001 fc15 	bl	800327a <HAL_OSPI_Transmit>
 8001a50:	2800      	cmp	r0, #0
 8001a52:	f47f aeff 	bne.w	8001854 <BSP_QSPI_Init+0x14>
 8001a56:	f241 3088 	movw	r0, #5000	; 0x1388
 8001a5a:	f7ff fe05 	bl	8001668 <QSPI_AutoPollingMemReady.constprop.0>
 8001a5e:	2800      	cmp	r0, #0
 8001a60:	f47f aef8 	bne.w	8001854 <BSP_QSPI_Init+0x14>
 8001a64:	2315      	movs	r3, #21
 8001a66:	2502      	movs	r5, #2
 8001a68:	4810      	ldr	r0, [pc, #64]	; (8001aac <BSP_QSPI_Init+0x26c>)
 8001a6a:	9304      	str	r3, [sp, #16]
 8001a6c:	f241 3288 	movw	r2, #5000	; 0x1388
 8001a70:	a902      	add	r1, sp, #8
 8001a72:	9511      	str	r5, [sp, #68]	; 0x44
 8001a74:	f001 fbb9 	bl	80031ea <HAL_OSPI_Command>
 8001a78:	2800      	cmp	r0, #0
 8001a7a:	f47f aeeb 	bne.w	8001854 <BSP_QSPI_Init+0x14>
 8001a7e:	480b      	ldr	r0, [pc, #44]	; (8001aac <BSP_QSPI_Init+0x26c>)
 8001a80:	f241 3288 	movw	r2, #5000	; 0x1388
 8001a84:	a901      	add	r1, sp, #4
 8001a86:	f001 fc38 	bl	80032fa <HAL_OSPI_Receive>
 8001a8a:	2800      	cmp	r0, #0
 8001a8c:	f47f aee2 	bne.w	8001854 <BSP_QSPI_Init+0x14>
 8001a90:	f89d 3005 	ldrb.w	r3, [sp, #5]
 8001a94:	079b      	lsls	r3, r3, #30
 8001a96:	f57f aedd 	bpl.w	8001854 <BSP_QSPI_Init+0x14>
 8001a9a:	4804      	ldr	r0, [pc, #16]	; (8001aac <BSP_QSPI_Init+0x26c>)
 8001a9c:	6225      	str	r5, [r4, #32]
 8001a9e:	f001 fb27 	bl	80030f0 <HAL_OSPI_Init>
 8001aa2:	3800      	subs	r0, #0
 8001aa4:	bf18      	it	ne
 8001aa6:	2001      	movne	r0, #1
 8001aa8:	e70c      	b.n	80018c4 <BSP_QSPI_Init+0x84>
 8001aaa:	bf00      	nop
 8001aac:	20000834 	.word	0x20000834
 8001ab0:	a0001000 	.word	0xa0001000

08001ab4 <BSP_TSENSOR_Init>:
 8001ab4:	b510      	push	{r4, lr}
 8001ab6:	4c06      	ldr	r4, [pc, #24]	; (8001ad0 <BSP_TSENSOR_Init+0x1c>)
 8001ab8:	4b06      	ldr	r3, [pc, #24]	; (8001ad4 <BSP_TSENSOR_Init+0x20>)
 8001aba:	6023      	str	r3, [r4, #0]
 8001abc:	f7ff fcca 	bl	8001454 <SENSOR_IO_Init>
 8001ac0:	6823      	ldr	r3, [r4, #0]
 8001ac2:	2100      	movs	r1, #0
 8001ac4:	681b      	ldr	r3, [r3, #0]
 8001ac6:	20be      	movs	r0, #190	; 0xbe
 8001ac8:	4798      	blx	r3
 8001aca:	2000      	movs	r0, #0
 8001acc:	bd10      	pop	{r4, pc}
 8001ace:	bf00      	nop
 8001ad0:	20000884 	.word	0x20000884
 8001ad4:	20000018 	.word	0x20000018

08001ad8 <BSP_TSENSOR_ReadTemp>:
 8001ad8:	4b02      	ldr	r3, [pc, #8]	; (8001ae4 <BSP_TSENSOR_ReadTemp+0xc>)
 8001ada:	681b      	ldr	r3, [r3, #0]
 8001adc:	20be      	movs	r0, #190	; 0xbe
 8001ade:	68db      	ldr	r3, [r3, #12]
 8001ae0:	4718      	bx	r3
 8001ae2:	bf00      	nop
 8001ae4:	20000884 	.word	0x20000884

08001ae8 <HAL_MspInit>:
 8001ae8:	4b0d      	ldr	r3, [pc, #52]	; (8001b20 <HAL_MspInit+0x38>)
 8001aea:	6e1a      	ldr	r2, [r3, #96]	; 0x60
 8001aec:	f042 0201 	orr.w	r2, r2, #1
 8001af0:	661a      	str	r2, [r3, #96]	; 0x60
 8001af2:	6e1a      	ldr	r2, [r3, #96]	; 0x60
 8001af4:	b082      	sub	sp, #8
 8001af6:	f002 0201 	and.w	r2, r2, #1
 8001afa:	9200      	str	r2, [sp, #0]
 8001afc:	9a00      	ldr	r2, [sp, #0]
 8001afe:	6d9a      	ldr	r2, [r3, #88]	; 0x58
 8001b00:	f042 5280 	orr.w	r2, r2, #268435456	; 0x10000000
 8001b04:	659a      	str	r2, [r3, #88]	; 0x58
 8001b06:	6d9b      	ldr	r3, [r3, #88]	; 0x58
 8001b08:	f003 5380 	and.w	r3, r3, #268435456	; 0x10000000
 8001b0c:	9301      	str	r3, [sp, #4]
 8001b0e:	9b01      	ldr	r3, [sp, #4]
 8001b10:	2200      	movs	r2, #0
 8001b12:	210f      	movs	r1, #15
 8001b14:	f06f 0001 	mvn.w	r0, #1
 8001b18:	b002      	add	sp, #8
 8001b1a:	f000 bc8f 	b.w	800243c <HAL_NVIC_SetPriority>
 8001b1e:	bf00      	nop
 8001b20:	40021000 	.word	0x40021000

08001b24 <HAL_I2C_MspInit>:
 8001b24:	b510      	push	{r4, lr}
 8001b26:	b0ac      	sub	sp, #176	; 0xb0
 8001b28:	4604      	mov	r4, r0
 8001b2a:	2214      	movs	r2, #20
 8001b2c:	2100      	movs	r1, #0
 8001b2e:	a802      	add	r0, sp, #8
 8001b30:	f004 fe27 	bl	8006782 <memset>
 8001b34:	2294      	movs	r2, #148	; 0x94
 8001b36:	2100      	movs	r1, #0
 8001b38:	a807      	add	r0, sp, #28
 8001b3a:	f004 fe22 	bl	8006782 <memset>
 8001b3e:	6822      	ldr	r2, [r4, #0]
 8001b40:	4b17      	ldr	r3, [pc, #92]	; (8001ba0 <HAL_I2C_MspInit+0x7c>)
 8001b42:	429a      	cmp	r2, r3
 8001b44:	d129      	bne.n	8001b9a <HAL_I2C_MspInit+0x76>
 8001b46:	2380      	movs	r3, #128	; 0x80
 8001b48:	a807      	add	r0, sp, #28
 8001b4a:	9307      	str	r3, [sp, #28]
 8001b4c:	f002 fa40 	bl	8003fd0 <HAL_RCCEx_PeriphCLKConfig>
 8001b50:	b108      	cbz	r0, 8001b56 <HAL_I2C_MspInit+0x32>
 8001b52:	f7ff fa5f 	bl	8001014 <Error_Handler>
 8001b56:	4c13      	ldr	r4, [pc, #76]	; (8001ba4 <HAL_I2C_MspInit+0x80>)
 8001b58:	4813      	ldr	r0, [pc, #76]	; (8001ba8 <HAL_I2C_MspInit+0x84>)
 8001b5a:	6ce3      	ldr	r3, [r4, #76]	; 0x4c
 8001b5c:	f043 0302 	orr.w	r3, r3, #2
 8001b60:	64e3      	str	r3, [r4, #76]	; 0x4c
 8001b62:	6ce3      	ldr	r3, [r4, #76]	; 0x4c
 8001b64:	f003 0302 	and.w	r3, r3, #2
 8001b68:	9300      	str	r3, [sp, #0]
 8001b6a:	9b00      	ldr	r3, [sp, #0]
 8001b6c:	f44f 6240 	mov.w	r2, #3072	; 0xc00
 8001b70:	2312      	movs	r3, #18
 8001b72:	e9cd 2302 	strd	r2, r3, [sp, #8]
 8001b76:	2100      	movs	r1, #0
 8001b78:	2303      	movs	r3, #3
 8001b7a:	e9cd 1304 	strd	r1, r3, [sp, #16]
 8001b7e:	2304      	movs	r3, #4
 8001b80:	a902      	add	r1, sp, #8
 8001b82:	9306      	str	r3, [sp, #24]
 8001b84:	f000 fc9a 	bl	80024bc <HAL_GPIO_Init>
 8001b88:	6da3      	ldr	r3, [r4, #88]	; 0x58
 8001b8a:	f443 0380 	orr.w	r3, r3, #4194304	; 0x400000
 8001b8e:	65a3      	str	r3, [r4, #88]	; 0x58
 8001b90:	6da3      	ldr	r3, [r4, #88]	; 0x58
 8001b92:	f403 0380 	and.w	r3, r3, #4194304	; 0x400000
 8001b96:	9301      	str	r3, [sp, #4]
 8001b98:	9b01      	ldr	r3, [sp, #4]
 8001b9a:	b02c      	add	sp, #176	; 0xb0
 8001b9c:	bd10      	pop	{r4, pc}
 8001b9e:	bf00      	nop
 8001ba0:	40005800 	.word	0x40005800
 8001ba4:	40021000 	.word	0x40021000
 8001ba8:	48000400 	.word	0x48000400

08001bac <HAL_I2C_MspDeInit>:
 8001bac:	b508      	push	{r3, lr}
 8001bae:	6802      	ldr	r2, [r0, #0]
 8001bb0:	4b0a      	ldr	r3, [pc, #40]	; (8001bdc <HAL_I2C_MspDeInit+0x30>)
 8001bb2:	429a      	cmp	r2, r3
 8001bb4:	d110      	bne.n	8001bd8 <HAL_I2C_MspDeInit+0x2c>
 8001bb6:	4a0a      	ldr	r2, [pc, #40]	; (8001be0 <HAL_I2C_MspDeInit+0x34>)
 8001bb8:	480a      	ldr	r0, [pc, #40]	; (8001be4 <HAL_I2C_MspDeInit+0x38>)
 8001bba:	6d93      	ldr	r3, [r2, #88]	; 0x58
 8001bbc:	f423 0380 	bic.w	r3, r3, #4194304	; 0x400000
 8001bc0:	6593      	str	r3, [r2, #88]	; 0x58
 8001bc2:	f44f 6180 	mov.w	r1, #1024	; 0x400
 8001bc6:	f000 fd51 	bl	800266c <HAL_GPIO_DeInit>
 8001bca:	e8bd 4008 	ldmia.w	sp!, {r3, lr}
 8001bce:	4805      	ldr	r0, [pc, #20]	; (8001be4 <HAL_I2C_MspDeInit+0x38>)
 8001bd0:	f44f 6100 	mov.w	r1, #2048	; 0x800
 8001bd4:	f000 bd4a 	b.w	800266c <HAL_GPIO_DeInit>
 8001bd8:	bd08      	pop	{r3, pc}
 8001bda:	bf00      	nop
 8001bdc:	40005800 	.word	0x40005800
 8001be0:	40021000 	.word	0x40021000
 8001be4:	48000400 	.word	0x48000400

08001be8 <HAL_OSPI_MspInit>:
 8001be8:	b510      	push	{r4, lr}
 8001bea:	4604      	mov	r4, r0
 8001bec:	b0a8      	sub	sp, #160	; 0xa0
 8001bee:	2294      	movs	r2, #148	; 0x94
 8001bf0:	2100      	movs	r1, #0
 8001bf2:	a803      	add	r0, sp, #12
 8001bf4:	f004 fdc5 	bl	8006782 <memset>
 8001bf8:	6822      	ldr	r2, [r4, #0]
 8001bfa:	4b10      	ldr	r3, [pc, #64]	; (8001c3c <HAL_OSPI_MspInit+0x54>)
 8001bfc:	429a      	cmp	r2, r3
 8001bfe:	d11b      	bne.n	8001c38 <HAL_OSPI_MspInit+0x50>
 8001c00:	f04f 7380 	mov.w	r3, #16777216	; 0x1000000
 8001c04:	a803      	add	r0, sp, #12
 8001c06:	9303      	str	r3, [sp, #12]
 8001c08:	f002 f9e2 	bl	8003fd0 <HAL_RCCEx_PeriphCLKConfig>
 8001c0c:	b108      	cbz	r0, 8001c12 <HAL_OSPI_MspInit+0x2a>
 8001c0e:	f7ff fa01 	bl	8001014 <Error_Handler>
 8001c12:	4b0b      	ldr	r3, [pc, #44]	; (8001c40 <HAL_OSPI_MspInit+0x58>)
 8001c14:	6cda      	ldr	r2, [r3, #76]	; 0x4c
 8001c16:	f442 1280 	orr.w	r2, r2, #1048576	; 0x100000
 8001c1a:	64da      	str	r2, [r3, #76]	; 0x4c
 8001c1c:	6cda      	ldr	r2, [r3, #76]	; 0x4c
 8001c1e:	f402 1280 	and.w	r2, r2, #1048576	; 0x100000
 8001c22:	9201      	str	r2, [sp, #4]
 8001c24:	9a01      	ldr	r2, [sp, #4]
 8001c26:	6d1a      	ldr	r2, [r3, #80]	; 0x50
 8001c28:	f442 7280 	orr.w	r2, r2, #256	; 0x100
 8001c2c:	651a      	str	r2, [r3, #80]	; 0x50
 8001c2e:	6d1b      	ldr	r3, [r3, #80]	; 0x50
 8001c30:	f403 7380 	and.w	r3, r3, #256	; 0x100
 8001c34:	9302      	str	r3, [sp, #8]
 8001c36:	9b02      	ldr	r3, [sp, #8]
 8001c38:	b028      	add	sp, #160	; 0xa0
 8001c3a:	bd10      	pop	{r4, pc}
 8001c3c:	a0001000 	.word	0xa0001000
 8001c40:	40021000 	.word	0x40021000

08001c44 <HAL_OSPI_MspDeInit>:
 8001c44:	6802      	ldr	r2, [r0, #0]
 8001c46:	4b08      	ldr	r3, [pc, #32]	; (8001c68 <HAL_OSPI_MspDeInit+0x24>)
 8001c48:	429a      	cmp	r2, r3
 8001c4a:	d10b      	bne.n	8001c64 <HAL_OSPI_MspDeInit+0x20>
 8001c4c:	f103 4320 	add.w	r3, r3, #2684354560	; 0xa0000000
 8001c50:	f503 3300 	add.w	r3, r3, #131072	; 0x20000
 8001c54:	6cda      	ldr	r2, [r3, #76]	; 0x4c
 8001c56:	f422 1280 	bic.w	r2, r2, #1048576	; 0x100000
 8001c5a:	64da      	str	r2, [r3, #76]	; 0x4c
 8001c5c:	6d1a      	ldr	r2, [r3, #80]	; 0x50
 8001c5e:	f422 7280 	bic.w	r2, r2, #256	; 0x100
 8001c62:	651a      	str	r2, [r3, #80]	; 0x50
 8001c64:	4770      	bx	lr
 8001c66:	bf00      	nop
 8001c68:	a0001000 	.word	0xa0001000

08001c6c <HAL_UART_MspInit>:
 8001c6c:	b5f0      	push	{r4, r5, r6, r7, lr}
 8001c6e:	b0af      	sub	sp, #188	; 0xbc
 8001c70:	4604      	mov	r4, r0
 8001c72:	2214      	movs	r2, #20
 8001c74:	2100      	movs	r1, #0
 8001c76:	a804      	add	r0, sp, #16
 8001c78:	f004 fd83 	bl	8006782 <memset>
 8001c7c:	2294      	movs	r2, #148	; 0x94
 8001c7e:	2100      	movs	r1, #0
 8001c80:	a809      	add	r0, sp, #36	; 0x24
 8001c82:	f004 fd7e 	bl	8006782 <memset>
 8001c86:	6822      	ldr	r2, [r4, #0]
 8001c88:	4b21      	ldr	r3, [pc, #132]	; (8001d10 <HAL_UART_MspInit+0xa4>)
 8001c8a:	429a      	cmp	r2, r3
 8001c8c:	d13d      	bne.n	8001d0a <HAL_UART_MspInit+0x9e>
 8001c8e:	2301      	movs	r3, #1
 8001c90:	a809      	add	r0, sp, #36	; 0x24
 8001c92:	9309      	str	r3, [sp, #36]	; 0x24
 8001c94:	f002 f99c 	bl	8003fd0 <HAL_RCCEx_PeriphCLKConfig>
 8001c98:	b108      	cbz	r0, 8001c9e <HAL_UART_MspInit+0x32>
 8001c9a:	f7ff f9bb 	bl	8001014 <Error_Handler>
 8001c9e:	4b1d      	ldr	r3, [pc, #116]	; (8001d14 <HAL_UART_MspInit+0xa8>)
 8001ca0:	6e1a      	ldr	r2, [r3, #96]	; 0x60
 8001ca2:	f442 4280 	orr.w	r2, r2, #16384	; 0x4000
 8001ca6:	661a      	str	r2, [r3, #96]	; 0x60
 8001ca8:	6e1a      	ldr	r2, [r3, #96]	; 0x60
 8001caa:	f402 4280 	and.w	r2, r2, #16384	; 0x4000
 8001cae:	9201      	str	r2, [sp, #4]
 8001cb0:	9a01      	ldr	r2, [sp, #4]
 8001cb2:	6cda      	ldr	r2, [r3, #76]	; 0x4c
 8001cb4:	f042 0201 	orr.w	r2, r2, #1
 8001cb8:	64da      	str	r2, [r3, #76]	; 0x4c
 8001cba:	6cda      	ldr	r2, [r3, #76]	; 0x4c
 8001cbc:	f002 0201 	and.w	r2, r2, #1
 8001cc0:	9202      	str	r2, [sp, #8]
 8001cc2:	9a02      	ldr	r2, [sp, #8]
 8001cc4:	6cda      	ldr	r2, [r3, #76]	; 0x4c
 8001cc6:	f042 0202 	orr.w	r2, r2, #2
 8001cca:	64da      	str	r2, [r3, #76]	; 0x4c
 8001ccc:	6cdb      	ldr	r3, [r3, #76]	; 0x4c
 8001cce:	f003 0302 	and.w	r3, r3, #2
 8001cd2:	9303      	str	r3, [sp, #12]
 8001cd4:	9b03      	ldr	r3, [sp, #12]
 8001cd6:	2702      	movs	r7, #2
 8001cd8:	f44f 6380 	mov.w	r3, #1024	; 0x400
 8001cdc:	2600      	movs	r6, #0
 8001cde:	2503      	movs	r5, #3
 8001ce0:	2407      	movs	r4, #7
 8001ce2:	a904      	add	r1, sp, #16
 8001ce4:	f04f 4090 	mov.w	r0, #1207959552	; 0x48000000
 8001ce8:	e9cd 3704 	strd	r3, r7, [sp, #16]
 8001cec:	e9cd 6506 	strd	r6, r5, [sp, #24]
 8001cf0:	9408      	str	r4, [sp, #32]
 8001cf2:	f000 fbe3 	bl	80024bc <HAL_GPIO_Init>
 8001cf6:	2340      	movs	r3, #64	; 0x40
 8001cf8:	4807      	ldr	r0, [pc, #28]	; (8001d18 <HAL_UART_MspInit+0xac>)
 8001cfa:	9408      	str	r4, [sp, #32]
 8001cfc:	a904      	add	r1, sp, #16
 8001cfe:	e9cd 3704 	strd	r3, r7, [sp, #16]
 8001d02:	e9cd 6506 	strd	r6, r5, [sp, #24]
 8001d06:	f000 fbd9 	bl	80024bc <HAL_GPIO_Init>
 8001d0a:	b02f      	add	sp, #188	; 0xbc
 8001d0c:	bdf0      	pop	{r4, r5, r6, r7, pc}
 8001d0e:	bf00      	nop
 8001d10:	40013800 	.word	0x40013800
 8001d14:	40021000 	.word	0x40021000
 8001d18:	48000400 	.word	0x48000400

08001d1c <HAL_InitTick>:
 8001d1c:	4b21      	ldr	r3, [pc, #132]	; (8001da4 <HAL_InitTick+0x88>)
 8001d1e:	b570      	push	{r4, r5, r6, lr}
 8001d20:	6d9a      	ldr	r2, [r3, #88]	; 0x58
 8001d22:	f042 0210 	orr.w	r2, r2, #16
 8001d26:	659a      	str	r2, [r3, #88]	; 0x58
 8001d28:	6d9b      	ldr	r3, [r3, #88]	; 0x58
 8001d2a:	b088      	sub	sp, #32
 8001d2c:	f003 0310 	and.w	r3, r3, #16
 8001d30:	9302      	str	r3, [sp, #8]
 8001d32:	4605      	mov	r5, r0
 8001d34:	a901      	add	r1, sp, #4
 8001d36:	a803      	add	r0, sp, #12
 8001d38:	9b02      	ldr	r3, [sp, #8]
 8001d3a:	f002 f847 	bl	8003dcc <HAL_RCC_GetClockConfig>
 8001d3e:	9b06      	ldr	r3, [sp, #24]
 8001d40:	bb4b      	cbnz	r3, 8001d96 <HAL_InitTick+0x7a>
 8001d42:	f002 f81f 	bl	8003d84 <HAL_RCC_GetPCLK1Freq>
 8001d46:	4e18      	ldr	r6, [pc, #96]	; (8001da8 <HAL_InitTick+0x8c>)
 8001d48:	4b18      	ldr	r3, [pc, #96]	; (8001dac <HAL_InitTick+0x90>)
 8001d4a:	6033      	str	r3, [r6, #0]
 8001d4c:	f240 33e7 	movw	r3, #999	; 0x3e7
 8001d50:	60f3      	str	r3, [r6, #12]
 8001d52:	4b17      	ldr	r3, [pc, #92]	; (8001db0 <HAL_InitTick+0x94>)
 8001d54:	fbb0 f3f3 	udiv	r3, r0, r3
 8001d58:	3b01      	subs	r3, #1
 8001d5a:	6073      	str	r3, [r6, #4]
 8001d5c:	4630      	mov	r0, r6
 8001d5e:	2300      	movs	r3, #0
 8001d60:	6133      	str	r3, [r6, #16]
 8001d62:	60b3      	str	r3, [r6, #8]
 8001d64:	61b3      	str	r3, [r6, #24]
 8001d66:	f002 fc8f 	bl	8004688 <HAL_TIM_Base_Init>
 8001d6a:	4604      	mov	r4, r0
 8001d6c:	b980      	cbnz	r0, 8001d90 <HAL_InitTick+0x74>
 8001d6e:	4630      	mov	r0, r6
 8001d70:	f002 fb46 	bl	8004400 <HAL_TIM_Base_Start_IT>
 8001d74:	4604      	mov	r4, r0
 8001d76:	b958      	cbnz	r0, 8001d90 <HAL_InitTick+0x74>
 8001d78:	2036      	movs	r0, #54	; 0x36
 8001d7a:	f000 fb91 	bl	80024a0 <HAL_NVIC_EnableIRQ>
 8001d7e:	2d0f      	cmp	r5, #15
 8001d80:	d80d      	bhi.n	8001d9e <HAL_InitTick+0x82>
 8001d82:	4622      	mov	r2, r4
 8001d84:	4629      	mov	r1, r5
 8001d86:	2036      	movs	r0, #54	; 0x36
 8001d88:	f000 fb58 	bl	800243c <HAL_NVIC_SetPriority>
 8001d8c:	4b09      	ldr	r3, [pc, #36]	; (8001db4 <HAL_InitTick+0x98>)
 8001d8e:	601d      	str	r5, [r3, #0]
 8001d90:	4620      	mov	r0, r4
 8001d92:	b008      	add	sp, #32
 8001d94:	bd70      	pop	{r4, r5, r6, pc}
 8001d96:	f001 fff5 	bl	8003d84 <HAL_RCC_GetPCLK1Freq>
 8001d9a:	0040      	lsls	r0, r0, #1
 8001d9c:	e7d3      	b.n	8001d46 <HAL_InitTick+0x2a>
 8001d9e:	2401      	movs	r4, #1
 8001da0:	e7f6      	b.n	8001d90 <HAL_InitTick+0x74>
 8001da2:	bf00      	nop
 8001da4:	40021000 	.word	0x40021000
 8001da8:	20000888 	.word	0x20000888
 8001dac:	40001000 	.word	0x40001000
 8001db0:	000f4240 	.word	0x000f4240
 8001db4:	200000a0 	.word	0x200000a0

08001db8 <NMI_Handler>:
 8001db8:	e7fe      	b.n	8001db8 <NMI_Handler>

08001dba <HardFault_Handler>:
 8001dba:	e7fe      	b.n	8001dba <HardFault_Handler>

08001dbc <MemManage_Handler>:
 8001dbc:	e7fe      	b.n	8001dbc <MemManage_Handler>

08001dbe <BusFault_Handler>:
 8001dbe:	e7fe      	b.n	8001dbe <BusFault_Handler>

08001dc0 <UsageFault_Handler>:
 8001dc0:	e7fe      	b.n	8001dc0 <UsageFault_Handler>

08001dc2 <DebugMon_Handler>:
 8001dc2:	4770      	bx	lr

08001dc4 <EXTI15_10_IRQHandler>:
 8001dc4:	f44f 5000 	mov.w	r0, #8192	; 0x2000
 8001dc8:	f000 bce6 	b.w	8002798 <HAL_GPIO_EXTI_IRQHandler>

08001dcc <TIM6_DAC_IRQHandler>:
 8001dcc:	4801      	ldr	r0, [pc, #4]	; (8001dd4 <TIM6_DAC_IRQHandler+0x8>)
 8001dce:	f002 bb55 	b.w	800447c <HAL_TIM_IRQHandler>
 8001dd2:	bf00      	nop
 8001dd4:	20000888 	.word	0x20000888

08001dd8 <_getpid>:
 8001dd8:	2001      	movs	r0, #1
 8001dda:	4770      	bx	lr

08001ddc <_kill>:
 8001ddc:	b508      	push	{r3, lr}
 8001dde:	f004 fd33 	bl	8006848 <__errno>
 8001de2:	2316      	movs	r3, #22
 8001de4:	6003      	str	r3, [r0, #0]
 8001de6:	f04f 30ff 	mov.w	r0, #4294967295
 8001dea:	bd08      	pop	{r3, pc}

08001dec <_exit>:
 8001dec:	b508      	push	{r3, lr}
 8001dee:	f004 fd2b 	bl	8006848 <__errno>
 8001df2:	2316      	movs	r3, #22
 8001df4:	6003      	str	r3, [r0, #0]
 8001df6:	e7fe      	b.n	8001df6 <_exit+0xa>

08001df8 <_read>:
 8001df8:	b570      	push	{r4, r5, r6, lr}
 8001dfa:	460d      	mov	r5, r1
 8001dfc:	4614      	mov	r4, r2
 8001dfe:	460e      	mov	r6, r1
 8001e00:	1b73      	subs	r3, r6, r5
 8001e02:	429c      	cmp	r4, r3
 8001e04:	dc01      	bgt.n	8001e0a <_read+0x12>
 8001e06:	4620      	mov	r0, r4
 8001e08:	bd70      	pop	{r4, r5, r6, pc}
 8001e0a:	f3af 8000 	nop.w
 8001e0e:	f806 0b01 	strb.w	r0, [r6], #1
 8001e12:	e7f5      	b.n	8001e00 <_read+0x8>

08001e14 <_write>:
 8001e14:	b570      	push	{r4, r5, r6, lr}
 8001e16:	460d      	mov	r5, r1
 8001e18:	4614      	mov	r4, r2
 8001e1a:	460e      	mov	r6, r1
 8001e1c:	1b73      	subs	r3, r6, r5
 8001e1e:	429c      	cmp	r4, r3
 8001e20:	dc01      	bgt.n	8001e26 <_write+0x12>
 8001e22:	4620      	mov	r0, r4
 8001e24:	bd70      	pop	{r4, r5, r6, pc}
 8001e26:	f816 0b01 	ldrb.w	r0, [r6], #1
 8001e2a:	f3af 8000 	nop.w
 8001e2e:	e7f5      	b.n	8001e1c <_write+0x8>

08001e30 <_close>:
 8001e30:	f04f 30ff 	mov.w	r0, #4294967295
 8001e34:	4770      	bx	lr

08001e36 <_fstat>:
 8001e36:	f44f 5300 	mov.w	r3, #8192	; 0x2000
 8001e3a:	604b      	str	r3, [r1, #4]
 8001e3c:	2000      	movs	r0, #0
 8001e3e:	4770      	bx	lr

08001e40 <_isatty>:
 8001e40:	2001      	movs	r0, #1
 8001e42:	4770      	bx	lr

08001e44 <_lseek>:
 8001e44:	2000      	movs	r0, #0
 8001e46:	4770      	bx	lr

08001e48 <_sbrk>:
 8001e48:	4a0b      	ldr	r2, [pc, #44]	; (8001e78 <_sbrk+0x30>)
 8001e4a:	6811      	ldr	r1, [r2, #0]
 8001e4c:	b510      	push	{r4, lr}
 8001e4e:	4603      	mov	r3, r0
 8001e50:	b909      	cbnz	r1, 8001e56 <_sbrk+0xe>
 8001e52:	490a      	ldr	r1, [pc, #40]	; (8001e7c <_sbrk+0x34>)
 8001e54:	6011      	str	r1, [r2, #0]
 8001e56:	6810      	ldr	r0, [r2, #0]
 8001e58:	4909      	ldr	r1, [pc, #36]	; (8001e80 <_sbrk+0x38>)
 8001e5a:	4c0a      	ldr	r4, [pc, #40]	; (8001e84 <_sbrk+0x3c>)
 8001e5c:	4403      	add	r3, r0
 8001e5e:	1b09      	subs	r1, r1, r4
 8001e60:	428b      	cmp	r3, r1
 8001e62:	d906      	bls.n	8001e72 <_sbrk+0x2a>
 8001e64:	f004 fcf0 	bl	8006848 <__errno>
 8001e68:	230c      	movs	r3, #12
 8001e6a:	6003      	str	r3, [r0, #0]
 8001e6c:	f04f 30ff 	mov.w	r0, #4294967295
 8001e70:	bd10      	pop	{r4, pc}
 8001e72:	6013      	str	r3, [r2, #0]
 8001e74:	e7fc      	b.n	8001e70 <_sbrk+0x28>
 8001e76:	bf00      	nop
 8001e78:	200008d4 	.word	0x200008d4
 8001e7c:	20001730 	.word	0x20001730
 8001e80:	200a0000 	.word	0x200a0000
 8001e84:	00000400 	.word	0x00000400

08001e88 <SystemInit>:
 8001e88:	4a03      	ldr	r2, [pc, #12]	; (8001e98 <SystemInit+0x10>)
 8001e8a:	f8d2 3088 	ldr.w	r3, [r2, #136]	; 0x88
 8001e8e:	f443 0370 	orr.w	r3, r3, #15728640	; 0xf00000
 8001e92:	f8c2 3088 	str.w	r3, [r2, #136]	; 0x88
 8001e96:	4770      	bx	lr
 8001e98:	e000ed00 	.word	0xe000ed00

08001e9c <Reset_Handler>:
 8001e9c:	f8df d034 	ldr.w	sp, [pc, #52]	; 8001ed4 <LoopForever+0x2>
 8001ea0:	f7ff fff2 	bl	8001e88 <SystemInit>
 8001ea4:	480c      	ldr	r0, [pc, #48]	; (8001ed8 <LoopForever+0x6>)
 8001ea6:	490d      	ldr	r1, [pc, #52]	; (8001edc <LoopForever+0xa>)
 8001ea8:	4a0d      	ldr	r2, [pc, #52]	; (8001ee0 <LoopForever+0xe>)
 8001eaa:	2300      	movs	r3, #0
 8001eac:	e002      	b.n	8001eb4 <LoopCopyDataInit>

08001eae <CopyDataInit>:
 8001eae:	58d4      	ldr	r4, [r2, r3]
 8001eb0:	50c4      	str	r4, [r0, r3]
 8001eb2:	3304      	adds	r3, #4

08001eb4 <LoopCopyDataInit>:
 8001eb4:	18c4      	adds	r4, r0, r3
 8001eb6:	428c      	cmp	r4, r1
 8001eb8:	d3f9      	bcc.n	8001eae <CopyDataInit>
 8001eba:	4a0a      	ldr	r2, [pc, #40]	; (8001ee4 <LoopForever+0x12>)
 8001ebc:	4c0a      	ldr	r4, [pc, #40]	; (8001ee8 <LoopForever+0x16>)
 8001ebe:	2300      	movs	r3, #0
 8001ec0:	e001      	b.n	8001ec6 <LoopFillZerobss>

08001ec2 <FillZerobss>:
 8001ec2:	6013      	str	r3, [r2, #0]
 8001ec4:	3204      	adds	r2, #4

08001ec6 <LoopFillZerobss>:
 8001ec6:	42a2      	cmp	r2, r4
 8001ec8:	d3fb      	bcc.n	8001ec2 <FillZerobss>
 8001eca:	f004 fcc3 	bl	8006854 <__libc_init_array>
 8001ece:	f7ff f8e5 	bl	800109c <main>

08001ed2 <LoopForever>:
 8001ed2:	e7fe      	b.n	8001ed2 <LoopForever>
 8001ed4:	200a0000 	.word	0x200a0000
 8001ed8:	20000000 	.word	0x20000000
 8001edc:	20000270 	.word	0x20000270
 8001ee0:	08008d74 	.word	0x08008d74
 8001ee4:	20000270 	.word	0x20000270
 8001ee8:	20001730 	.word	0x20001730

08001eec <ADC1_IRQHandler>:
 8001eec:	e7fe      	b.n	8001eec <ADC1_IRQHandler>

08001eee <HTS221_H_Init>:
 8001eee:	b510      	push	{r4, lr}
 8001ef0:	b2c4      	uxtb	r4, r0
 8001ef2:	2120      	movs	r1, #32
 8001ef4:	4620      	mov	r0, r4
 8001ef6:	f7ff facb 	bl	8001490 <SENSOR_IO_Read>
 8001efa:	f000 00f8 	and.w	r0, r0, #248	; 0xf8
 8001efe:	f040 0285 	orr.w	r2, r0, #133	; 0x85
 8001f02:	2120      	movs	r1, #32
 8001f04:	4620      	mov	r0, r4
 8001f06:	e8bd 4010 	ldmia.w	sp!, {r4, lr}
 8001f0a:	f7ff baa5 	b.w	8001458 <SENSOR_IO_Write>

08001f0e <HTS221_T_Init>:
 8001f0e:	b510      	push	{r4, lr}
 8001f10:	b2c4      	uxtb	r4, r0
 8001f12:	2120      	movs	r1, #32
 8001f14:	4620      	mov	r0, r4
 8001f16:	f7ff fabb 	bl	8001490 <SENSOR_IO_Read>
 8001f1a:	f000 00f8 	and.w	r0, r0, #248	; 0xf8
 8001f1e:	f040 0285 	orr.w	r2, r0, #133	; 0x85
 8001f22:	2120      	movs	r1, #32
 8001f24:	4620      	mov	r0, r4
 8001f26:	e8bd 4010 	ldmia.w	sp!, {r4, lr}
 8001f2a:	f7ff ba95 	b.w	8001458 <SENSOR_IO_Write>

08001f2e <HTS221_H_ReadID>:
 8001f2e:	b510      	push	{r4, lr}
 8001f30:	4604      	mov	r4, r0
 8001f32:	f7ff fa8f 	bl	8001454 <SENSOR_IO_Init>
 8001f36:	b2e0      	uxtb	r0, r4
 8001f38:	210f      	movs	r1, #15
 8001f3a:	e8bd 4010 	ldmia.w	sp!, {r4, lr}
 8001f3e:	f7ff baa7 	b.w	8001490 <SENSOR_IO_Read>
	...

08001f44 <HTS221_H_ReadHumidity>:
 8001f44:	e92d 41f3 	stmdb	sp!, {r0, r1, r4, r5, r6, r7, r8, lr}
 8001f48:	b2c6      	uxtb	r6, r0
 8001f4a:	2302      	movs	r3, #2
 8001f4c:	aa01      	add	r2, sp, #4
 8001f4e:	21b0      	movs	r1, #176	; 0xb0
 8001f50:	4630      	mov	r0, r6
 8001f52:	f7ff fabb 	bl	80014cc <SENSOR_IO_ReadMultiple>
 8001f56:	2302      	movs	r3, #2
 8001f58:	aa01      	add	r2, sp, #4
 8001f5a:	21b6      	movs	r1, #182	; 0xb6
 8001f5c:	4630      	mov	r0, r6
 8001f5e:	f89d 5004 	ldrb.w	r5, [sp, #4]
 8001f62:	f89d 4005 	ldrb.w	r4, [sp, #5]
 8001f66:	f7ff fab1 	bl	80014cc <SENSOR_IO_ReadMultiple>
 8001f6a:	2302      	movs	r3, #2
 8001f6c:	aa01      	add	r2, sp, #4
 8001f6e:	21ba      	movs	r1, #186	; 0xba
 8001f70:	4630      	mov	r0, r6
 8001f72:	f9bd 8004 	ldrsh.w	r8, [sp, #4]
 8001f76:	f7ff faa9 	bl	80014cc <SENSOR_IO_ReadMultiple>
 8001f7a:	2302      	movs	r3, #2
 8001f7c:	aa01      	add	r2, sp, #4
 8001f7e:	21a8      	movs	r1, #168	; 0xa8
 8001f80:	4630      	mov	r0, r6
 8001f82:	f9bd 7004 	ldrsh.w	r7, [sp, #4]
 8001f86:	f7ff faa1 	bl	80014cc <SENSOR_IO_ReadMultiple>
 8001f8a:	f9bd 3004 	ldrsh.w	r3, [sp, #4]
 8001f8e:	086d      	lsrs	r5, r5, #1
 8001f90:	0864      	lsrs	r4, r4, #1
 8001f92:	eba3 0308 	sub.w	r3, r3, r8
 8001f96:	1b64      	subs	r4, r4, r5
 8001f98:	ee07 3a10 	vmov	s14, r3
 8001f9c:	ee07 4a90 	vmov	s15, r4
 8001fa0:	eeb8 7ac7 	vcvt.f32.s32	s14, s14
 8001fa4:	eef8 7ae7 	vcvt.f32.s32	s15, s15
 8001fa8:	eba7 0708 	sub.w	r7, r7, r8
 8001fac:	ee27 7a27 	vmul.f32	s14, s14, s15
 8001fb0:	ee07 7a90 	vmov	s15, r7
 8001fb4:	eef8 6ae7 	vcvt.f32.s32	s13, s15
 8001fb8:	eeb2 0a04 	vmov.f32	s0, #36	; 0x41200000  10.0
 8001fbc:	eec7 7a26 	vdiv.f32	s15, s14, s13
 8001fc0:	ee07 5a10 	vmov	s14, r5
 8001fc4:	eeb8 7ac7 	vcvt.f32.s32	s14, s14
 8001fc8:	ee77 7a87 	vadd.f32	s15, s15, s14
 8001fcc:	ed9f 7a0b 	vldr	s14, [pc, #44]	; 8001ffc <HTS221_H_ReadHumidity+0xb8>
 8001fd0:	ee67 7a80 	vmul.f32	s15, s15, s0
 8001fd4:	eef4 7ac7 	vcmpe.f32	s15, s14
 8001fd8:	eef1 fa10 	vmrs	APSR_nzcv, fpscr
 8001fdc:	dc07      	bgt.n	8001fee <HTS221_H_ReadHumidity+0xaa>
 8001fde:	eef5 7ac0 	vcmpe.f32	s15, #0.0
 8001fe2:	eef1 fa10 	vmrs	APSR_nzcv, fpscr
 8001fe6:	d504      	bpl.n	8001ff2 <HTS221_H_ReadHumidity+0xae>
 8001fe8:	eddf 7a05 	vldr	s15, [pc, #20]	; 8002000 <HTS221_H_ReadHumidity+0xbc>
 8001fec:	e001      	b.n	8001ff2 <HTS221_H_ReadHumidity+0xae>
 8001fee:	eef0 7a47 	vmov.f32	s15, s14
 8001ff2:	ee87 0a80 	vdiv.f32	s0, s15, s0
 8001ff6:	b002      	add	sp, #8
 8001ff8:	e8bd 81f0 	ldmia.w	sp!, {r4, r5, r6, r7, r8, pc}
 8001ffc:	447a0000 	.word	0x447a0000
 8002000:	00000000 	.word	0x00000000

08002004 <HTS221_T_ReadTemp>:
 8002004:	e92d 41f3 	stmdb	sp!, {r0, r1, r4, r5, r6, r7, r8, lr}
 8002008:	b2c6      	uxtb	r6, r0
 800200a:	aa01      	add	r2, sp, #4
 800200c:	2302      	movs	r3, #2
 800200e:	21b2      	movs	r1, #178	; 0xb2
 8002010:	4630      	mov	r0, r6
 8002012:	f7ff fa5b 	bl	80014cc <SENSOR_IO_ReadMultiple>
 8002016:	2135      	movs	r1, #53	; 0x35
 8002018:	4630      	mov	r0, r6
 800201a:	f7ff fa39 	bl	8001490 <SENSOR_IO_Read>
 800201e:	f89d 5004 	ldrb.w	r5, [sp, #4]
 8002022:	f89d 4005 	ldrb.w	r4, [sp, #5]
 8002026:	0203      	lsls	r3, r0, #8
 8002028:	f403 7340 	and.w	r3, r3, #768	; 0x300
 800202c:	0180      	lsls	r0, r0, #6
 800202e:	431d      	orrs	r5, r3
 8002030:	f400 7040 	and.w	r0, r0, #768	; 0x300
 8002034:	2304      	movs	r3, #4
 8002036:	eb0d 0203 	add.w	r2, sp, r3
 800203a:	4304      	orrs	r4, r0
 800203c:	21bc      	movs	r1, #188	; 0xbc
 800203e:	4630      	mov	r0, r6
 8002040:	f7ff fa44 	bl	80014cc <SENSOR_IO_ReadMultiple>
 8002044:	2302      	movs	r3, #2
 8002046:	aa01      	add	r2, sp, #4
 8002048:	21aa      	movs	r1, #170	; 0xaa
 800204a:	4630      	mov	r0, r6
 800204c:	f9bd 8004 	ldrsh.w	r8, [sp, #4]
 8002050:	f9bd 7006 	ldrsh.w	r7, [sp, #6]
 8002054:	f7ff fa3a 	bl	80014cc <SENSOR_IO_ReadMultiple>
 8002058:	f9bd 3004 	ldrsh.w	r3, [sp, #4]
 800205c:	eba3 0308 	sub.w	r3, r3, r8
 8002060:	ee07 3a90 	vmov	s15, r3
 8002064:	08ed      	lsrs	r5, r5, #3
 8002066:	08e4      	lsrs	r4, r4, #3
 8002068:	1b64      	subs	r4, r4, r5
 800206a:	eeb8 7ae7 	vcvt.f32.s32	s14, s15
 800206e:	ee07 4a90 	vmov	s15, r4
 8002072:	eef8 7ae7 	vcvt.f32.s32	s15, s15
 8002076:	eba7 0708 	sub.w	r7, r7, r8
 800207a:	ee67 7a27 	vmul.f32	s15, s14, s15
 800207e:	ee07 7a10 	vmov	s14, r7
 8002082:	eeb8 7ac7 	vcvt.f32.s32	s14, s14
 8002086:	eec7 6a87 	vdiv.f32	s13, s15, s14
 800208a:	ee07 5a90 	vmov	s15, r5
 800208e:	eeb8 0ae7 	vcvt.f32.s32	s0, s15
 8002092:	ee36 0a80 	vadd.f32	s0, s13, s0
 8002096:	b002      	add	sp, #8
 8002098:	e8bd 81f0 	ldmia.w	sp!, {r4, r5, r6, r7, r8, pc}

0800209c <LIS3MDL_MagInit>:
 800209c:	b507      	push	{r0, r1, r2, lr}
 800209e:	ab02      	add	r3, sp, #8
 80020a0:	e903 0003 	stmdb	r3, {r0, r1}
 80020a4:	2120      	movs	r1, #32
 80020a6:	f89d 2000 	ldrb.w	r2, [sp]
 80020aa:	203c      	movs	r0, #60	; 0x3c
 80020ac:	f7ff f9d4 	bl	8001458 <SENSOR_IO_Write>
 80020b0:	f89d 2001 	ldrb.w	r2, [sp, #1]
 80020b4:	2121      	movs	r1, #33	; 0x21
 80020b6:	203c      	movs	r0, #60	; 0x3c
 80020b8:	f7ff f9ce 	bl	8001458 <SENSOR_IO_Write>
 80020bc:	f89d 2002 	ldrb.w	r2, [sp, #2]
 80020c0:	2122      	movs	r1, #34	; 0x22
 80020c2:	203c      	movs	r0, #60	; 0x3c
 80020c4:	f7ff f9c8 	bl	8001458 <SENSOR_IO_Write>
 80020c8:	f89d 2003 	ldrb.w	r2, [sp, #3]
 80020cc:	2123      	movs	r1, #35	; 0x23
 80020ce:	203c      	movs	r0, #60	; 0x3c
 80020d0:	f7ff f9c2 	bl	8001458 <SENSOR_IO_Write>
 80020d4:	f89d 2004 	ldrb.w	r2, [sp, #4]
 80020d8:	2124      	movs	r1, #36	; 0x24
 80020da:	203c      	movs	r0, #60	; 0x3c
 80020dc:	b003      	add	sp, #12
 80020de:	f85d eb04 	ldr.w	lr, [sp], #4
 80020e2:	f7ff b9b9 	b.w	8001458 <SENSOR_IO_Write>

080020e6 <LIS3MDL_MagDeInit>:
 80020e6:	b508      	push	{r3, lr}
 80020e8:	2122      	movs	r1, #34	; 0x22
 80020ea:	203c      	movs	r0, #60	; 0x3c
 80020ec:	f7ff f9d0 	bl	8001490 <SENSOR_IO_Read>
 80020f0:	f000 00fc 	and.w	r0, r0, #252	; 0xfc
 80020f4:	f040 0203 	orr.w	r2, r0, #3
 80020f8:	e8bd 4008 	ldmia.w	sp!, {r3, lr}
 80020fc:	2122      	movs	r1, #34	; 0x22
 80020fe:	203c      	movs	r0, #60	; 0x3c
 8002100:	f7ff b9aa 	b.w	8001458 <SENSOR_IO_Write>

08002104 <LIS3MDL_MagLowPower>:
 8002104:	b510      	push	{r4, lr}
 8002106:	2122      	movs	r1, #34	; 0x22
 8002108:	4604      	mov	r4, r0
 800210a:	203c      	movs	r0, #60	; 0x3c
 800210c:	f7ff f9c0 	bl	8001490 <SENSOR_IO_Read>
 8002110:	f000 02df 	and.w	r2, r0, #223	; 0xdf
 8002114:	b10c      	cbz	r4, 800211a <LIS3MDL_MagLowPower+0x16>
 8002116:	f042 0220 	orr.w	r2, r2, #32
 800211a:	e8bd 4010 	ldmia.w	sp!, {r4, lr}
 800211e:	2122      	movs	r1, #34	; 0x22
 8002120:	203c      	movs	r0, #60	; 0x3c
 8002122:	f7ff b999 	b.w	8001458 <SENSOR_IO_Write>

08002126 <LIS3MDL_MagReadID>:
 8002126:	b508      	push	{r3, lr}
 8002128:	f7ff f994 	bl	8001454 <SENSOR_IO_Init>
 800212c:	e8bd 4008 	ldmia.w	sp!, {r3, lr}
 8002130:	210f      	movs	r1, #15
 8002132:	203c      	movs	r0, #60	; 0x3c
 8002134:	f7ff b9ac 	b.w	8001490 <SENSOR_IO_Read>

08002138 <LIS3MDL_MagReadXYZ>:
 8002138:	b530      	push	{r4, r5, lr}
 800213a:	2121      	movs	r1, #33	; 0x21
 800213c:	b085      	sub	sp, #20
 800213e:	4605      	mov	r5, r0
 8002140:	203c      	movs	r0, #60	; 0x3c
 8002142:	f7ff f9a5 	bl	8001490 <SENSOR_IO_Read>
 8002146:	2306      	movs	r3, #6
 8002148:	4604      	mov	r4, r0
 800214a:	aa02      	add	r2, sp, #8
 800214c:	21a8      	movs	r1, #168	; 0xa8
 800214e:	203c      	movs	r0, #60	; 0x3c
 8002150:	f7ff f9bc 	bl	80014cc <SENSOR_IO_ReadMultiple>
 8002154:	f89d 2009 	ldrb.w	r2, [sp, #9]
 8002158:	f89d 3008 	ldrb.w	r3, [sp, #8]
 800215c:	eb03 2302 	add.w	r3, r3, r2, lsl #8
 8002160:	f8ad 3000 	strh.w	r3, [sp]
 8002164:	f89d 200b 	ldrb.w	r2, [sp, #11]
 8002168:	f89d 300a 	ldrb.w	r3, [sp, #10]
 800216c:	eb03 2302 	add.w	r3, r3, r2, lsl #8
 8002170:	f8ad 3002 	strh.w	r3, [sp, #2]
 8002174:	f89d 200d 	ldrb.w	r2, [sp, #13]
 8002178:	f89d 300c 	ldrb.w	r3, [sp, #12]
 800217c:	f004 0460 	and.w	r4, r4, #96	; 0x60
 8002180:	eb03 2302 	add.w	r3, r3, r2, lsl #8
 8002184:	2c40      	cmp	r4, #64	; 0x40
 8002186:	f8ad 3004 	strh.w	r3, [sp, #4]
 800218a:	d024      	beq.n	80021d6 <LIS3MDL_MagReadXYZ+0x9e>
 800218c:	d81d      	bhi.n	80021ca <LIS3MDL_MagReadXYZ+0x92>
 800218e:	b32c      	cbz	r4, 80021dc <LIS3MDL_MagReadXYZ+0xa4>
 8002190:	eddf 7a14 	vldr	s15, [pc, #80]	; 80021e4 <LIS3MDL_MagReadXYZ+0xac>
 8002194:	ed9f 7a14 	vldr	s14, [pc, #80]	; 80021e8 <LIS3MDL_MagReadXYZ+0xb0>
 8002198:	2c20      	cmp	r4, #32
 800219a:	bf08      	it	eq
 800219c:	eef0 7a47 	vmoveq.f32	s15, s14
 80021a0:	1eab      	subs	r3, r5, #2
 80021a2:	466a      	mov	r2, sp
 80021a4:	3504      	adds	r5, #4
 80021a6:	f932 1b02 	ldrsh.w	r1, [r2], #2
 80021aa:	ee07 1a10 	vmov	s14, r1
 80021ae:	eeb8 7ac7 	vcvt.f32.s32	s14, s14
 80021b2:	ee27 7a27 	vmul.f32	s14, s14, s15
 80021b6:	eebd 7ac7 	vcvt.s32.f32	s14, s14
 80021ba:	ee17 1a10 	vmov	r1, s14
 80021be:	f823 1f02 	strh.w	r1, [r3, #2]!
 80021c2:	429d      	cmp	r5, r3
 80021c4:	d1ef      	bne.n	80021a6 <LIS3MDL_MagReadXYZ+0x6e>
 80021c6:	b005      	add	sp, #20
 80021c8:	bd30      	pop	{r4, r5, pc}
 80021ca:	eddf 7a06 	vldr	s15, [pc, #24]	; 80021e4 <LIS3MDL_MagReadXYZ+0xac>
 80021ce:	ed9f 7a07 	vldr	s14, [pc, #28]	; 80021ec <LIS3MDL_MagReadXYZ+0xb4>
 80021d2:	2c60      	cmp	r4, #96	; 0x60
 80021d4:	e7e1      	b.n	800219a <LIS3MDL_MagReadXYZ+0x62>
 80021d6:	eddf 7a06 	vldr	s15, [pc, #24]	; 80021f0 <LIS3MDL_MagReadXYZ+0xb8>
 80021da:	e7e1      	b.n	80021a0 <LIS3MDL_MagReadXYZ+0x68>
 80021dc:	eddf 7a05 	vldr	s15, [pc, #20]	; 80021f4 <LIS3MDL_MagReadXYZ+0xbc>
 80021e0:	e7de      	b.n	80021a0 <LIS3MDL_MagReadXYZ+0x68>
 80021e2:	bf00      	nop
 80021e4:	00000000 	.word	0x00000000
 80021e8:	3e947ae1 	.word	0x3e947ae1
 80021ec:	3f147ae1 	.word	0x3f147ae1
 80021f0:	3edc28f6 	.word	0x3edc28f6
 80021f4:	3e0f5c29 	.word	0x3e0f5c29

080021f8 <LPS22HB_P_ReadPressure>:
 80021f8:	b570      	push	{r4, r5, r6, lr}
 80021fa:	b2c4      	uxtb	r4, r0
 80021fc:	2128      	movs	r1, #40	; 0x28
 80021fe:	4620      	mov	r0, r4
 8002200:	f7ff f946 	bl	8001490 <SENSOR_IO_Read>
 8002204:	2129      	movs	r1, #41	; 0x29
 8002206:	4605      	mov	r5, r0
 8002208:	4620      	mov	r0, r4
 800220a:	f7ff f941 	bl	8001490 <SENSOR_IO_Read>
 800220e:	212a      	movs	r1, #42	; 0x2a
 8002210:	4606      	mov	r6, r0
 8002212:	4620      	mov	r0, r4
 8002214:	f7ff f93c 	bl	8001490 <SENSOR_IO_Read>
 8002218:	0403      	lsls	r3, r0, #16
 800221a:	ea43 2306 	orr.w	r3, r3, r6, lsl #8
 800221e:	431d      	orrs	r5, r3
 8002220:	022b      	lsls	r3, r5, #8
 8002222:	bf48      	it	mi
 8002224:	f045 457f 	orrmi.w	r5, r5, #4278190080	; 0xff000000
 8002228:	2364      	movs	r3, #100	; 0x64
 800222a:	436b      	muls	r3, r5
 800222c:	bf48      	it	mi
 800222e:	f603 73ff 	addwmi	r3, r3, #4095	; 0xfff
 8002232:	131b      	asrs	r3, r3, #12
 8002234:	ee00 3a10 	vmov	s0, r3
 8002238:	eddf 7a03 	vldr	s15, [pc, #12]	; 8002248 <LPS22HB_P_ReadPressure+0x50>
 800223c:	eeb8 0ac0 	vcvt.f32.s32	s0, s0
 8002240:	ee80 0a27 	vdiv.f32	s0, s0, s15
 8002244:	bd70      	pop	{r4, r5, r6, pc}
 8002246:	bf00      	nop
 8002248:	42c80000 	.word	0x42c80000

0800224c <LPS22HB_Init>:
 800224c:	b510      	push	{r4, lr}
 800224e:	b2c4      	uxtb	r4, r0
 8002250:	211a      	movs	r1, #26
 8002252:	4620      	mov	r0, r4
 8002254:	f7ff f91c 	bl	8001490 <SENSOR_IO_Read>
 8002258:	f000 00fe 	and.w	r0, r0, #254	; 0xfe
 800225c:	f040 0201 	orr.w	r2, r0, #1
 8002260:	211a      	movs	r1, #26
 8002262:	4620      	mov	r0, r4
 8002264:	f7ff f8f8 	bl	8001458 <SENSOR_IO_Write>
 8002268:	2110      	movs	r1, #16
 800226a:	4620      	mov	r0, r4
 800226c:	f7ff f910 	bl	8001490 <SENSOR_IO_Read>
 8002270:	f000 008d 	and.w	r0, r0, #141	; 0x8d
 8002274:	f040 0232 	orr.w	r2, r0, #50	; 0x32
 8002278:	2110      	movs	r1, #16
 800227a:	4620      	mov	r0, r4
 800227c:	e8bd 4010 	ldmia.w	sp!, {r4, lr}
 8002280:	f7ff b8ea 	b.w	8001458 <SENSOR_IO_Write>

08002284 <LPS22HB_P_Init>:
 8002284:	f7ff bfe2 	b.w	800224c <LPS22HB_Init>

08002288 <LPS22HB_P_ReadID>:
 8002288:	b510      	push	{r4, lr}
 800228a:	4604      	mov	r4, r0
 800228c:	f7ff f8e2 	bl	8001454 <SENSOR_IO_Init>
 8002290:	b2e0      	uxtb	r0, r4
 8002292:	210f      	movs	r1, #15
 8002294:	e8bd 4010 	ldmia.w	sp!, {r4, lr}
 8002298:	f7ff b8fa 	b.w	8001490 <SENSOR_IO_Read>

0800229c <LSM6DSL_AccInit>:
 800229c:	b510      	push	{r4, lr}
 800229e:	2110      	movs	r1, #16
 80022a0:	4604      	mov	r4, r0
 80022a2:	20d4      	movs	r0, #212	; 0xd4
 80022a4:	f7ff f8f4 	bl	8001490 <SENSOR_IO_Read>
 80022a8:	f000 0203 	and.w	r2, r0, #3
 80022ac:	4322      	orrs	r2, r4
 80022ae:	b2d2      	uxtb	r2, r2
 80022b0:	2110      	movs	r1, #16
 80022b2:	20d4      	movs	r0, #212	; 0xd4
 80022b4:	f7ff f8d0 	bl	8001458 <SENSOR_IO_Write>
 80022b8:	2112      	movs	r1, #18
 80022ba:	20d4      	movs	r0, #212	; 0xd4
 80022bc:	f7ff f8e8 	bl	8001490 <SENSOR_IO_Read>
 80022c0:	f000 00bb 	and.w	r0, r0, #187	; 0xbb
 80022c4:	ea40 2214 	orr.w	r2, r0, r4, lsr #8
 80022c8:	2112      	movs	r1, #18
 80022ca:	e8bd 4010 	ldmia.w	sp!, {r4, lr}
 80022ce:	20d4      	movs	r0, #212	; 0xd4
 80022d0:	f7ff b8c2 	b.w	8001458 <SENSOR_IO_Write>

080022d4 <LSM6DSL_AccDeInit>:
 80022d4:	b508      	push	{r3, lr}
 80022d6:	2110      	movs	r1, #16
 80022d8:	20d4      	movs	r0, #212	; 0xd4
 80022da:	f7ff f8d9 	bl	8001490 <SENSOR_IO_Read>
 80022de:	e8bd 4008 	ldmia.w	sp!, {r3, lr}
 80022e2:	f000 020f 	and.w	r2, r0, #15
 80022e6:	2110      	movs	r1, #16
 80022e8:	20d4      	movs	r0, #212	; 0xd4
 80022ea:	f7ff b8b5 	b.w	8001458 <SENSOR_IO_Write>

080022ee <LSM6DSL_AccLowPower>:
 80022ee:	b510      	push	{r4, lr}
 80022f0:	2115      	movs	r1, #21
 80022f2:	4604      	mov	r4, r0
 80022f4:	20d4      	movs	r0, #212	; 0xd4
 80022f6:	f7ff f8cb 	bl	8001490 <SENSOR_IO_Read>
 80022fa:	f000 02ef 	and.w	r2, r0, #239	; 0xef
 80022fe:	b10c      	cbz	r4, 8002304 <LSM6DSL_AccLowPower+0x16>
 8002300:	f042 0210 	orr.w	r2, r2, #16
 8002304:	e8bd 4010 	ldmia.w	sp!, {r4, lr}
 8002308:	2115      	movs	r1, #21
 800230a:	20d4      	movs	r0, #212	; 0xd4
 800230c:	f7ff b8a4 	b.w	8001458 <SENSOR_IO_Write>

08002310 <LSM6DSL_AccReadID>:
 8002310:	b508      	push	{r3, lr}
 8002312:	f7ff f89f 	bl	8001454 <SENSOR_IO_Init>
 8002316:	e8bd 4008 	ldmia.w	sp!, {r3, lr}
 800231a:	210f      	movs	r1, #15
 800231c:	20d4      	movs	r0, #212	; 0xd4
 800231e:	f7ff b8b7 	b.w	8001490 <SENSOR_IO_Read>
	...

08002324 <LSM6DSL_AccReadXYZ>:
 8002324:	b530      	push	{r4, r5, lr}
 8002326:	2110      	movs	r1, #16
 8002328:	b085      	sub	sp, #20
 800232a:	4604      	mov	r4, r0
 800232c:	20d4      	movs	r0, #212	; 0xd4
 800232e:	f7ff f8af 	bl	8001490 <SENSOR_IO_Read>
 8002332:	2306      	movs	r3, #6
 8002334:	4605      	mov	r5, r0
 8002336:	aa02      	add	r2, sp, #8
 8002338:	2128      	movs	r1, #40	; 0x28
 800233a:	20d4      	movs	r0, #212	; 0xd4
 800233c:	f7ff f8c6 	bl	80014cc <SENSOR_IO_ReadMultiple>
 8002340:	f89d 2009 	ldrb.w	r2, [sp, #9]
 8002344:	f89d 3008 	ldrb.w	r3, [sp, #8]
 8002348:	eb03 2302 	add.w	r3, r3, r2, lsl #8
 800234c:	f8ad 3000 	strh.w	r3, [sp]
 8002350:	f89d 200b 	ldrb.w	r2, [sp, #11]
 8002354:	f89d 300a 	ldrb.w	r3, [sp, #10]
 8002358:	eb03 2302 	add.w	r3, r3, r2, lsl #8
 800235c:	f8ad 3002 	strh.w	r3, [sp, #2]
 8002360:	f89d 200d 	ldrb.w	r2, [sp, #13]
 8002364:	f89d 300c 	ldrb.w	r3, [sp, #12]
 8002368:	eb03 2302 	add.w	r3, r3, r2, lsl #8
 800236c:	f8ad 3004 	strh.w	r3, [sp, #4]
 8002370:	4b0d      	ldr	r3, [pc, #52]	; (80023a8 <LSM6DSL_AccReadXYZ+0x84>)
 8002372:	f005 050c 	and.w	r5, r5, #12
 8002376:	eb03 0585 	add.w	r5, r3, r5, lsl #2
 800237a:	ed95 7a00 	vldr	s14, [r5]
 800237e:	1ea3      	subs	r3, r4, #2
 8002380:	466a      	mov	r2, sp
 8002382:	3404      	adds	r4, #4
 8002384:	f932 1b02 	ldrsh.w	r1, [r2], #2
 8002388:	ee07 1a90 	vmov	s15, r1
 800238c:	eef8 7ae7 	vcvt.f32.s32	s15, s15
 8002390:	ee67 7a87 	vmul.f32	s15, s15, s14
 8002394:	eefd 7ae7 	vcvt.s32.f32	s15, s15
 8002398:	ee17 1a90 	vmov	r1, s15
 800239c:	f823 1f02 	strh.w	r1, [r3, #2]!
 80023a0:	42a3      	cmp	r3, r4
 80023a2:	d1ef      	bne.n	8002384 <LSM6DSL_AccReadXYZ+0x60>
 80023a4:	b005      	add	sp, #20
 80023a6:	bd30      	pop	{r4, r5, pc}
 80023a8:	08008984 	.word	0x08008984

080023ac <HAL_Init>:
 80023ac:	b510      	push	{r4, lr}
 80023ae:	2003      	movs	r0, #3
 80023b0:	f000 f832 	bl	8002418 <HAL_NVIC_SetPriorityGrouping>
 80023b4:	200f      	movs	r0, #15
 80023b6:	f7ff fcb1 	bl	8001d1c <HAL_InitTick>
 80023ba:	4604      	mov	r4, r0
 80023bc:	b918      	cbnz	r0, 80023c6 <HAL_Init+0x1a>
 80023be:	f7ff fb93 	bl	8001ae8 <HAL_MspInit>
 80023c2:	4620      	mov	r0, r4
 80023c4:	bd10      	pop	{r4, pc}
 80023c6:	2401      	movs	r4, #1
 80023c8:	e7fb      	b.n	80023c2 <HAL_Init+0x16>
	...

080023cc <HAL_IncTick>:
 80023cc:	4a03      	ldr	r2, [pc, #12]	; (80023dc <HAL_IncTick+0x10>)
 80023ce:	4b04      	ldr	r3, [pc, #16]	; (80023e0 <HAL_IncTick+0x14>)
 80023d0:	6811      	ldr	r1, [r2, #0]
 80023d2:	781b      	ldrb	r3, [r3, #0]
 80023d4:	440b      	add	r3, r1
 80023d6:	6013      	str	r3, [r2, #0]
 80023d8:	4770      	bx	lr
 80023da:	bf00      	nop
 80023dc:	200008d8 	.word	0x200008d8
 80023e0:	2000009c 	.word	0x2000009c

080023e4 <HAL_GetTick>:
 80023e4:	4b01      	ldr	r3, [pc, #4]	; (80023ec <HAL_GetTick+0x8>)
 80023e6:	6818      	ldr	r0, [r3, #0]
 80023e8:	4770      	bx	lr
 80023ea:	bf00      	nop
 80023ec:	200008d8 	.word	0x200008d8

080023f0 <HAL_Delay>:
 80023f0:	b538      	push	{r3, r4, r5, lr}
 80023f2:	4604      	mov	r4, r0
 80023f4:	f7ff fff6 	bl	80023e4 <HAL_GetTick>
 80023f8:	1c63      	adds	r3, r4, #1
 80023fa:	bf1c      	itt	ne
 80023fc:	4b05      	ldrne	r3, [pc, #20]	; (8002414 <HAL_Delay+0x24>)
 80023fe:	781b      	ldrbne	r3, [r3, #0]
 8002400:	4605      	mov	r5, r0
 8002402:	bf18      	it	ne
 8002404:	18e4      	addne	r4, r4, r3
 8002406:	f7ff ffed 	bl	80023e4 <HAL_GetTick>
 800240a:	1b43      	subs	r3, r0, r5
 800240c:	42a3      	cmp	r3, r4
 800240e:	d3fa      	bcc.n	8002406 <HAL_Delay+0x16>
 8002410:	bd38      	pop	{r3, r4, r5, pc}
 8002412:	bf00      	nop
 8002414:	2000009c 	.word	0x2000009c

08002418 <HAL_NVIC_SetPriorityGrouping>:
 8002418:	4907      	ldr	r1, [pc, #28]	; (8002438 <HAL_NVIC_SetPriorityGrouping+0x20>)
 800241a:	68ca      	ldr	r2, [r1, #12]
 800241c:	f422 62e0 	bic.w	r2, r2, #1792	; 0x700
 8002420:	0203      	lsls	r3, r0, #8
 8002422:	0412      	lsls	r2, r2, #16
 8002424:	f403 63e0 	and.w	r3, r3, #1792	; 0x700
 8002428:	0c12      	lsrs	r2, r2, #16
 800242a:	4313      	orrs	r3, r2
 800242c:	f043 63bf 	orr.w	r3, r3, #100139008	; 0x5f80000
 8002430:	f443 3300 	orr.w	r3, r3, #131072	; 0x20000
 8002434:	60cb      	str	r3, [r1, #12]
 8002436:	4770      	bx	lr
 8002438:	e000ed00 	.word	0xe000ed00

0800243c <HAL_NVIC_SetPriority>:
 800243c:	4b16      	ldr	r3, [pc, #88]	; (8002498 <HAL_NVIC_SetPriority+0x5c>)
 800243e:	b530      	push	{r4, r5, lr}
 8002440:	68dc      	ldr	r4, [r3, #12]
 8002442:	f3c4 2402 	ubfx	r4, r4, #8, #3
 8002446:	f1c4 0307 	rsb	r3, r4, #7
 800244a:	1d25      	adds	r5, r4, #4
 800244c:	2b04      	cmp	r3, #4
 800244e:	bf28      	it	cs
 8002450:	2304      	movcs	r3, #4
 8002452:	2d06      	cmp	r5, #6
 8002454:	f04f 35ff 	mov.w	r5, #4294967295
 8002458:	bf8c      	ite	hi
 800245a:	3c03      	subhi	r4, #3
 800245c:	2400      	movls	r4, #0
 800245e:	fa05 f303 	lsl.w	r3, r5, r3
 8002462:	ea21 0303 	bic.w	r3, r1, r3
 8002466:	40a5      	lsls	r5, r4
 8002468:	ea22 0205 	bic.w	r2, r2, r5
 800246c:	40a3      	lsls	r3, r4
 800246e:	2800      	cmp	r0, #0
 8002470:	ea43 0302 	orr.w	r3, r3, r2
 8002474:	bfac      	ite	ge
 8002476:	f100 4060 	addge.w	r0, r0, #3758096384	; 0xe0000000
 800247a:	4a08      	ldrlt	r2, [pc, #32]	; (800249c <HAL_NVIC_SetPriority+0x60>)
 800247c:	ea4f 1303 	mov.w	r3, r3, lsl #4
 8002480:	bfb8      	it	lt
 8002482:	f000 000f 	andlt.w	r0, r0, #15
 8002486:	b2db      	uxtb	r3, r3
 8002488:	bfaa      	itet	ge
 800248a:	f500 4061 	addge.w	r0, r0, #57600	; 0xe100
 800248e:	5413      	strblt	r3, [r2, r0]
 8002490:	f880 3300 	strbge.w	r3, [r0, #768]	; 0x300
 8002494:	bd30      	pop	{r4, r5, pc}
 8002496:	bf00      	nop
 8002498:	e000ed00 	.word	0xe000ed00
 800249c:	e000ed14 	.word	0xe000ed14

080024a0 <HAL_NVIC_EnableIRQ>:
 80024a0:	2800      	cmp	r0, #0
 80024a2:	db07      	blt.n	80024b4 <HAL_NVIC_EnableIRQ+0x14>
 80024a4:	4a04      	ldr	r2, [pc, #16]	; (80024b8 <HAL_NVIC_EnableIRQ+0x18>)
 80024a6:	0941      	lsrs	r1, r0, #5
 80024a8:	2301      	movs	r3, #1
 80024aa:	f000 001f 	and.w	r0, r0, #31
 80024ae:	4083      	lsls	r3, r0
 80024b0:	f842 3021 	str.w	r3, [r2, r1, lsl #2]
 80024b4:	4770      	bx	lr
 80024b6:	bf00      	nop
 80024b8:	e000e100 	.word	0xe000e100

080024bc <HAL_GPIO_Init>:
 80024bc:	e92d 4ff7 	stmdb	sp!, {r0, r1, r2, r4, r5, r6, r7, r8, r9, sl, fp, lr}
 80024c0:	f8df 91a4 	ldr.w	r9, [pc, #420]	; 8002668 <HAL_GPIO_Init+0x1ac>
 80024c4:	4c66      	ldr	r4, [pc, #408]	; (8002660 <HAL_GPIO_Init+0x1a4>)
 80024c6:	2300      	movs	r3, #0
 80024c8:	680a      	ldr	r2, [r1, #0]
 80024ca:	fa32 f503 	lsrs.w	r5, r2, r3
 80024ce:	d102      	bne.n	80024d6 <HAL_GPIO_Init+0x1a>
 80024d0:	b003      	add	sp, #12
 80024d2:	e8bd 8ff0 	ldmia.w	sp!, {r4, r5, r6, r7, r8, r9, sl, fp, pc}
 80024d6:	f04f 0e01 	mov.w	lr, #1
 80024da:	fa0e fe03 	lsl.w	lr, lr, r3
 80024de:	ea1e 0202 	ands.w	r2, lr, r2
 80024e2:	f000 80ad 	beq.w	8002640 <HAL_GPIO_Init+0x184>
 80024e6:	684e      	ldr	r6, [r1, #4]
 80024e8:	f006 0503 	and.w	r5, r6, #3
 80024ec:	ea4f 0843 	mov.w	r8, r3, lsl #1
 80024f0:	f04f 0c03 	mov.w	ip, #3
 80024f4:	1e6f      	subs	r7, r5, #1
 80024f6:	fa0c fc08 	lsl.w	ip, ip, r8
 80024fa:	2f01      	cmp	r7, #1
 80024fc:	ea6f 0c0c 	mvn.w	ip, ip
 8002500:	d834      	bhi.n	800256c <HAL_GPIO_Init+0xb0>
 8002502:	6887      	ldr	r7, [r0, #8]
 8002504:	ea07 0a0c 	and.w	sl, r7, ip
 8002508:	68cf      	ldr	r7, [r1, #12]
 800250a:	fa07 f708 	lsl.w	r7, r7, r8
 800250e:	ea47 070a 	orr.w	r7, r7, sl
 8002512:	6087      	str	r7, [r0, #8]
 8002514:	6847      	ldr	r7, [r0, #4]
 8002516:	ea27 0e0e 	bic.w	lr, r7, lr
 800251a:	f3c6 1700 	ubfx	r7, r6, #4, #1
 800251e:	409f      	lsls	r7, r3
 8002520:	ea47 070e 	orr.w	r7, r7, lr
 8002524:	6047      	str	r7, [r0, #4]
 8002526:	68c7      	ldr	r7, [r0, #12]
 8002528:	ea07 0e0c 	and.w	lr, r7, ip
 800252c:	688f      	ldr	r7, [r1, #8]
 800252e:	fa07 f708 	lsl.w	r7, r7, r8
 8002532:	ea47 070e 	orr.w	r7, r7, lr
 8002536:	2d02      	cmp	r5, #2
 8002538:	60c7      	str	r7, [r0, #12]
 800253a:	d119      	bne.n	8002570 <HAL_GPIO_Init+0xb4>
 800253c:	ea4f 0ad3 	mov.w	sl, r3, lsr #3
 8002540:	eb00 0a8a 	add.w	sl, r0, sl, lsl #2
 8002544:	f003 0b07 	and.w	fp, r3, #7
 8002548:	f8da 7020 	ldr.w	r7, [sl, #32]
 800254c:	ea4f 0b8b 	mov.w	fp, fp, lsl #2
 8002550:	f04f 0e0f 	mov.w	lr, #15
 8002554:	fa0e fe0b 	lsl.w	lr, lr, fp
 8002558:	ea27 0e0e 	bic.w	lr, r7, lr
 800255c:	690f      	ldr	r7, [r1, #16]
 800255e:	fa07 f70b 	lsl.w	r7, r7, fp
 8002562:	ea47 070e 	orr.w	r7, r7, lr
 8002566:	f8ca 7020 	str.w	r7, [sl, #32]
 800256a:	e001      	b.n	8002570 <HAL_GPIO_Init+0xb4>
 800256c:	2d03      	cmp	r5, #3
 800256e:	d1da      	bne.n	8002526 <HAL_GPIO_Init+0x6a>
 8002570:	6807      	ldr	r7, [r0, #0]
 8002572:	fa05 f508 	lsl.w	r5, r5, r8
 8002576:	ea07 070c 	and.w	r7, r7, ip
 800257a:	433d      	orrs	r5, r7
 800257c:	f416 3f40 	tst.w	r6, #196608	; 0x30000
 8002580:	6005      	str	r5, [r0, #0]
 8002582:	d05d      	beq.n	8002640 <HAL_GPIO_Init+0x184>
 8002584:	f8d9 5060 	ldr.w	r5, [r9, #96]	; 0x60
 8002588:	f045 0501 	orr.w	r5, r5, #1
 800258c:	f8c9 5060 	str.w	r5, [r9, #96]	; 0x60
 8002590:	f8d9 5060 	ldr.w	r5, [r9, #96]	; 0x60
 8002594:	f023 0703 	bic.w	r7, r3, #3
 8002598:	f107 4780 	add.w	r7, r7, #1073741824	; 0x40000000
 800259c:	f005 0501 	and.w	r5, r5, #1
 80025a0:	f507 3780 	add.w	r7, r7, #65536	; 0x10000
 80025a4:	9501      	str	r5, [sp, #4]
 80025a6:	f003 0c03 	and.w	ip, r3, #3
 80025aa:	9d01      	ldr	r5, [sp, #4]
 80025ac:	f8d7 e008 	ldr.w	lr, [r7, #8]
 80025b0:	ea4f 0c8c 	mov.w	ip, ip, lsl #2
 80025b4:	250f      	movs	r5, #15
 80025b6:	fa05 f50c 	lsl.w	r5, r5, ip
 80025ba:	f1b0 4f90 	cmp.w	r0, #1207959552	; 0x48000000
 80025be:	ea2e 0e05 	bic.w	lr, lr, r5
 80025c2:	d03f      	beq.n	8002644 <HAL_GPIO_Init+0x188>
 80025c4:	4d27      	ldr	r5, [pc, #156]	; (8002664 <HAL_GPIO_Init+0x1a8>)
 80025c6:	42a8      	cmp	r0, r5
 80025c8:	d03e      	beq.n	8002648 <HAL_GPIO_Init+0x18c>
 80025ca:	f505 6580 	add.w	r5, r5, #1024	; 0x400
 80025ce:	42a8      	cmp	r0, r5
 80025d0:	d03c      	beq.n	800264c <HAL_GPIO_Init+0x190>
 80025d2:	f505 6580 	add.w	r5, r5, #1024	; 0x400
 80025d6:	42a8      	cmp	r0, r5
 80025d8:	d03a      	beq.n	8002650 <HAL_GPIO_Init+0x194>
 80025da:	f505 6580 	add.w	r5, r5, #1024	; 0x400
 80025de:	42a8      	cmp	r0, r5
 80025e0:	d038      	beq.n	8002654 <HAL_GPIO_Init+0x198>
 80025e2:	f505 6580 	add.w	r5, r5, #1024	; 0x400
 80025e6:	42a8      	cmp	r0, r5
 80025e8:	d036      	beq.n	8002658 <HAL_GPIO_Init+0x19c>
 80025ea:	f505 6580 	add.w	r5, r5, #1024	; 0x400
 80025ee:	42a8      	cmp	r0, r5
 80025f0:	d034      	beq.n	800265c <HAL_GPIO_Init+0x1a0>
 80025f2:	f505 6580 	add.w	r5, r5, #1024	; 0x400
 80025f6:	42a8      	cmp	r0, r5
 80025f8:	bf0c      	ite	eq
 80025fa:	2507      	moveq	r5, #7
 80025fc:	2508      	movne	r5, #8
 80025fe:	fa05 f50c 	lsl.w	r5, r5, ip
 8002602:	ea45 050e 	orr.w	r5, r5, lr
 8002606:	60bd      	str	r5, [r7, #8]
 8002608:	68a5      	ldr	r5, [r4, #8]
 800260a:	43d7      	mvns	r7, r2
 800260c:	f416 1f80 	tst.w	r6, #1048576	; 0x100000
 8002610:	bf0c      	ite	eq
 8002612:	403d      	andeq	r5, r7
 8002614:	4315      	orrne	r5, r2
 8002616:	60a5      	str	r5, [r4, #8]
 8002618:	68e5      	ldr	r5, [r4, #12]
 800261a:	f416 1f00 	tst.w	r6, #2097152	; 0x200000
 800261e:	bf0c      	ite	eq
 8002620:	403d      	andeq	r5, r7
 8002622:	4315      	orrne	r5, r2
 8002624:	60e5      	str	r5, [r4, #12]
 8002626:	6865      	ldr	r5, [r4, #4]
 8002628:	f416 3f00 	tst.w	r6, #131072	; 0x20000
 800262c:	bf0c      	ite	eq
 800262e:	403d      	andeq	r5, r7
 8002630:	4315      	orrne	r5, r2
 8002632:	6065      	str	r5, [r4, #4]
 8002634:	6825      	ldr	r5, [r4, #0]
 8002636:	03f6      	lsls	r6, r6, #15
 8002638:	bf54      	ite	pl
 800263a:	403d      	andpl	r5, r7
 800263c:	4315      	orrmi	r5, r2
 800263e:	6025      	str	r5, [r4, #0]
 8002640:	3301      	adds	r3, #1
 8002642:	e741      	b.n	80024c8 <HAL_GPIO_Init+0xc>
 8002644:	2500      	movs	r5, #0
 8002646:	e7da      	b.n	80025fe <HAL_GPIO_Init+0x142>
 8002648:	2501      	movs	r5, #1
 800264a:	e7d8      	b.n	80025fe <HAL_GPIO_Init+0x142>
 800264c:	2502      	movs	r5, #2
 800264e:	e7d6      	b.n	80025fe <HAL_GPIO_Init+0x142>
 8002650:	2503      	movs	r5, #3
 8002652:	e7d4      	b.n	80025fe <HAL_GPIO_Init+0x142>
 8002654:	2504      	movs	r5, #4
 8002656:	e7d2      	b.n	80025fe <HAL_GPIO_Init+0x142>
 8002658:	2505      	movs	r5, #5
 800265a:	e7d0      	b.n	80025fe <HAL_GPIO_Init+0x142>
 800265c:	2506      	movs	r5, #6
 800265e:	e7ce      	b.n	80025fe <HAL_GPIO_Init+0x142>
 8002660:	40010400 	.word	0x40010400
 8002664:	48000400 	.word	0x48000400
 8002668:	40021000 	.word	0x40021000

0800266c <HAL_GPIO_DeInit>:
 800266c:	e92d 4ff0 	stmdb	sp!, {r4, r5, r6, r7, r8, r9, sl, fp, lr}
 8002670:	4c42      	ldr	r4, [pc, #264]	; (800277c <HAL_GPIO_DeInit+0x110>)
 8002672:	f8df a110 	ldr.w	sl, [pc, #272]	; 8002784 <HAL_GPIO_DeInit+0x118>
 8002676:	f8df b110 	ldr.w	fp, [pc, #272]	; 8002788 <HAL_GPIO_DeInit+0x11c>
 800267a:	2200      	movs	r2, #0
 800267c:	f04f 0901 	mov.w	r9, #1
 8002680:	fa31 f302 	lsrs.w	r3, r1, r2
 8002684:	d101      	bne.n	800268a <HAL_GPIO_DeInit+0x1e>
 8002686:	e8bd 8ff0 	ldmia.w	sp!, {r4, r5, r6, r7, r8, r9, sl, fp, pc}
 800268a:	fa09 fe02 	lsl.w	lr, r9, r2
 800268e:	ea1e 0701 	ands.w	r7, lr, r1
 8002692:	d063      	beq.n	800275c <HAL_GPIO_DeInit+0xf0>
 8002694:	f022 0503 	bic.w	r5, r2, #3
 8002698:	f105 4580 	add.w	r5, r5, #1073741824	; 0x40000000
 800269c:	f505 3580 	add.w	r5, r5, #65536	; 0x10000
 80026a0:	f002 0c03 	and.w	ip, r2, #3
 80026a4:	68ab      	ldr	r3, [r5, #8]
 80026a6:	ea4f 0c8c 	mov.w	ip, ip, lsl #2
 80026aa:	260f      	movs	r6, #15
 80026ac:	fa06 f60c 	lsl.w	r6, r6, ip
 80026b0:	f1b0 4f90 	cmp.w	r0, #1207959552	; 0x48000000
 80026b4:	ea06 0803 	and.w	r8, r6, r3
 80026b8:	d052      	beq.n	8002760 <HAL_GPIO_DeInit+0xf4>
 80026ba:	4b31      	ldr	r3, [pc, #196]	; (8002780 <HAL_GPIO_DeInit+0x114>)
 80026bc:	4298      	cmp	r0, r3
 80026be:	d051      	beq.n	8002764 <HAL_GPIO_DeInit+0xf8>
 80026c0:	f503 6380 	add.w	r3, r3, #1024	; 0x400
 80026c4:	4298      	cmp	r0, r3
 80026c6:	d04f      	beq.n	8002768 <HAL_GPIO_DeInit+0xfc>
 80026c8:	f503 6380 	add.w	r3, r3, #1024	; 0x400
 80026cc:	4298      	cmp	r0, r3
 80026ce:	d04d      	beq.n	800276c <HAL_GPIO_DeInit+0x100>
 80026d0:	f503 6380 	add.w	r3, r3, #1024	; 0x400
 80026d4:	4298      	cmp	r0, r3
 80026d6:	d04b      	beq.n	8002770 <HAL_GPIO_DeInit+0x104>
 80026d8:	f503 6380 	add.w	r3, r3, #1024	; 0x400
 80026dc:	4298      	cmp	r0, r3
 80026de:	d049      	beq.n	8002774 <HAL_GPIO_DeInit+0x108>
 80026e0:	4550      	cmp	r0, sl
 80026e2:	d049      	beq.n	8002778 <HAL_GPIO_DeInit+0x10c>
 80026e4:	4558      	cmp	r0, fp
 80026e6:	bf0c      	ite	eq
 80026e8:	2307      	moveq	r3, #7
 80026ea:	2308      	movne	r3, #8
 80026ec:	fa03 f30c 	lsl.w	r3, r3, ip
 80026f0:	4543      	cmp	r3, r8
 80026f2:	d113      	bne.n	800271c <HAL_GPIO_DeInit+0xb0>
 80026f4:	6823      	ldr	r3, [r4, #0]
 80026f6:	ea23 0307 	bic.w	r3, r3, r7
 80026fa:	6023      	str	r3, [r4, #0]
 80026fc:	6863      	ldr	r3, [r4, #4]
 80026fe:	ea23 0307 	bic.w	r3, r3, r7
 8002702:	6063      	str	r3, [r4, #4]
 8002704:	68e3      	ldr	r3, [r4, #12]
 8002706:	ea23 0307 	bic.w	r3, r3, r7
 800270a:	60e3      	str	r3, [r4, #12]
 800270c:	68a3      	ldr	r3, [r4, #8]
 800270e:	ea23 0307 	bic.w	r3, r3, r7
 8002712:	60a3      	str	r3, [r4, #8]
 8002714:	68ab      	ldr	r3, [r5, #8]
 8002716:	ea23 0306 	bic.w	r3, r3, r6
 800271a:	60ab      	str	r3, [r5, #8]
 800271c:	6805      	ldr	r5, [r0, #0]
 800271e:	0056      	lsls	r6, r2, #1
 8002720:	2303      	movs	r3, #3
 8002722:	40b3      	lsls	r3, r6
 8002724:	431d      	orrs	r5, r3
 8002726:	6005      	str	r5, [r0, #0]
 8002728:	08d5      	lsrs	r5, r2, #3
 800272a:	eb00 0585 	add.w	r5, r0, r5, lsl #2
 800272e:	f002 0c07 	and.w	ip, r2, #7
 8002732:	6a2e      	ldr	r6, [r5, #32]
 8002734:	ea4f 0c8c 	mov.w	ip, ip, lsl #2
 8002738:	270f      	movs	r7, #15
 800273a:	fa07 f70c 	lsl.w	r7, r7, ip
 800273e:	ea26 0607 	bic.w	r6, r6, r7
 8002742:	622e      	str	r6, [r5, #32]
 8002744:	6885      	ldr	r5, [r0, #8]
 8002746:	ea25 0503 	bic.w	r5, r5, r3
 800274a:	6085      	str	r5, [r0, #8]
 800274c:	6845      	ldr	r5, [r0, #4]
 800274e:	ea25 050e 	bic.w	r5, r5, lr
 8002752:	6045      	str	r5, [r0, #4]
 8002754:	68c5      	ldr	r5, [r0, #12]
 8002756:	ea25 0303 	bic.w	r3, r5, r3
 800275a:	60c3      	str	r3, [r0, #12]
 800275c:	3201      	adds	r2, #1
 800275e:	e78f      	b.n	8002680 <HAL_GPIO_DeInit+0x14>
 8002760:	2300      	movs	r3, #0
 8002762:	e7c3      	b.n	80026ec <HAL_GPIO_DeInit+0x80>
 8002764:	2301      	movs	r3, #1
 8002766:	e7c1      	b.n	80026ec <HAL_GPIO_DeInit+0x80>
 8002768:	2302      	movs	r3, #2
 800276a:	e7bf      	b.n	80026ec <HAL_GPIO_DeInit+0x80>
 800276c:	2303      	movs	r3, #3
 800276e:	e7bd      	b.n	80026ec <HAL_GPIO_DeInit+0x80>
 8002770:	2304      	movs	r3, #4
 8002772:	e7bb      	b.n	80026ec <HAL_GPIO_DeInit+0x80>
 8002774:	2305      	movs	r3, #5
 8002776:	e7b9      	b.n	80026ec <HAL_GPIO_DeInit+0x80>
 8002778:	2306      	movs	r3, #6
 800277a:	e7b7      	b.n	80026ec <HAL_GPIO_DeInit+0x80>
 800277c:	40010400 	.word	0x40010400
 8002780:	48000400 	.word	0x48000400
 8002784:	48001800 	.word	0x48001800
 8002788:	48001c00 	.word	0x48001c00

0800278c <HAL_GPIO_WritePin>:
 800278c:	b10a      	cbz	r2, 8002792 <HAL_GPIO_WritePin+0x6>
 800278e:	6181      	str	r1, [r0, #24]
 8002790:	4770      	bx	lr
 8002792:	6281      	str	r1, [r0, #40]	; 0x28
 8002794:	4770      	bx	lr
	...

08002798 <HAL_GPIO_EXTI_IRQHandler>:
 8002798:	4a04      	ldr	r2, [pc, #16]	; (80027ac <HAL_GPIO_EXTI_IRQHandler+0x14>)
 800279a:	6951      	ldr	r1, [r2, #20]
 800279c:	4201      	tst	r1, r0
 800279e:	b508      	push	{r3, lr}
 80027a0:	d002      	beq.n	80027a8 <HAL_GPIO_EXTI_IRQHandler+0x10>
 80027a2:	6150      	str	r0, [r2, #20]
 80027a4:	f7fe fc22 	bl	8000fec <HAL_GPIO_EXTI_Callback>
 80027a8:	bd08      	pop	{r3, pc}
 80027aa:	bf00      	nop
 80027ac:	40010400 	.word	0x40010400

080027b0 <I2C_Flush_TXDR>:
 80027b0:	6803      	ldr	r3, [r0, #0]
 80027b2:	699a      	ldr	r2, [r3, #24]
 80027b4:	0791      	lsls	r1, r2, #30
 80027b6:	bf44      	itt	mi
 80027b8:	2200      	movmi	r2, #0
 80027ba:	629a      	strmi	r2, [r3, #40]	; 0x28
 80027bc:	699a      	ldr	r2, [r3, #24]
 80027be:	07d2      	lsls	r2, r2, #31
 80027c0:	bf5e      	ittt	pl
 80027c2:	699a      	ldrpl	r2, [r3, #24]
 80027c4:	f042 0201 	orrpl.w	r2, r2, #1
 80027c8:	619a      	strpl	r2, [r3, #24]
 80027ca:	4770      	bx	lr

080027cc <I2C_TransferConfig>:
 80027cc:	b530      	push	{r4, r5, lr}
 80027ce:	9d03      	ldr	r5, [sp, #12]
 80027d0:	6804      	ldr	r4, [r0, #0]
 80027d2:	432b      	orrs	r3, r5
 80027d4:	ea43 4302 	orr.w	r3, r3, r2, lsl #16
 80027d8:	4a06      	ldr	r2, [pc, #24]	; (80027f4 <I2C_TransferConfig+0x28>)
 80027da:	6860      	ldr	r0, [r4, #4]
 80027dc:	f3c1 0109 	ubfx	r1, r1, #0, #10
 80027e0:	430b      	orrs	r3, r1
 80027e2:	ea42 5255 	orr.w	r2, r2, r5, lsr #21
 80027e6:	f023 4300 	bic.w	r3, r3, #2147483648	; 0x80000000
 80027ea:	ea20 0002 	bic.w	r0, r0, r2
 80027ee:	4303      	orrs	r3, r0
 80027f0:	6063      	str	r3, [r4, #4]
 80027f2:	bd30      	pop	{r4, r5, pc}
 80027f4:	03ff63ff 	.word	0x03ff63ff

080027f8 <I2C_IsErrorOccurred>:
 80027f8:	6803      	ldr	r3, [r0, #0]
 80027fa:	e92d 41f0 	stmdb	sp!, {r4, r5, r6, r7, r8, lr}
 80027fe:	699c      	ldr	r4, [r3, #24]
 8002800:	f014 0410 	ands.w	r4, r4, #16
 8002804:	4605      	mov	r5, r0
 8002806:	460f      	mov	r7, r1
 8002808:	4616      	mov	r6, r2
 800280a:	d06f      	beq.n	80028ec <I2C_IsErrorOccurred+0xf4>
 800280c:	2210      	movs	r2, #16
 800280e:	2400      	movs	r4, #0
 8002810:	61da      	str	r2, [r3, #28]
 8002812:	46a0      	mov	r8, r4
 8002814:	682b      	ldr	r3, [r5, #0]
 8002816:	699a      	ldr	r2, [r3, #24]
 8002818:	0690      	lsls	r0, r2, #26
 800281a:	d461      	bmi.n	80028e0 <I2C_IsErrorOccurred+0xe8>
 800281c:	f1b8 0f00 	cmp.w	r8, #0
 8002820:	d035      	beq.n	800288e <I2C_IsErrorOccurred+0x96>
 8002822:	f044 0404 	orr.w	r4, r4, #4
 8002826:	2001      	movs	r0, #1
 8002828:	682e      	ldr	r6, [r5, #0]
 800282a:	69b3      	ldr	r3, [r6, #24]
 800282c:	05d9      	lsls	r1, r3, #23
 800282e:	bf41      	itttt	mi
 8002830:	f44f 7280 	movmi.w	r2, #256	; 0x100
 8002834:	61f2      	strmi	r2, [r6, #28]
 8002836:	f044 0401 	orrmi.w	r4, r4, #1
 800283a:	2001      	movmi	r0, #1
 800283c:	055a      	lsls	r2, r3, #21
 800283e:	bf41      	itttt	mi
 8002840:	f44f 6280 	movmi.w	r2, #1024	; 0x400
 8002844:	f044 0408 	orrmi.w	r4, r4, #8
 8002848:	61f2      	strmi	r2, [r6, #28]
 800284a:	2001      	movmi	r0, #1
 800284c:	059b      	lsls	r3, r3, #22
 800284e:	d54f      	bpl.n	80028f0 <I2C_IsErrorOccurred+0xf8>
 8002850:	f44f 7300 	mov.w	r3, #512	; 0x200
 8002854:	f044 0402 	orr.w	r4, r4, #2
 8002858:	61f3      	str	r3, [r6, #28]
 800285a:	4628      	mov	r0, r5
 800285c:	f7ff ffa8 	bl	80027b0 <I2C_Flush_TXDR>
 8002860:	6873      	ldr	r3, [r6, #4]
 8002862:	f023 73ff 	bic.w	r3, r3, #33423360	; 0x1fe0000
 8002866:	f423 338b 	bic.w	r3, r3, #71168	; 0x11600
 800286a:	f423 73ff 	bic.w	r3, r3, #510	; 0x1fe
 800286e:	f023 0301 	bic.w	r3, r3, #1
 8002872:	6073      	str	r3, [r6, #4]
 8002874:	6c6b      	ldr	r3, [r5, #68]	; 0x44
 8002876:	4323      	orrs	r3, r4
 8002878:	646b      	str	r3, [r5, #68]	; 0x44
 800287a:	2320      	movs	r3, #32
 800287c:	f885 3041 	strb.w	r3, [r5, #65]	; 0x41
 8002880:	2300      	movs	r3, #0
 8002882:	f885 3042 	strb.w	r3, [r5, #66]	; 0x42
 8002886:	f885 3040 	strb.w	r3, [r5, #64]	; 0x40
 800288a:	2001      	movs	r0, #1
 800288c:	e032      	b.n	80028f4 <I2C_IsErrorOccurred+0xfc>
 800288e:	1c7a      	adds	r2, r7, #1
 8002890:	d0c1      	beq.n	8002816 <I2C_IsErrorOccurred+0x1e>
 8002892:	f7ff fda7 	bl	80023e4 <HAL_GetTick>
 8002896:	1b80      	subs	r0, r0, r6
 8002898:	42b8      	cmp	r0, r7
 800289a:	d801      	bhi.n	80028a0 <I2C_IsErrorOccurred+0xa8>
 800289c:	2f00      	cmp	r7, #0
 800289e:	d1b9      	bne.n	8002814 <I2C_IsErrorOccurred+0x1c>
 80028a0:	682b      	ldr	r3, [r5, #0]
 80028a2:	6859      	ldr	r1, [r3, #4]
 80028a4:	f895 2042 	ldrb.w	r2, [r5, #66]	; 0x42
 80028a8:	6998      	ldr	r0, [r3, #24]
 80028aa:	0400      	lsls	r0, r0, #16
 80028ac:	b2d2      	uxtb	r2, r2
 80028ae:	d50a      	bpl.n	80028c6 <I2C_IsErrorOccurred+0xce>
 80028b0:	0449      	lsls	r1, r1, #17
 80028b2:	d408      	bmi.n	80028c6 <I2C_IsErrorOccurred+0xce>
 80028b4:	2a20      	cmp	r2, #32
 80028b6:	d006      	beq.n	80028c6 <I2C_IsErrorOccurred+0xce>
 80028b8:	685a      	ldr	r2, [r3, #4]
 80028ba:	f442 4280 	orr.w	r2, r2, #16384	; 0x4000
 80028be:	605a      	str	r2, [r3, #4]
 80028c0:	f7ff fd90 	bl	80023e4 <HAL_GetTick>
 80028c4:	4606      	mov	r6, r0
 80028c6:	682b      	ldr	r3, [r5, #0]
 80028c8:	699b      	ldr	r3, [r3, #24]
 80028ca:	069b      	lsls	r3, r3, #26
 80028cc:	d4a2      	bmi.n	8002814 <I2C_IsErrorOccurred+0x1c>
 80028ce:	f7ff fd89 	bl	80023e4 <HAL_GetTick>
 80028d2:	1b80      	subs	r0, r0, r6
 80028d4:	2819      	cmp	r0, #25
 80028d6:	d9f6      	bls.n	80028c6 <I2C_IsErrorOccurred+0xce>
 80028d8:	2420      	movs	r4, #32
 80028da:	f04f 0801 	mov.w	r8, #1
 80028de:	e799      	b.n	8002814 <I2C_IsErrorOccurred+0x1c>
 80028e0:	f1b8 0f00 	cmp.w	r8, #0
 80028e4:	d19d      	bne.n	8002822 <I2C_IsErrorOccurred+0x2a>
 80028e6:	2220      	movs	r2, #32
 80028e8:	61da      	str	r2, [r3, #28]
 80028ea:	e79a      	b.n	8002822 <I2C_IsErrorOccurred+0x2a>
 80028ec:	4620      	mov	r0, r4
 80028ee:	e79b      	b.n	8002828 <I2C_IsErrorOccurred+0x30>
 80028f0:	2800      	cmp	r0, #0
 80028f2:	d1b2      	bne.n	800285a <I2C_IsErrorOccurred+0x62>
 80028f4:	e8bd 81f0 	ldmia.w	sp!, {r4, r5, r6, r7, r8, pc}

080028f8 <I2C_WaitOnTXISFlagUntilTimeout>:
 80028f8:	b570      	push	{r4, r5, r6, lr}
 80028fa:	4604      	mov	r4, r0
 80028fc:	460d      	mov	r5, r1
 80028fe:	4616      	mov	r6, r2
 8002900:	6823      	ldr	r3, [r4, #0]
 8002902:	699b      	ldr	r3, [r3, #24]
 8002904:	079b      	lsls	r3, r3, #30
 8002906:	d501      	bpl.n	800290c <I2C_WaitOnTXISFlagUntilTimeout+0x14>
 8002908:	2000      	movs	r0, #0
 800290a:	bd70      	pop	{r4, r5, r6, pc}
 800290c:	4632      	mov	r2, r6
 800290e:	4629      	mov	r1, r5
 8002910:	4620      	mov	r0, r4
 8002912:	f7ff ff71 	bl	80027f8 <I2C_IsErrorOccurred>
 8002916:	b9c0      	cbnz	r0, 800294a <I2C_WaitOnTXISFlagUntilTimeout+0x52>
 8002918:	1c6a      	adds	r2, r5, #1
 800291a:	d0f1      	beq.n	8002900 <I2C_WaitOnTXISFlagUntilTimeout+0x8>
 800291c:	f7ff fd62 	bl	80023e4 <HAL_GetTick>
 8002920:	1b80      	subs	r0, r0, r6
 8002922:	42a8      	cmp	r0, r5
 8002924:	d801      	bhi.n	800292a <I2C_WaitOnTXISFlagUntilTimeout+0x32>
 8002926:	2d00      	cmp	r5, #0
 8002928:	d1ea      	bne.n	8002900 <I2C_WaitOnTXISFlagUntilTimeout+0x8>
 800292a:	6823      	ldr	r3, [r4, #0]
 800292c:	699b      	ldr	r3, [r3, #24]
 800292e:	f013 0302 	ands.w	r3, r3, #2
 8002932:	d1e5      	bne.n	8002900 <I2C_WaitOnTXISFlagUntilTimeout+0x8>
 8002934:	6c62      	ldr	r2, [r4, #68]	; 0x44
 8002936:	f884 3040 	strb.w	r3, [r4, #64]	; 0x40
 800293a:	f042 0220 	orr.w	r2, r2, #32
 800293e:	6462      	str	r2, [r4, #68]	; 0x44
 8002940:	2220      	movs	r2, #32
 8002942:	f884 2041 	strb.w	r2, [r4, #65]	; 0x41
 8002946:	f884 3042 	strb.w	r3, [r4, #66]	; 0x42
 800294a:	2001      	movs	r0, #1
 800294c:	e7dd      	b.n	800290a <I2C_WaitOnTXISFlagUntilTimeout+0x12>

0800294e <I2C_WaitOnFlagUntilTimeout>:
 800294e:	e92d 41f0 	stmdb	sp!, {r4, r5, r6, r7, r8, lr}
 8002952:	9f06      	ldr	r7, [sp, #24]
 8002954:	4604      	mov	r4, r0
 8002956:	4688      	mov	r8, r1
 8002958:	4616      	mov	r6, r2
 800295a:	461d      	mov	r5, r3
 800295c:	6822      	ldr	r2, [r4, #0]
 800295e:	6993      	ldr	r3, [r2, #24]
 8002960:	ea38 0303 	bics.w	r3, r8, r3
 8002964:	bf0c      	ite	eq
 8002966:	2301      	moveq	r3, #1
 8002968:	2300      	movne	r3, #0
 800296a:	42b3      	cmp	r3, r6
 800296c:	d001      	beq.n	8002972 <I2C_WaitOnFlagUntilTimeout+0x24>
 800296e:	2000      	movs	r0, #0
 8002970:	e01e      	b.n	80029b0 <I2C_WaitOnFlagUntilTimeout+0x62>
 8002972:	1c6b      	adds	r3, r5, #1
 8002974:	d0f3      	beq.n	800295e <I2C_WaitOnFlagUntilTimeout+0x10>
 8002976:	f7ff fd35 	bl	80023e4 <HAL_GetTick>
 800297a:	1bc0      	subs	r0, r0, r7
 800297c:	42a8      	cmp	r0, r5
 800297e:	d801      	bhi.n	8002984 <I2C_WaitOnFlagUntilTimeout+0x36>
 8002980:	2d00      	cmp	r5, #0
 8002982:	d1eb      	bne.n	800295c <I2C_WaitOnFlagUntilTimeout+0xe>
 8002984:	6823      	ldr	r3, [r4, #0]
 8002986:	699b      	ldr	r3, [r3, #24]
 8002988:	ea38 0303 	bics.w	r3, r8, r3
 800298c:	bf0c      	ite	eq
 800298e:	2301      	moveq	r3, #1
 8002990:	2300      	movne	r3, #0
 8002992:	42b3      	cmp	r3, r6
 8002994:	d1e2      	bne.n	800295c <I2C_WaitOnFlagUntilTimeout+0xe>
 8002996:	6c63      	ldr	r3, [r4, #68]	; 0x44
 8002998:	f043 0320 	orr.w	r3, r3, #32
 800299c:	6463      	str	r3, [r4, #68]	; 0x44
 800299e:	2320      	movs	r3, #32
 80029a0:	f884 3041 	strb.w	r3, [r4, #65]	; 0x41
 80029a4:	2300      	movs	r3, #0
 80029a6:	f884 3042 	strb.w	r3, [r4, #66]	; 0x42
 80029aa:	f884 3040 	strb.w	r3, [r4, #64]	; 0x40
 80029ae:	2001      	movs	r0, #1
 80029b0:	e8bd 81f0 	ldmia.w	sp!, {r4, r5, r6, r7, r8, pc}

080029b4 <I2C_WaitOnSTOPFlagUntilTimeout>:
 80029b4:	b570      	push	{r4, r5, r6, lr}
 80029b6:	4604      	mov	r4, r0
 80029b8:	460d      	mov	r5, r1
 80029ba:	4616      	mov	r6, r2
 80029bc:	6823      	ldr	r3, [r4, #0]
 80029be:	699b      	ldr	r3, [r3, #24]
 80029c0:	069b      	lsls	r3, r3, #26
 80029c2:	d501      	bpl.n	80029c8 <I2C_WaitOnSTOPFlagUntilTimeout+0x14>
 80029c4:	2000      	movs	r0, #0
 80029c6:	bd70      	pop	{r4, r5, r6, pc}
 80029c8:	4632      	mov	r2, r6
 80029ca:	4629      	mov	r1, r5
 80029cc:	4620      	mov	r0, r4
 80029ce:	f7ff ff13 	bl	80027f8 <I2C_IsErrorOccurred>
 80029d2:	b9b0      	cbnz	r0, 8002a02 <I2C_WaitOnSTOPFlagUntilTimeout+0x4e>
 80029d4:	f7ff fd06 	bl	80023e4 <HAL_GetTick>
 80029d8:	1b80      	subs	r0, r0, r6
 80029da:	42a8      	cmp	r0, r5
 80029dc:	d801      	bhi.n	80029e2 <I2C_WaitOnSTOPFlagUntilTimeout+0x2e>
 80029de:	2d00      	cmp	r5, #0
 80029e0:	d1ec      	bne.n	80029bc <I2C_WaitOnSTOPFlagUntilTimeout+0x8>
 80029e2:	6823      	ldr	r3, [r4, #0]
 80029e4:	699b      	ldr	r3, [r3, #24]
 80029e6:	f013 0320 	ands.w	r3, r3, #32
 80029ea:	d1e7      	bne.n	80029bc <I2C_WaitOnSTOPFlagUntilTimeout+0x8>
 80029ec:	6c62      	ldr	r2, [r4, #68]	; 0x44
 80029ee:	f884 3040 	strb.w	r3, [r4, #64]	; 0x40
 80029f2:	f042 0220 	orr.w	r2, r2, #32
 80029f6:	6462      	str	r2, [r4, #68]	; 0x44
 80029f8:	2220      	movs	r2, #32
 80029fa:	f884 2041 	strb.w	r2, [r4, #65]	; 0x41
 80029fe:	f884 3042 	strb.w	r3, [r4, #66]	; 0x42
 8002a02:	2001      	movs	r0, #1
 8002a04:	e7df      	b.n	80029c6 <I2C_WaitOnSTOPFlagUntilTimeout+0x12>

08002a06 <HAL_I2C_Init>:
 8002a06:	b510      	push	{r4, lr}
 8002a08:	4604      	mov	r4, r0
 8002a0a:	2800      	cmp	r0, #0
 8002a0c:	d04e      	beq.n	8002aac <HAL_I2C_Init+0xa6>
 8002a0e:	f890 3041 	ldrb.w	r3, [r0, #65]	; 0x41
 8002a12:	f003 02ff 	and.w	r2, r3, #255	; 0xff
 8002a16:	b91b      	cbnz	r3, 8002a20 <HAL_I2C_Init+0x1a>
 8002a18:	f880 2040 	strb.w	r2, [r0, #64]	; 0x40
 8002a1c:	f7ff f882 	bl	8001b24 <HAL_I2C_MspInit>
 8002a20:	2324      	movs	r3, #36	; 0x24
 8002a22:	f884 3041 	strb.w	r3, [r4, #65]	; 0x41
 8002a26:	6823      	ldr	r3, [r4, #0]
 8002a28:	681a      	ldr	r2, [r3, #0]
 8002a2a:	f022 0201 	bic.w	r2, r2, #1
 8002a2e:	601a      	str	r2, [r3, #0]
 8002a30:	6862      	ldr	r2, [r4, #4]
 8002a32:	f022 6270 	bic.w	r2, r2, #251658240	; 0xf000000
 8002a36:	611a      	str	r2, [r3, #16]
 8002a38:	689a      	ldr	r2, [r3, #8]
 8002a3a:	f422 4200 	bic.w	r2, r2, #32768	; 0x8000
 8002a3e:	609a      	str	r2, [r3, #8]
 8002a40:	e9d4 2102 	ldrd	r2, r1, [r4, #8]
 8002a44:	2901      	cmp	r1, #1
 8002a46:	d106      	bne.n	8002a56 <HAL_I2C_Init+0x50>
 8002a48:	f442 4200 	orr.w	r2, r2, #32768	; 0x8000
 8002a4c:	609a      	str	r2, [r3, #8]
 8002a4e:	685a      	ldr	r2, [r3, #4]
 8002a50:	f422 6200 	bic.w	r2, r2, #2048	; 0x800
 8002a54:	e007      	b.n	8002a66 <HAL_I2C_Init+0x60>
 8002a56:	f442 4204 	orr.w	r2, r2, #33792	; 0x8400
 8002a5a:	2902      	cmp	r1, #2
 8002a5c:	609a      	str	r2, [r3, #8]
 8002a5e:	d1f6      	bne.n	8002a4e <HAL_I2C_Init+0x48>
 8002a60:	685a      	ldr	r2, [r3, #4]
 8002a62:	f442 6200 	orr.w	r2, r2, #2048	; 0x800
 8002a66:	605a      	str	r2, [r3, #4]
 8002a68:	685a      	ldr	r2, [r3, #4]
 8002a6a:	f042 7200 	orr.w	r2, r2, #33554432	; 0x2000000
 8002a6e:	f442 4200 	orr.w	r2, r2, #32768	; 0x8000
 8002a72:	605a      	str	r2, [r3, #4]
 8002a74:	68da      	ldr	r2, [r3, #12]
 8002a76:	f422 4200 	bic.w	r2, r2, #32768	; 0x8000
 8002a7a:	60da      	str	r2, [r3, #12]
 8002a7c:	e9d4 2104 	ldrd	r2, r1, [r4, #16]
 8002a80:	430a      	orrs	r2, r1
 8002a82:	69a1      	ldr	r1, [r4, #24]
 8002a84:	ea42 2201 	orr.w	r2, r2, r1, lsl #8
 8002a88:	60da      	str	r2, [r3, #12]
 8002a8a:	e9d4 2107 	ldrd	r2, r1, [r4, #28]
 8002a8e:	430a      	orrs	r2, r1
 8002a90:	601a      	str	r2, [r3, #0]
 8002a92:	681a      	ldr	r2, [r3, #0]
 8002a94:	f042 0201 	orr.w	r2, r2, #1
 8002a98:	601a      	str	r2, [r3, #0]
 8002a9a:	2000      	movs	r0, #0
 8002a9c:	2320      	movs	r3, #32
 8002a9e:	6460      	str	r0, [r4, #68]	; 0x44
 8002aa0:	f884 3041 	strb.w	r3, [r4, #65]	; 0x41
 8002aa4:	6320      	str	r0, [r4, #48]	; 0x30
 8002aa6:	f884 0042 	strb.w	r0, [r4, #66]	; 0x42
 8002aaa:	bd10      	pop	{r4, pc}
 8002aac:	2001      	movs	r0, #1
 8002aae:	e7fc      	b.n	8002aaa <HAL_I2C_Init+0xa4>

08002ab0 <HAL_I2C_DeInit>:
 8002ab0:	b510      	push	{r4, lr}
 8002ab2:	4604      	mov	r4, r0
 8002ab4:	b198      	cbz	r0, 8002ade <HAL_I2C_DeInit+0x2e>
 8002ab6:	6802      	ldr	r2, [r0, #0]
 8002ab8:	2324      	movs	r3, #36	; 0x24
 8002aba:	f880 3041 	strb.w	r3, [r0, #65]	; 0x41
 8002abe:	6813      	ldr	r3, [r2, #0]
 8002ac0:	f023 0301 	bic.w	r3, r3, #1
 8002ac4:	6013      	str	r3, [r2, #0]
 8002ac6:	f7ff f871 	bl	8001bac <HAL_I2C_MspDeInit>
 8002aca:	2000      	movs	r0, #0
 8002acc:	6460      	str	r0, [r4, #68]	; 0x44
 8002ace:	f884 0040 	strb.w	r0, [r4, #64]	; 0x40
 8002ad2:	f884 0041 	strb.w	r0, [r4, #65]	; 0x41
 8002ad6:	6320      	str	r0, [r4, #48]	; 0x30
 8002ad8:	f884 0042 	strb.w	r0, [r4, #66]	; 0x42
 8002adc:	bd10      	pop	{r4, pc}
 8002ade:	2001      	movs	r0, #1
 8002ae0:	e7fc      	b.n	8002adc <HAL_I2C_DeInit+0x2c>
	...

08002ae4 <HAL_I2C_Mem_Write>:
 8002ae4:	e92d 4ff7 	stmdb	sp!, {r0, r1, r2, r4, r5, r6, r7, r8, r9, sl, fp, lr}
 8002ae8:	4699      	mov	r9, r3
 8002aea:	f890 3041 	ldrb.w	r3, [r0, #65]	; 0x41
 8002aee:	f8bd a034 	ldrh.w	sl, [sp, #52]	; 0x34
 8002af2:	f8dd 8038 	ldr.w	r8, [sp, #56]	; 0x38
 8002af6:	2b20      	cmp	r3, #32
 8002af8:	4604      	mov	r4, r0
 8002afa:	460f      	mov	r7, r1
 8002afc:	4616      	mov	r6, r2
 8002afe:	f040 80c6 	bne.w	8002c8e <HAL_I2C_Mem_Write+0x1aa>
 8002b02:	9b0c      	ldr	r3, [sp, #48]	; 0x30
 8002b04:	b113      	cbz	r3, 8002b0c <HAL_I2C_Mem_Write+0x28>
 8002b06:	f1ba 0f00 	cmp.w	sl, #0
 8002b0a:	d106      	bne.n	8002b1a <HAL_I2C_Mem_Write+0x36>
 8002b0c:	f44f 7300 	mov.w	r3, #512	; 0x200
 8002b10:	6463      	str	r3, [r4, #68]	; 0x44
 8002b12:	2001      	movs	r0, #1
 8002b14:	b003      	add	sp, #12
 8002b16:	e8bd 8ff0 	ldmia.w	sp!, {r4, r5, r6, r7, r8, r9, sl, fp, pc}
 8002b1a:	f890 3040 	ldrb.w	r3, [r0, #64]	; 0x40
 8002b1e:	2b01      	cmp	r3, #1
 8002b20:	f000 80b5 	beq.w	8002c8e <HAL_I2C_Mem_Write+0x1aa>
 8002b24:	f04f 0b01 	mov.w	fp, #1
 8002b28:	f880 b040 	strb.w	fp, [r0, #64]	; 0x40
 8002b2c:	f7ff fc5a 	bl	80023e4 <HAL_GetTick>
 8002b30:	2319      	movs	r3, #25
 8002b32:	4605      	mov	r5, r0
 8002b34:	9000      	str	r0, [sp, #0]
 8002b36:	465a      	mov	r2, fp
 8002b38:	f44f 4100 	mov.w	r1, #32768	; 0x8000
 8002b3c:	4620      	mov	r0, r4
 8002b3e:	f7ff ff06 	bl	800294e <I2C_WaitOnFlagUntilTimeout>
 8002b42:	2800      	cmp	r0, #0
 8002b44:	d1e5      	bne.n	8002b12 <HAL_I2C_Mem_Write+0x2e>
 8002b46:	2321      	movs	r3, #33	; 0x21
 8002b48:	f884 3041 	strb.w	r3, [r4, #65]	; 0x41
 8002b4c:	2340      	movs	r3, #64	; 0x40
 8002b4e:	f884 3042 	strb.w	r3, [r4, #66]	; 0x42
 8002b52:	9b0c      	ldr	r3, [sp, #48]	; 0x30
 8002b54:	6263      	str	r3, [r4, #36]	; 0x24
 8002b56:	4b4f      	ldr	r3, [pc, #316]	; (8002c94 <HAL_I2C_Mem_Write+0x1b0>)
 8002b58:	6460      	str	r0, [r4, #68]	; 0x44
 8002b5a:	6360      	str	r0, [r4, #52]	; 0x34
 8002b5c:	9300      	str	r3, [sp, #0]
 8002b5e:	fa5f f289 	uxtb.w	r2, r9
 8002b62:	4639      	mov	r1, r7
 8002b64:	4620      	mov	r0, r4
 8002b66:	f8a4 a02a 	strh.w	sl, [r4, #42]	; 0x2a
 8002b6a:	f04f 7380 	mov.w	r3, #16777216	; 0x1000000
 8002b6e:	f7ff fe2d 	bl	80027cc <I2C_TransferConfig>
 8002b72:	462a      	mov	r2, r5
 8002b74:	4641      	mov	r1, r8
 8002b76:	4620      	mov	r0, r4
 8002b78:	f7ff febe 	bl	80028f8 <I2C_WaitOnTXISFlagUntilTimeout>
 8002b7c:	bb18      	cbnz	r0, 8002bc6 <HAL_I2C_Mem_Write+0xe2>
 8002b7e:	f1b9 0f01 	cmp.w	r9, #1
 8002b82:	6823      	ldr	r3, [r4, #0]
 8002b84:	d115      	bne.n	8002bb2 <HAL_I2C_Mem_Write+0xce>
 8002b86:	b2f6      	uxtb	r6, r6
 8002b88:	629e      	str	r6, [r3, #40]	; 0x28
 8002b8a:	2200      	movs	r2, #0
 8002b8c:	9500      	str	r5, [sp, #0]
 8002b8e:	4643      	mov	r3, r8
 8002b90:	2180      	movs	r1, #128	; 0x80
 8002b92:	4620      	mov	r0, r4
 8002b94:	f7ff fedb 	bl	800294e <I2C_WaitOnFlagUntilTimeout>
 8002b98:	b9a8      	cbnz	r0, 8002bc6 <HAL_I2C_Mem_Write+0xe2>
 8002b9a:	8d63      	ldrh	r3, [r4, #42]	; 0x2a
 8002b9c:	b29b      	uxth	r3, r3
 8002b9e:	2bff      	cmp	r3, #255	; 0xff
 8002ba0:	d815      	bhi.n	8002bce <HAL_I2C_Mem_Write+0xea>
 8002ba2:	8d62      	ldrh	r2, [r4, #42]	; 0x2a
 8002ba4:	9000      	str	r0, [sp, #0]
 8002ba6:	b292      	uxth	r2, r2
 8002ba8:	8522      	strh	r2, [r4, #40]	; 0x28
 8002baa:	f04f 7300 	mov.w	r3, #33554432	; 0x2000000
 8002bae:	b2d2      	uxtb	r2, r2
 8002bb0:	e012      	b.n	8002bd8 <HAL_I2C_Mem_Write+0xf4>
 8002bb2:	0a32      	lsrs	r2, r6, #8
 8002bb4:	629a      	str	r2, [r3, #40]	; 0x28
 8002bb6:	4641      	mov	r1, r8
 8002bb8:	462a      	mov	r2, r5
 8002bba:	4620      	mov	r0, r4
 8002bbc:	f7ff fe9c 	bl	80028f8 <I2C_WaitOnTXISFlagUntilTimeout>
 8002bc0:	b908      	cbnz	r0, 8002bc6 <HAL_I2C_Mem_Write+0xe2>
 8002bc2:	6823      	ldr	r3, [r4, #0]
 8002bc4:	e7df      	b.n	8002b86 <HAL_I2C_Mem_Write+0xa2>
 8002bc6:	2300      	movs	r3, #0
 8002bc8:	f884 3040 	strb.w	r3, [r4, #64]	; 0x40
 8002bcc:	e7a1      	b.n	8002b12 <HAL_I2C_Mem_Write+0x2e>
 8002bce:	22ff      	movs	r2, #255	; 0xff
 8002bd0:	8522      	strh	r2, [r4, #40]	; 0x28
 8002bd2:	9000      	str	r0, [sp, #0]
 8002bd4:	f04f 7380 	mov.w	r3, #16777216	; 0x1000000
 8002bd8:	4639      	mov	r1, r7
 8002bda:	4620      	mov	r0, r4
 8002bdc:	f7ff fdf6 	bl	80027cc <I2C_TransferConfig>
 8002be0:	462a      	mov	r2, r5
 8002be2:	4641      	mov	r1, r8
 8002be4:	4620      	mov	r0, r4
 8002be6:	f7ff fe87 	bl	80028f8 <I2C_WaitOnTXISFlagUntilTimeout>
 8002bea:	2800      	cmp	r0, #0
 8002bec:	d191      	bne.n	8002b12 <HAL_I2C_Mem_Write+0x2e>
 8002bee:	6a63      	ldr	r3, [r4, #36]	; 0x24
 8002bf0:	6822      	ldr	r2, [r4, #0]
 8002bf2:	f813 1b01 	ldrb.w	r1, [r3], #1
 8002bf6:	6291      	str	r1, [r2, #40]	; 0x28
 8002bf8:	6263      	str	r3, [r4, #36]	; 0x24
 8002bfa:	8d63      	ldrh	r3, [r4, #42]	; 0x2a
 8002bfc:	8d22      	ldrh	r2, [r4, #40]	; 0x28
 8002bfe:	3b01      	subs	r3, #1
 8002c00:	b29b      	uxth	r3, r3
 8002c02:	8563      	strh	r3, [r4, #42]	; 0x2a
 8002c04:	8d63      	ldrh	r3, [r4, #42]	; 0x2a
 8002c06:	3a01      	subs	r2, #1
 8002c08:	b292      	uxth	r2, r2
 8002c0a:	b29b      	uxth	r3, r3
 8002c0c:	8522      	strh	r2, [r4, #40]	; 0x28
 8002c0e:	b1b3      	cbz	r3, 8002c3e <HAL_I2C_Mem_Write+0x15a>
 8002c10:	b9aa      	cbnz	r2, 8002c3e <HAL_I2C_Mem_Write+0x15a>
 8002c12:	9500      	str	r5, [sp, #0]
 8002c14:	4643      	mov	r3, r8
 8002c16:	2180      	movs	r1, #128	; 0x80
 8002c18:	4620      	mov	r0, r4
 8002c1a:	f7ff fe98 	bl	800294e <I2C_WaitOnFlagUntilTimeout>
 8002c1e:	2800      	cmp	r0, #0
 8002c20:	f47f af77 	bne.w	8002b12 <HAL_I2C_Mem_Write+0x2e>
 8002c24:	8d63      	ldrh	r3, [r4, #42]	; 0x2a
 8002c26:	b29b      	uxth	r3, r3
 8002c28:	2bff      	cmp	r3, #255	; 0xff
 8002c2a:	d928      	bls.n	8002c7e <HAL_I2C_Mem_Write+0x19a>
 8002c2c:	22ff      	movs	r2, #255	; 0xff
 8002c2e:	8522      	strh	r2, [r4, #40]	; 0x28
 8002c30:	9000      	str	r0, [sp, #0]
 8002c32:	f04f 7380 	mov.w	r3, #16777216	; 0x1000000
 8002c36:	4639      	mov	r1, r7
 8002c38:	4620      	mov	r0, r4
 8002c3a:	f7ff fdc7 	bl	80027cc <I2C_TransferConfig>
 8002c3e:	8d63      	ldrh	r3, [r4, #42]	; 0x2a
 8002c40:	b29b      	uxth	r3, r3
 8002c42:	2b00      	cmp	r3, #0
 8002c44:	d1cc      	bne.n	8002be0 <HAL_I2C_Mem_Write+0xfc>
 8002c46:	462a      	mov	r2, r5
 8002c48:	4641      	mov	r1, r8
 8002c4a:	4620      	mov	r0, r4
 8002c4c:	f7ff feb2 	bl	80029b4 <I2C_WaitOnSTOPFlagUntilTimeout>
 8002c50:	2800      	cmp	r0, #0
 8002c52:	f47f af5e 	bne.w	8002b12 <HAL_I2C_Mem_Write+0x2e>
 8002c56:	6823      	ldr	r3, [r4, #0]
 8002c58:	2120      	movs	r1, #32
 8002c5a:	61d9      	str	r1, [r3, #28]
 8002c5c:	685a      	ldr	r2, [r3, #4]
 8002c5e:	f022 72ff 	bic.w	r2, r2, #33423360	; 0x1fe0000
 8002c62:	f422 328b 	bic.w	r2, r2, #71168	; 0x11600
 8002c66:	f422 72ff 	bic.w	r2, r2, #510	; 0x1fe
 8002c6a:	f022 0201 	bic.w	r2, r2, #1
 8002c6e:	605a      	str	r2, [r3, #4]
 8002c70:	f884 1041 	strb.w	r1, [r4, #65]	; 0x41
 8002c74:	f884 0040 	strb.w	r0, [r4, #64]	; 0x40
 8002c78:	f884 0042 	strb.w	r0, [r4, #66]	; 0x42
 8002c7c:	e74a      	b.n	8002b14 <HAL_I2C_Mem_Write+0x30>
 8002c7e:	8d62      	ldrh	r2, [r4, #42]	; 0x2a
 8002c80:	9000      	str	r0, [sp, #0]
 8002c82:	b292      	uxth	r2, r2
 8002c84:	8522      	strh	r2, [r4, #40]	; 0x28
 8002c86:	f04f 7300 	mov.w	r3, #33554432	; 0x2000000
 8002c8a:	b2d2      	uxtb	r2, r2
 8002c8c:	e7d3      	b.n	8002c36 <HAL_I2C_Mem_Write+0x152>
 8002c8e:	2002      	movs	r0, #2
 8002c90:	e740      	b.n	8002b14 <HAL_I2C_Mem_Write+0x30>
 8002c92:	bf00      	nop
 8002c94:	80002000 	.word	0x80002000

08002c98 <HAL_I2C_Mem_Read>:
 8002c98:	e92d 4ff7 	stmdb	sp!, {r0, r1, r2, r4, r5, r6, r7, r8, r9, sl, fp, lr}
 8002c9c:	4699      	mov	r9, r3
 8002c9e:	f890 3041 	ldrb.w	r3, [r0, #65]	; 0x41
 8002ca2:	f8bd a034 	ldrh.w	sl, [sp, #52]	; 0x34
 8002ca6:	f8dd 8038 	ldr.w	r8, [sp, #56]	; 0x38
 8002caa:	2b20      	cmp	r3, #32
 8002cac:	4604      	mov	r4, r0
 8002cae:	460f      	mov	r7, r1
 8002cb0:	4616      	mov	r6, r2
 8002cb2:	f040 80c9 	bne.w	8002e48 <HAL_I2C_Mem_Read+0x1b0>
 8002cb6:	9b0c      	ldr	r3, [sp, #48]	; 0x30
 8002cb8:	b113      	cbz	r3, 8002cc0 <HAL_I2C_Mem_Read+0x28>
 8002cba:	f1ba 0f00 	cmp.w	sl, #0
 8002cbe:	d106      	bne.n	8002cce <HAL_I2C_Mem_Read+0x36>
 8002cc0:	f44f 7300 	mov.w	r3, #512	; 0x200
 8002cc4:	6463      	str	r3, [r4, #68]	; 0x44
 8002cc6:	2001      	movs	r0, #1
 8002cc8:	b003      	add	sp, #12
 8002cca:	e8bd 8ff0 	ldmia.w	sp!, {r4, r5, r6, r7, r8, r9, sl, fp, pc}
 8002cce:	f890 3040 	ldrb.w	r3, [r0, #64]	; 0x40
 8002cd2:	2b01      	cmp	r3, #1
 8002cd4:	f000 80b8 	beq.w	8002e48 <HAL_I2C_Mem_Read+0x1b0>
 8002cd8:	f04f 0b01 	mov.w	fp, #1
 8002cdc:	f880 b040 	strb.w	fp, [r0, #64]	; 0x40
 8002ce0:	f7ff fb80 	bl	80023e4 <HAL_GetTick>
 8002ce4:	2319      	movs	r3, #25
 8002ce6:	9000      	str	r0, [sp, #0]
 8002ce8:	4605      	mov	r5, r0
 8002cea:	465a      	mov	r2, fp
 8002cec:	f44f 4100 	mov.w	r1, #32768	; 0x8000
 8002cf0:	4620      	mov	r0, r4
 8002cf2:	f7ff fe2c 	bl	800294e <I2C_WaitOnFlagUntilTimeout>
 8002cf6:	4603      	mov	r3, r0
 8002cf8:	2800      	cmp	r0, #0
 8002cfa:	d1e4      	bne.n	8002cc6 <HAL_I2C_Mem_Read+0x2e>
 8002cfc:	2222      	movs	r2, #34	; 0x22
 8002cfe:	f884 2041 	strb.w	r2, [r4, #65]	; 0x41
 8002d02:	2240      	movs	r2, #64	; 0x40
 8002d04:	f884 2042 	strb.w	r2, [r4, #66]	; 0x42
 8002d08:	9a0c      	ldr	r2, [sp, #48]	; 0x30
 8002d0a:	6262      	str	r2, [r4, #36]	; 0x24
 8002d0c:	4a4f      	ldr	r2, [pc, #316]	; (8002e4c <HAL_I2C_Mem_Read+0x1b4>)
 8002d0e:	6460      	str	r0, [r4, #68]	; 0x44
 8002d10:	6360      	str	r0, [r4, #52]	; 0x34
 8002d12:	9200      	str	r2, [sp, #0]
 8002d14:	4639      	mov	r1, r7
 8002d16:	fa5f f289 	uxtb.w	r2, r9
 8002d1a:	4620      	mov	r0, r4
 8002d1c:	f8a4 a02a 	strh.w	sl, [r4, #42]	; 0x2a
 8002d20:	f7ff fd54 	bl	80027cc <I2C_TransferConfig>
 8002d24:	462a      	mov	r2, r5
 8002d26:	4641      	mov	r1, r8
 8002d28:	4620      	mov	r0, r4
 8002d2a:	f7ff fde5 	bl	80028f8 <I2C_WaitOnTXISFlagUntilTimeout>
 8002d2e:	bb20      	cbnz	r0, 8002d7a <HAL_I2C_Mem_Read+0xe2>
 8002d30:	f1b9 0f01 	cmp.w	r9, #1
 8002d34:	6823      	ldr	r3, [r4, #0]
 8002d36:	d116      	bne.n	8002d66 <HAL_I2C_Mem_Read+0xce>
 8002d38:	b2f6      	uxtb	r6, r6
 8002d3a:	629e      	str	r6, [r3, #40]	; 0x28
 8002d3c:	2200      	movs	r2, #0
 8002d3e:	9500      	str	r5, [sp, #0]
 8002d40:	4643      	mov	r3, r8
 8002d42:	2140      	movs	r1, #64	; 0x40
 8002d44:	4620      	mov	r0, r4
 8002d46:	f7ff fe02 	bl	800294e <I2C_WaitOnFlagUntilTimeout>
 8002d4a:	b9b0      	cbnz	r0, 8002d7a <HAL_I2C_Mem_Read+0xe2>
 8002d4c:	8d63      	ldrh	r3, [r4, #42]	; 0x2a
 8002d4e:	b29b      	uxth	r3, r3
 8002d50:	2bff      	cmp	r3, #255	; 0xff
 8002d52:	4b3f      	ldr	r3, [pc, #252]	; (8002e50 <HAL_I2C_Mem_Read+0x1b8>)
 8002d54:	d815      	bhi.n	8002d82 <HAL_I2C_Mem_Read+0xea>
 8002d56:	8d62      	ldrh	r2, [r4, #42]	; 0x2a
 8002d58:	9300      	str	r3, [sp, #0]
 8002d5a:	b292      	uxth	r2, r2
 8002d5c:	8522      	strh	r2, [r4, #40]	; 0x28
 8002d5e:	f04f 7300 	mov.w	r3, #33554432	; 0x2000000
 8002d62:	b2d2      	uxtb	r2, r2
 8002d64:	e012      	b.n	8002d8c <HAL_I2C_Mem_Read+0xf4>
 8002d66:	0a32      	lsrs	r2, r6, #8
 8002d68:	629a      	str	r2, [r3, #40]	; 0x28
 8002d6a:	4641      	mov	r1, r8
 8002d6c:	462a      	mov	r2, r5
 8002d6e:	4620      	mov	r0, r4
 8002d70:	f7ff fdc2 	bl	80028f8 <I2C_WaitOnTXISFlagUntilTimeout>
 8002d74:	b908      	cbnz	r0, 8002d7a <HAL_I2C_Mem_Read+0xe2>
 8002d76:	6823      	ldr	r3, [r4, #0]
 8002d78:	e7de      	b.n	8002d38 <HAL_I2C_Mem_Read+0xa0>
 8002d7a:	2300      	movs	r3, #0
 8002d7c:	f884 3040 	strb.w	r3, [r4, #64]	; 0x40
 8002d80:	e7a1      	b.n	8002cc6 <HAL_I2C_Mem_Read+0x2e>
 8002d82:	22ff      	movs	r2, #255	; 0xff
 8002d84:	9300      	str	r3, [sp, #0]
 8002d86:	8522      	strh	r2, [r4, #40]	; 0x28
 8002d88:	f04f 7380 	mov.w	r3, #16777216	; 0x1000000
 8002d8c:	4639      	mov	r1, r7
 8002d8e:	4620      	mov	r0, r4
 8002d90:	f7ff fd1c 	bl	80027cc <I2C_TransferConfig>
 8002d94:	9500      	str	r5, [sp, #0]
 8002d96:	4643      	mov	r3, r8
 8002d98:	2200      	movs	r2, #0
 8002d9a:	2104      	movs	r1, #4
 8002d9c:	4620      	mov	r0, r4
 8002d9e:	f7ff fdd6 	bl	800294e <I2C_WaitOnFlagUntilTimeout>
 8002da2:	2800      	cmp	r0, #0
 8002da4:	d18f      	bne.n	8002cc6 <HAL_I2C_Mem_Read+0x2e>
 8002da6:	6823      	ldr	r3, [r4, #0]
 8002da8:	6a5a      	ldr	r2, [r3, #36]	; 0x24
 8002daa:	6a63      	ldr	r3, [r4, #36]	; 0x24
 8002dac:	701a      	strb	r2, [r3, #0]
 8002dae:	6a63      	ldr	r3, [r4, #36]	; 0x24
 8002db0:	8d22      	ldrh	r2, [r4, #40]	; 0x28
 8002db2:	3301      	adds	r3, #1
 8002db4:	6263      	str	r3, [r4, #36]	; 0x24
 8002db6:	8d63      	ldrh	r3, [r4, #42]	; 0x2a
 8002db8:	3b01      	subs	r3, #1
 8002dba:	b29b      	uxth	r3, r3
 8002dbc:	8563      	strh	r3, [r4, #42]	; 0x2a
 8002dbe:	8d63      	ldrh	r3, [r4, #42]	; 0x2a
 8002dc0:	3a01      	subs	r2, #1
 8002dc2:	b292      	uxth	r2, r2
 8002dc4:	b29b      	uxth	r3, r3
 8002dc6:	8522      	strh	r2, [r4, #40]	; 0x28
 8002dc8:	b1b3      	cbz	r3, 8002df8 <HAL_I2C_Mem_Read+0x160>
 8002dca:	b9aa      	cbnz	r2, 8002df8 <HAL_I2C_Mem_Read+0x160>
 8002dcc:	9500      	str	r5, [sp, #0]
 8002dce:	4643      	mov	r3, r8
 8002dd0:	2180      	movs	r1, #128	; 0x80
 8002dd2:	4620      	mov	r0, r4
 8002dd4:	f7ff fdbb 	bl	800294e <I2C_WaitOnFlagUntilTimeout>
 8002dd8:	2800      	cmp	r0, #0
 8002dda:	f47f af74 	bne.w	8002cc6 <HAL_I2C_Mem_Read+0x2e>
 8002dde:	8d63      	ldrh	r3, [r4, #42]	; 0x2a
 8002de0:	b29b      	uxth	r3, r3
 8002de2:	2bff      	cmp	r3, #255	; 0xff
 8002de4:	d928      	bls.n	8002e38 <HAL_I2C_Mem_Read+0x1a0>
 8002de6:	22ff      	movs	r2, #255	; 0xff
 8002de8:	8522      	strh	r2, [r4, #40]	; 0x28
 8002dea:	9000      	str	r0, [sp, #0]
 8002dec:	f04f 7380 	mov.w	r3, #16777216	; 0x1000000
 8002df0:	4639      	mov	r1, r7
 8002df2:	4620      	mov	r0, r4
 8002df4:	f7ff fcea 	bl	80027cc <I2C_TransferConfig>
 8002df8:	8d63      	ldrh	r3, [r4, #42]	; 0x2a
 8002dfa:	b29b      	uxth	r3, r3
 8002dfc:	2b00      	cmp	r3, #0
 8002dfe:	d1c9      	bne.n	8002d94 <HAL_I2C_Mem_Read+0xfc>
 8002e00:	462a      	mov	r2, r5
 8002e02:	4641      	mov	r1, r8
 8002e04:	4620      	mov	r0, r4
 8002e06:	f7ff fdd5 	bl	80029b4 <I2C_WaitOnSTOPFlagUntilTimeout>
 8002e0a:	2800      	cmp	r0, #0
 8002e0c:	f47f af5b 	bne.w	8002cc6 <HAL_I2C_Mem_Read+0x2e>
 8002e10:	6823      	ldr	r3, [r4, #0]
 8002e12:	2120      	movs	r1, #32
 8002e14:	61d9      	str	r1, [r3, #28]
 8002e16:	685a      	ldr	r2, [r3, #4]
 8002e18:	f022 72ff 	bic.w	r2, r2, #33423360	; 0x1fe0000
 8002e1c:	f422 328b 	bic.w	r2, r2, #71168	; 0x11600
 8002e20:	f422 72ff 	bic.w	r2, r2, #510	; 0x1fe
 8002e24:	f022 0201 	bic.w	r2, r2, #1
 8002e28:	605a      	str	r2, [r3, #4]
 8002e2a:	f884 1041 	strb.w	r1, [r4, #65]	; 0x41
 8002e2e:	f884 0040 	strb.w	r0, [r4, #64]	; 0x40
 8002e32:	f884 0042 	strb.w	r0, [r4, #66]	; 0x42
 8002e36:	e747      	b.n	8002cc8 <HAL_I2C_Mem_Read+0x30>
 8002e38:	8d62      	ldrh	r2, [r4, #42]	; 0x2a
 8002e3a:	9000      	str	r0, [sp, #0]
 8002e3c:	b292      	uxth	r2, r2
 8002e3e:	8522      	strh	r2, [r4, #40]	; 0x28
 8002e40:	f04f 7300 	mov.w	r3, #33554432	; 0x2000000
 8002e44:	b2d2      	uxtb	r2, r2
 8002e46:	e7d3      	b.n	8002df0 <HAL_I2C_Mem_Read+0x158>
 8002e48:	2002      	movs	r0, #2
 8002e4a:	e73d      	b.n	8002cc8 <HAL_I2C_Mem_Read+0x30>
 8002e4c:	80002000 	.word	0x80002000
 8002e50:	80002400 	.word	0x80002400

08002e54 <HAL_I2CEx_ConfigAnalogFilter>:
 8002e54:	b510      	push	{r4, lr}
 8002e56:	f890 3041 	ldrb.w	r3, [r0, #65]	; 0x41
 8002e5a:	2b20      	cmp	r3, #32
 8002e5c:	b2dc      	uxtb	r4, r3
 8002e5e:	d11d      	bne.n	8002e9c <HAL_I2CEx_ConfigAnalogFilter+0x48>
 8002e60:	f890 3040 	ldrb.w	r3, [r0, #64]	; 0x40
 8002e64:	2b01      	cmp	r3, #1
 8002e66:	d019      	beq.n	8002e9c <HAL_I2CEx_ConfigAnalogFilter+0x48>
 8002e68:	2324      	movs	r3, #36	; 0x24
 8002e6a:	f880 3041 	strb.w	r3, [r0, #65]	; 0x41
 8002e6e:	6803      	ldr	r3, [r0, #0]
 8002e70:	681a      	ldr	r2, [r3, #0]
 8002e72:	f022 0201 	bic.w	r2, r2, #1
 8002e76:	601a      	str	r2, [r3, #0]
 8002e78:	681a      	ldr	r2, [r3, #0]
 8002e7a:	f422 5280 	bic.w	r2, r2, #4096	; 0x1000
 8002e7e:	601a      	str	r2, [r3, #0]
 8002e80:	681a      	ldr	r2, [r3, #0]
 8002e82:	4311      	orrs	r1, r2
 8002e84:	6019      	str	r1, [r3, #0]
 8002e86:	681a      	ldr	r2, [r3, #0]
 8002e88:	f042 0201 	orr.w	r2, r2, #1
 8002e8c:	601a      	str	r2, [r3, #0]
 8002e8e:	2300      	movs	r3, #0
 8002e90:	f880 4041 	strb.w	r4, [r0, #65]	; 0x41
 8002e94:	f880 3040 	strb.w	r3, [r0, #64]	; 0x40
 8002e98:	4618      	mov	r0, r3
 8002e9a:	bd10      	pop	{r4, pc}
 8002e9c:	2002      	movs	r0, #2
 8002e9e:	e7fc      	b.n	8002e9a <HAL_I2CEx_ConfigAnalogFilter+0x46>

08002ea0 <HAL_I2CEx_ConfigDigitalFilter>:
 8002ea0:	b510      	push	{r4, lr}
 8002ea2:	f890 3041 	ldrb.w	r3, [r0, #65]	; 0x41
 8002ea6:	2b20      	cmp	r3, #32
 8002ea8:	b2dc      	uxtb	r4, r3
 8002eaa:	d11c      	bne.n	8002ee6 <HAL_I2CEx_ConfigDigitalFilter+0x46>
 8002eac:	f890 3040 	ldrb.w	r3, [r0, #64]	; 0x40
 8002eb0:	2b01      	cmp	r3, #1
 8002eb2:	d018      	beq.n	8002ee6 <HAL_I2CEx_ConfigDigitalFilter+0x46>
 8002eb4:	2324      	movs	r3, #36	; 0x24
 8002eb6:	f880 3041 	strb.w	r3, [r0, #65]	; 0x41
 8002eba:	6803      	ldr	r3, [r0, #0]
 8002ebc:	681a      	ldr	r2, [r3, #0]
 8002ebe:	f022 0201 	bic.w	r2, r2, #1
 8002ec2:	601a      	str	r2, [r3, #0]
 8002ec4:	681a      	ldr	r2, [r3, #0]
 8002ec6:	f422 6270 	bic.w	r2, r2, #3840	; 0xf00
 8002eca:	ea42 2101 	orr.w	r1, r2, r1, lsl #8
 8002ece:	6019      	str	r1, [r3, #0]
 8002ed0:	681a      	ldr	r2, [r3, #0]
 8002ed2:	f042 0201 	orr.w	r2, r2, #1
 8002ed6:	601a      	str	r2, [r3, #0]
 8002ed8:	2300      	movs	r3, #0
 8002eda:	f880 4041 	strb.w	r4, [r0, #65]	; 0x41
 8002ede:	f880 3040 	strb.w	r3, [r0, #64]	; 0x40
 8002ee2:	4618      	mov	r0, r3
 8002ee4:	bd10      	pop	{r4, pc}
 8002ee6:	2002      	movs	r0, #2
 8002ee8:	e7fc      	b.n	8002ee4 <HAL_I2CEx_ConfigDigitalFilter+0x44>
	...

08002eec <OSPI_ConfigCmd>:
 8002eec:	e92d 43f0 	stmdb	sp!, {r4, r5, r6, r7, r8, r9, lr}
 8002ef0:	6804      	ldr	r4, [r0, #0]
 8002ef2:	6823      	ldr	r3, [r4, #0]
 8002ef4:	f023 5340 	bic.w	r3, r3, #805306368	; 0x30000000
 8002ef8:	6023      	str	r3, [r4, #0]
 8002efa:	6883      	ldr	r3, [r0, #8]
 8002efc:	b92b      	cbnz	r3, 8002f0a <OSPI_ConfigCmd+0x1e>
 8002efe:	6823      	ldr	r3, [r4, #0]
 8002f00:	684a      	ldr	r2, [r1, #4]
 8002f02:	f023 0380 	bic.w	r3, r3, #128	; 0x80
 8002f06:	4313      	orrs	r3, r2
 8002f08:	6023      	str	r3, [r4, #0]
 8002f0a:	680b      	ldr	r3, [r1, #0]
 8002f0c:	2b02      	cmp	r3, #2
 8002f0e:	e9d1 3712 	ldrd	r3, r7, [r1, #72]	; 0x48
 8002f12:	bf0c      	ite	eq
 8002f14:	f504 72c0 	addeq.w	r2, r4, #384	; 0x180
 8002f18:	f504 7280 	addne.w	r2, r4, #256	; 0x100
 8002f1c:	ea43 0307 	orr.w	r3, r3, r7
 8002f20:	6013      	str	r3, [r2, #0]
 8002f22:	6acb      	ldr	r3, [r1, #44]	; 0x2c
 8002f24:	bf03      	ittte	eq
 8002f26:	f504 76c4 	addeq.w	r6, r4, #392	; 0x188
 8002f2a:	f504 75c8 	addeq.w	r5, r4, #400	; 0x190
 8002f2e:	f504 7cd0 	addeq.w	ip, r4, #416	; 0x1a0
 8002f32:	f504 7684 	addne.w	r6, r4, #264	; 0x108
 8002f36:	bf1c      	itt	ne
 8002f38:	f504 7588 	addne.w	r5, r4, #272	; 0x110
 8002f3c:	f504 7c90 	addne.w	ip, r4, #288	; 0x120
 8002f40:	b16b      	cbz	r3, 8002f5e <OSPI_ConfigCmd+0x72>
 8002f42:	6a8b      	ldr	r3, [r1, #40]	; 0x28
 8002f44:	f8cc 3000 	str.w	r3, [ip]
 8002f48:	6b4f      	ldr	r7, [r1, #52]	; 0x34
 8002f4a:	6acb      	ldr	r3, [r1, #44]	; 0x2c
 8002f4c:	f8d2 c000 	ldr.w	ip, [r2]
 8002f50:	433b      	orrs	r3, r7
 8002f52:	6b0f      	ldr	r7, [r1, #48]	; 0x30
 8002f54:	433b      	orrs	r3, r7
 8002f56:	f42c 177c 	bic.w	r7, ip, #4128768	; 0x3f0000
 8002f5a:	433b      	orrs	r3, r7
 8002f5c:	6013      	str	r3, [r2, #0]
 8002f5e:	6833      	ldr	r3, [r6, #0]
 8002f60:	6c4f      	ldr	r7, [r1, #68]	; 0x44
 8002f62:	f023 031f 	bic.w	r3, r3, #31
 8002f66:	433b      	orrs	r3, r7
 8002f68:	6033      	str	r3, [r6, #0]
 8002f6a:	f8d1 e038 	ldr.w	lr, [r1, #56]	; 0x38
 8002f6e:	f1be 0f00 	cmp.w	lr, #0
 8002f72:	d004      	beq.n	8002f7e <OSPI_ConfigCmd+0x92>
 8002f74:	680b      	ldr	r3, [r1, #0]
 8002f76:	b913      	cbnz	r3, 8002f7e <OSPI_ConfigCmd+0x92>
 8002f78:	6bcb      	ldr	r3, [r1, #60]	; 0x3c
 8002f7a:	3b01      	subs	r3, #1
 8002f7c:	6423      	str	r3, [r4, #64]	; 0x40
 8002f7e:	68cb      	ldr	r3, [r1, #12]
 8002f80:	f8d1 901c 	ldr.w	r9, [r1, #28]
 8002f84:	2b00      	cmp	r3, #0
 8002f86:	d066      	beq.n	8003056 <OSPI_ConfigCmd+0x16a>
 8002f88:	e9d1 c804 	ldrd	ip, r8, [r1, #16]
 8002f8c:	f1b9 0f00 	cmp.w	r9, #0
 8002f90:	d036      	beq.n	8003000 <OSPI_ConfigCmd+0x114>
 8002f92:	e9d1 6708 	ldrd	r6, r7, [r1, #32]
 8002f96:	f1be 0f00 	cmp.w	lr, #0
 8002f9a:	d015      	beq.n	8002fc8 <OSPI_ConfigCmd+0xdc>
 8002f9c:	ea4e 0303 	orr.w	r3, lr, r3
 8002fa0:	ea43 0309 	orr.w	r3, r3, r9
 8002fa4:	ea43 0308 	orr.w	r3, r3, r8
 8002fa8:	ea43 030c 	orr.w	r3, r3, ip
 8002fac:	433b      	orrs	r3, r7
 8002fae:	4333      	orrs	r3, r6
 8002fb0:	6c0e      	ldr	r6, [r1, #64]	; 0x40
 8002fb2:	6810      	ldr	r0, [r2, #0]
 8002fb4:	4333      	orrs	r3, r6
 8002fb6:	4e39      	ldr	r6, [pc, #228]	; (800309c <OSPI_ConfigCmd+0x1b0>)
 8002fb8:	4006      	ands	r6, r0
 8002fba:	4333      	orrs	r3, r6
 8002fbc:	6013      	str	r3, [r2, #0]
 8002fbe:	688b      	ldr	r3, [r1, #8]
 8002fc0:	602b      	str	r3, [r5, #0]
 8002fc2:	698b      	ldr	r3, [r1, #24]
 8002fc4:	64a3      	str	r3, [r4, #72]	; 0x48
 8002fc6:	e02f      	b.n	8003028 <OSPI_ConfigCmd+0x13c>
 8002fc8:	ea43 0309 	orr.w	r3, r3, r9
 8002fcc:	f8d2 e000 	ldr.w	lr, [r2]
 8002fd0:	ea43 0308 	orr.w	r3, r3, r8
 8002fd4:	ea43 030c 	orr.w	r3, r3, ip
 8002fd8:	433b      	orrs	r3, r7
 8002fda:	f42e 5e7c 	bic.w	lr, lr, #16128	; 0x3f00
 8002fde:	4333      	orrs	r3, r6
 8002fe0:	f02e 0e3f 	bic.w	lr, lr, #63	; 0x3f
 8002fe4:	ea43 030e 	orr.w	r3, r3, lr
 8002fe8:	6013      	str	r3, [r2, #0]
 8002fea:	6a83      	ldr	r3, [r0, #40]	; 0x28
 8002fec:	f1b3 5f80 	cmp.w	r3, #268435456	; 0x10000000
 8002ff0:	d1e5      	bne.n	8002fbe <OSPI_ConfigCmd+0xd2>
 8002ff2:	694b      	ldr	r3, [r1, #20]
 8002ff4:	2b08      	cmp	r3, #8
 8002ff6:	d1e2      	bne.n	8002fbe <OSPI_ConfigCmd+0xd2>
 8002ff8:	6813      	ldr	r3, [r2, #0]
 8002ffa:	f043 6300 	orr.w	r3, r3, #134217728	; 0x8000000
 8002ffe:	e7dd      	b.n	8002fbc <OSPI_ConfigCmd+0xd0>
 8003000:	f1be 0f00 	cmp.w	lr, #0
 8003004:	d013      	beq.n	800302e <OSPI_ConfigCmd+0x142>
 8003006:	6810      	ldr	r0, [r2, #0]
 8003008:	6c0c      	ldr	r4, [r1, #64]	; 0x40
 800300a:	ea4e 0303 	orr.w	r3, lr, r3
 800300e:	ea43 0308 	orr.w	r3, r3, r8
 8003012:	ea43 030c 	orr.w	r3, r3, ip
 8003016:	f020 6070 	bic.w	r0, r0, #251658240	; 0xf000000
 800301a:	4323      	orrs	r3, r4
 800301c:	f020 003f 	bic.w	r0, r0, #63	; 0x3f
 8003020:	4303      	orrs	r3, r0
 8003022:	6013      	str	r3, [r2, #0]
 8003024:	688b      	ldr	r3, [r1, #8]
 8003026:	602b      	str	r3, [r5, #0]
 8003028:	2000      	movs	r0, #0
 800302a:	e8bd 83f0 	ldmia.w	sp!, {r4, r5, r6, r7, r8, r9, pc}
 800302e:	6814      	ldr	r4, [r2, #0]
 8003030:	ea43 0308 	orr.w	r3, r3, r8
 8003034:	ea43 030c 	orr.w	r3, r3, ip
 8003038:	f024 043f 	bic.w	r4, r4, #63	; 0x3f
 800303c:	4323      	orrs	r3, r4
 800303e:	6013      	str	r3, [r2, #0]
 8003040:	6a83      	ldr	r3, [r0, #40]	; 0x28
 8003042:	f1b3 5f80 	cmp.w	r3, #268435456	; 0x10000000
 8003046:	d1ed      	bne.n	8003024 <OSPI_ConfigCmd+0x138>
 8003048:	694b      	ldr	r3, [r1, #20]
 800304a:	2b08      	cmp	r3, #8
 800304c:	d1ea      	bne.n	8003024 <OSPI_ConfigCmd+0x138>
 800304e:	6813      	ldr	r3, [r2, #0]
 8003050:	f043 6300 	orr.w	r3, r3, #134217728	; 0x8000000
 8003054:	e7e5      	b.n	8003022 <OSPI_ConfigCmd+0x136>
 8003056:	f1b9 0f00 	cmp.w	r9, #0
 800305a:	d01b      	beq.n	8003094 <OSPI_ConfigCmd+0x1a8>
 800305c:	e9d1 6008 	ldrd	r6, r0, [r1, #32]
 8003060:	f1be 0f00 	cmp.w	lr, #0
 8003064:	d00d      	beq.n	8003082 <OSPI_ConfigCmd+0x196>
 8003066:	ea4e 0309 	orr.w	r3, lr, r9
 800306a:	6815      	ldr	r5, [r2, #0]
 800306c:	4303      	orrs	r3, r0
 800306e:	6c08      	ldr	r0, [r1, #64]	; 0x40
 8003070:	4333      	orrs	r3, r6
 8003072:	4303      	orrs	r3, r0
 8003074:	f025 6070 	bic.w	r0, r5, #251658240	; 0xf000000
 8003078:	f420 507c 	bic.w	r0, r0, #16128	; 0x3f00
 800307c:	4303      	orrs	r3, r0
 800307e:	6013      	str	r3, [r2, #0]
 8003080:	e79f      	b.n	8002fc2 <OSPI_ConfigCmd+0xd6>
 8003082:	6813      	ldr	r3, [r2, #0]
 8003084:	ea40 0009 	orr.w	r0, r0, r9
 8003088:	4330      	orrs	r0, r6
 800308a:	f423 537c 	bic.w	r3, r3, #16128	; 0x3f00
 800308e:	4318      	orrs	r0, r3
 8003090:	6010      	str	r0, [r2, #0]
 8003092:	e796      	b.n	8002fc2 <OSPI_ConfigCmd+0xd6>
 8003094:	2308      	movs	r3, #8
 8003096:	6483      	str	r3, [r0, #72]	; 0x48
 8003098:	2001      	movs	r0, #1
 800309a:	e7c6      	b.n	800302a <OSPI_ConfigCmd+0x13e>
 800309c:	f0ffc0c0 	.word	0xf0ffc0c0

080030a0 <OSPI_WaitFlagStateUntilTimeout>:
 80030a0:	e92d 41f0 	stmdb	sp!, {r4, r5, r6, r7, r8, lr}
 80030a4:	f8dd 8018 	ldr.w	r8, [sp, #24]
 80030a8:	4604      	mov	r4, r0
 80030aa:	460e      	mov	r6, r1
 80030ac:	4615      	mov	r5, r2
 80030ae:	461f      	mov	r7, r3
 80030b0:	6822      	ldr	r2, [r4, #0]
 80030b2:	6a13      	ldr	r3, [r2, #32]
 80030b4:	4233      	tst	r3, r6
 80030b6:	bf14      	ite	ne
 80030b8:	2301      	movne	r3, #1
 80030ba:	2300      	moveq	r3, #0
 80030bc:	42ab      	cmp	r3, r5
 80030be:	d101      	bne.n	80030c4 <OSPI_WaitFlagStateUntilTimeout+0x24>
 80030c0:	2000      	movs	r0, #0
 80030c2:	e012      	b.n	80030ea <OSPI_WaitFlagStateUntilTimeout+0x4a>
 80030c4:	f1b8 3fff 	cmp.w	r8, #4294967295
 80030c8:	d0f3      	beq.n	80030b2 <OSPI_WaitFlagStateUntilTimeout+0x12>
 80030ca:	f7ff f98b 	bl	80023e4 <HAL_GetTick>
 80030ce:	1bc0      	subs	r0, r0, r7
 80030d0:	4540      	cmp	r0, r8
 80030d2:	d802      	bhi.n	80030da <OSPI_WaitFlagStateUntilTimeout+0x3a>
 80030d4:	f1b8 0f00 	cmp.w	r8, #0
 80030d8:	d1ea      	bne.n	80030b0 <OSPI_WaitFlagStateUntilTimeout+0x10>
 80030da:	f44f 7300 	mov.w	r3, #512	; 0x200
 80030de:	6463      	str	r3, [r4, #68]	; 0x44
 80030e0:	6ca3      	ldr	r3, [r4, #72]	; 0x48
 80030e2:	f043 0301 	orr.w	r3, r3, #1
 80030e6:	64a3      	str	r3, [r4, #72]	; 0x48
 80030e8:	2001      	movs	r0, #1
 80030ea:	e8bd 81f0 	ldmia.w	sp!, {r4, r5, r6, r7, r8, pc}
	...

080030f0 <HAL_OSPI_Init>:
 80030f0:	b5f0      	push	{r4, r5, r6, r7, lr}
 80030f2:	b085      	sub	sp, #20
 80030f4:	4604      	mov	r4, r0
 80030f6:	f7ff f975 	bl	80023e4 <HAL_GetTick>
 80030fa:	4603      	mov	r3, r0
 80030fc:	2c00      	cmp	r4, #0
 80030fe:	d05d      	beq.n	80031bc <HAL_OSPI_Init+0xcc>
 8003100:	2000      	movs	r0, #0
 8003102:	64a0      	str	r0, [r4, #72]	; 0x48
 8003104:	6c66      	ldr	r6, [r4, #68]	; 0x44
 8003106:	2e00      	cmp	r6, #0
 8003108:	d156      	bne.n	80031b8 <HAL_OSPI_Init+0xc8>
 800310a:	4620      	mov	r0, r4
 800310c:	9303      	str	r3, [sp, #12]
 800310e:	f7fe fd6b 	bl	8001be8 <HAL_OSPI_MspInit>
 8003112:	6b20      	ldr	r0, [r4, #48]	; 0x30
 8003114:	68e1      	ldr	r1, [r4, #12]
 8003116:	6825      	ldr	r5, [r4, #0]
 8003118:	9b03      	ldr	r3, [sp, #12]
 800311a:	68af      	ldr	r7, [r5, #8]
 800311c:	4301      	orrs	r1, r0
 800311e:	69e0      	ldr	r0, [r4, #28]
 8003120:	4301      	orrs	r1, r0
 8003122:	4827      	ldr	r0, [pc, #156]	; (80031c0 <HAL_OSPI_Init+0xd0>)
 8003124:	4038      	ands	r0, r7
 8003126:	4301      	orrs	r1, r0
 8003128:	6920      	ldr	r0, [r4, #16]
 800312a:	3801      	subs	r0, #1
 800312c:	ea41 4100 	orr.w	r1, r1, r0, lsl #16
 8003130:	6960      	ldr	r0, [r4, #20]
 8003132:	3801      	subs	r0, #1
 8003134:	f241 3288 	movw	r2, #5000	; 0x1388
 8003138:	ea41 2100 	orr.w	r1, r1, r0, lsl #8
 800313c:	64e2      	str	r2, [r4, #76]	; 0x4c
 800313e:	60a9      	str	r1, [r5, #8]
 8003140:	6ae1      	ldr	r1, [r4, #44]	; 0x2c
 8003142:	6860      	ldr	r0, [r4, #4]
 8003144:	0409      	lsls	r1, r1, #16
 8003146:	6129      	str	r1, [r5, #16]
 8003148:	6829      	ldr	r1, [r5, #0]
 800314a:	3801      	subs	r0, #1
 800314c:	f421 51f8 	bic.w	r1, r1, #7936	; 0x1f00
 8003150:	ea41 2100 	orr.w	r1, r1, r0, lsl #8
 8003154:	6029      	str	r1, [r5, #0]
 8003156:	4620      	mov	r0, r4
 8003158:	9200      	str	r2, [sp, #0]
 800315a:	2120      	movs	r1, #32
 800315c:	4632      	mov	r2, r6
 800315e:	f7ff ff9f 	bl	80030a0 <OSPI_WaitFlagStateUntilTimeout>
 8003162:	bb48      	cbnz	r0, 80031b8 <HAL_OSPI_Init+0xc8>
 8003164:	6823      	ldr	r3, [r4, #0]
 8003166:	6a22      	ldr	r2, [r4, #32]
 8003168:	68d9      	ldr	r1, [r3, #12]
 800316a:	3a01      	subs	r2, #1
 800316c:	f021 01ff 	bic.w	r1, r1, #255	; 0xff
 8003170:	430a      	orrs	r2, r1
 8003172:	60da      	str	r2, [r3, #12]
 8003174:	681a      	ldr	r2, [r3, #0]
 8003176:	68a1      	ldr	r1, [r4, #8]
 8003178:	f022 0240 	bic.w	r2, r2, #64	; 0x40
 800317c:	430a      	orrs	r2, r1
 800317e:	601a      	str	r2, [r3, #0]
 8003180:	e9d4 2509 	ldrd	r2, r5, [r4, #36]	; 0x24
 8003184:	f8d3 1108 	ldr.w	r1, [r3, #264]	; 0x108
 8003188:	432a      	orrs	r2, r5
 800318a:	f021 41a0 	bic.w	r1, r1, #1342177280	; 0x50000000
 800318e:	430a      	orrs	r2, r1
 8003190:	f8c3 2108 	str.w	r2, [r3, #264]	; 0x108
 8003194:	681a      	ldr	r2, [r3, #0]
 8003196:	f042 0201 	orr.w	r2, r2, #1
 800319a:	601a      	str	r2, [r3, #0]
 800319c:	69a2      	ldr	r2, [r4, #24]
 800319e:	2a02      	cmp	r2, #2
 80031a0:	bf02      	ittt	eq
 80031a2:	689a      	ldreq	r2, [r3, #8]
 80031a4:	f042 0202 	orreq.w	r2, r2, #2
 80031a8:	609a      	streq	r2, [r3, #8]
 80031aa:	68e3      	ldr	r3, [r4, #12]
 80031ac:	f1b3 6f80 	cmp.w	r3, #67108864	; 0x4000000
 80031b0:	bf0c      	ite	eq
 80031b2:	2301      	moveq	r3, #1
 80031b4:	2302      	movne	r3, #2
 80031b6:	6463      	str	r3, [r4, #68]	; 0x44
 80031b8:	b005      	add	sp, #20
 80031ba:	bdf0      	pop	{r4, r5, r6, r7, pc}
 80031bc:	2001      	movs	r0, #1
 80031be:	e7fb      	b.n	80031b8 <HAL_OSPI_Init+0xc8>
 80031c0:	f8e0f8f4 	.word	0xf8e0f8f4

080031c4 <HAL_OSPI_DeInit>:
 80031c4:	b510      	push	{r4, lr}
 80031c6:	4604      	mov	r4, r0
 80031c8:	b168      	cbz	r0, 80031e6 <HAL_OSPI_DeInit+0x22>
 80031ca:	6803      	ldr	r3, [r0, #0]
 80031cc:	681a      	ldr	r2, [r3, #0]
 80031ce:	f022 0201 	bic.w	r2, r2, #1
 80031d2:	601a      	str	r2, [r3, #0]
 80031d4:	689a      	ldr	r2, [r3, #8]
 80031d6:	f022 0202 	bic.w	r2, r2, #2
 80031da:	609a      	str	r2, [r3, #8]
 80031dc:	f7fe fd32 	bl	8001c44 <HAL_OSPI_MspDeInit>
 80031e0:	2000      	movs	r0, #0
 80031e2:	6460      	str	r0, [r4, #68]	; 0x44
 80031e4:	bd10      	pop	{r4, pc}
 80031e6:	2001      	movs	r0, #1
 80031e8:	e7fc      	b.n	80031e4 <HAL_OSPI_DeInit+0x20>

080031ea <HAL_OSPI_Command>:
 80031ea:	b57f      	push	{r0, r1, r2, r3, r4, r5, r6, lr}
 80031ec:	4604      	mov	r4, r0
 80031ee:	4616      	mov	r6, r2
 80031f0:	460d      	mov	r5, r1
 80031f2:	f7ff f8f7 	bl	80023e4 <HAL_GetTick>
 80031f6:	6c62      	ldr	r2, [r4, #68]	; 0x44
 80031f8:	2a02      	cmp	r2, #2
 80031fa:	4603      	mov	r3, r0
 80031fc:	d107      	bne.n	800320e <HAL_OSPI_Command+0x24>
 80031fe:	68e2      	ldr	r2, [r4, #12]
 8003200:	f1b2 6f80 	cmp.w	r2, #67108864	; 0x4000000
 8003204:	d108      	bne.n	8003218 <HAL_OSPI_Command+0x2e>
 8003206:	2310      	movs	r3, #16
 8003208:	64a3      	str	r3, [r4, #72]	; 0x48
 800320a:	2001      	movs	r0, #1
 800320c:	e01e      	b.n	800324c <HAL_OSPI_Command+0x62>
 800320e:	2a14      	cmp	r2, #20
 8003210:	d11e      	bne.n	8003250 <HAL_OSPI_Command+0x66>
 8003212:	682a      	ldr	r2, [r5, #0]
 8003214:	2a02      	cmp	r2, #2
 8003216:	d1f6      	bne.n	8003206 <HAL_OSPI_Command+0x1c>
 8003218:	9600      	str	r6, [sp, #0]
 800321a:	2200      	movs	r2, #0
 800321c:	2120      	movs	r1, #32
 800321e:	4620      	mov	r0, r4
 8003220:	9303      	str	r3, [sp, #12]
 8003222:	f7ff ff3d 	bl	80030a0 <OSPI_WaitFlagStateUntilTimeout>
 8003226:	b988      	cbnz	r0, 800324c <HAL_OSPI_Command+0x62>
 8003228:	64a0      	str	r0, [r4, #72]	; 0x48
 800322a:	4629      	mov	r1, r5
 800322c:	4620      	mov	r0, r4
 800322e:	f7ff fe5d 	bl	8002eec <OSPI_ConfigCmd>
 8003232:	b958      	cbnz	r0, 800324c <HAL_OSPI_Command+0x62>
 8003234:	6baa      	ldr	r2, [r5, #56]	; 0x38
 8003236:	9b03      	ldr	r3, [sp, #12]
 8003238:	b97a      	cbnz	r2, 800325a <HAL_OSPI_Command+0x70>
 800323a:	2201      	movs	r2, #1
 800323c:	9600      	str	r6, [sp, #0]
 800323e:	2102      	movs	r1, #2
 8003240:	4620      	mov	r0, r4
 8003242:	f7ff ff2d 	bl	80030a0 <OSPI_WaitFlagStateUntilTimeout>
 8003246:	6823      	ldr	r3, [r4, #0]
 8003248:	2202      	movs	r2, #2
 800324a:	625a      	str	r2, [r3, #36]	; 0x24
 800324c:	b004      	add	sp, #16
 800324e:	bd70      	pop	{r4, r5, r6, pc}
 8003250:	2a24      	cmp	r2, #36	; 0x24
 8003252:	d1d8      	bne.n	8003206 <HAL_OSPI_Command+0x1c>
 8003254:	682a      	ldr	r2, [r5, #0]
 8003256:	2a01      	cmp	r2, #1
 8003258:	e7dd      	b.n	8003216 <HAL_OSPI_Command+0x2c>
 800325a:	682b      	ldr	r3, [r5, #0]
 800325c:	b90b      	cbnz	r3, 8003262 <HAL_OSPI_Command+0x78>
 800325e:	2304      	movs	r3, #4
 8003260:	e005      	b.n	800326e <HAL_OSPI_Command+0x84>
 8003262:	2b01      	cmp	r3, #1
 8003264:	6c63      	ldr	r3, [r4, #68]	; 0x44
 8003266:	d104      	bne.n	8003272 <HAL_OSPI_Command+0x88>
 8003268:	2b24      	cmp	r3, #36	; 0x24
 800326a:	d0f8      	beq.n	800325e <HAL_OSPI_Command+0x74>
 800326c:	2314      	movs	r3, #20
 800326e:	6463      	str	r3, [r4, #68]	; 0x44
 8003270:	e7ec      	b.n	800324c <HAL_OSPI_Command+0x62>
 8003272:	2b14      	cmp	r3, #20
 8003274:	d0f3      	beq.n	800325e <HAL_OSPI_Command+0x74>
 8003276:	2324      	movs	r3, #36	; 0x24
 8003278:	e7f9      	b.n	800326e <HAL_OSPI_Command+0x84>

0800327a <HAL_OSPI_Transmit>:
 800327a:	b5f0      	push	{r4, r5, r6, r7, lr}
 800327c:	b085      	sub	sp, #20
 800327e:	4604      	mov	r4, r0
 8003280:	460f      	mov	r7, r1
 8003282:	4615      	mov	r5, r2
 8003284:	f7ff f8ae 	bl	80023e4 <HAL_GetTick>
 8003288:	6826      	ldr	r6, [r4, #0]
 800328a:	4603      	mov	r3, r0
 800328c:	b91f      	cbnz	r7, 8003296 <HAL_OSPI_Transmit+0x1c>
 800328e:	2308      	movs	r3, #8
 8003290:	64a3      	str	r3, [r4, #72]	; 0x48
 8003292:	2001      	movs	r0, #1
 8003294:	e02d      	b.n	80032f2 <HAL_OSPI_Transmit+0x78>
 8003296:	6c62      	ldr	r2, [r4, #68]	; 0x44
 8003298:	2a04      	cmp	r2, #4
 800329a:	d12c      	bne.n	80032f6 <HAL_OSPI_Transmit+0x7c>
 800329c:	6c32      	ldr	r2, [r6, #64]	; 0x40
 800329e:	6367      	str	r7, [r4, #52]	; 0x34
 80032a0:	3201      	adds	r2, #1
 80032a2:	63e2      	str	r2, [r4, #60]	; 0x3c
 80032a4:	6be2      	ldr	r2, [r4, #60]	; 0x3c
 80032a6:	63a2      	str	r2, [r4, #56]	; 0x38
 80032a8:	6832      	ldr	r2, [r6, #0]
 80032aa:	f022 5240 	bic.w	r2, r2, #805306368	; 0x30000000
 80032ae:	6032      	str	r2, [r6, #0]
 80032b0:	9500      	str	r5, [sp, #0]
 80032b2:	2201      	movs	r2, #1
 80032b4:	2104      	movs	r1, #4
 80032b6:	4620      	mov	r0, r4
 80032b8:	9303      	str	r3, [sp, #12]
 80032ba:	f7ff fef1 	bl	80030a0 <OSPI_WaitFlagStateUntilTimeout>
 80032be:	b9c0      	cbnz	r0, 80032f2 <HAL_OSPI_Transmit+0x78>
 80032c0:	6b62      	ldr	r2, [r4, #52]	; 0x34
 80032c2:	9b03      	ldr	r3, [sp, #12]
 80032c4:	7812      	ldrb	r2, [r2, #0]
 80032c6:	f886 2050 	strb.w	r2, [r6, #80]	; 0x50
 80032ca:	6b62      	ldr	r2, [r4, #52]	; 0x34
 80032cc:	3201      	adds	r2, #1
 80032ce:	6362      	str	r2, [r4, #52]	; 0x34
 80032d0:	6be2      	ldr	r2, [r4, #60]	; 0x3c
 80032d2:	3a01      	subs	r2, #1
 80032d4:	63e2      	str	r2, [r4, #60]	; 0x3c
 80032d6:	6be2      	ldr	r2, [r4, #60]	; 0x3c
 80032d8:	2a00      	cmp	r2, #0
 80032da:	d1e9      	bne.n	80032b0 <HAL_OSPI_Transmit+0x36>
 80032dc:	9500      	str	r5, [sp, #0]
 80032de:	2201      	movs	r2, #1
 80032e0:	2102      	movs	r1, #2
 80032e2:	4620      	mov	r0, r4
 80032e4:	f7ff fedc 	bl	80030a0 <OSPI_WaitFlagStateUntilTimeout>
 80032e8:	b918      	cbnz	r0, 80032f2 <HAL_OSPI_Transmit+0x78>
 80032ea:	6822      	ldr	r2, [r4, #0]
 80032ec:	2302      	movs	r3, #2
 80032ee:	6253      	str	r3, [r2, #36]	; 0x24
 80032f0:	6463      	str	r3, [r4, #68]	; 0x44
 80032f2:	b005      	add	sp, #20
 80032f4:	bdf0      	pop	{r4, r5, r6, r7, pc}
 80032f6:	2310      	movs	r3, #16
 80032f8:	e7ca      	b.n	8003290 <HAL_OSPI_Transmit+0x16>

080032fa <HAL_OSPI_Receive>:
 80032fa:	b5f0      	push	{r4, r5, r6, r7, lr}
 80032fc:	4604      	mov	r4, r0
 80032fe:	b085      	sub	sp, #20
 8003300:	460f      	mov	r7, r1
 8003302:	4616      	mov	r6, r2
 8003304:	f7ff f86e 	bl	80023e4 <HAL_GetTick>
 8003308:	6825      	ldr	r5, [r4, #0]
 800330a:	4603      	mov	r3, r0
 800330c:	6ca8      	ldr	r0, [r5, #72]	; 0x48
 800330e:	f8d5 c110 	ldr.w	ip, [r5, #272]	; 0x110
 8003312:	b91f      	cbnz	r7, 800331c <HAL_OSPI_Receive+0x22>
 8003314:	2308      	movs	r3, #8
 8003316:	64a3      	str	r3, [r4, #72]	; 0x48
 8003318:	2001      	movs	r0, #1
 800331a:	e034      	b.n	8003386 <HAL_OSPI_Receive+0x8c>
 800331c:	6c62      	ldr	r2, [r4, #68]	; 0x44
 800331e:	2a04      	cmp	r2, #4
 8003320:	d13b      	bne.n	800339a <HAL_OSPI_Receive+0xa0>
 8003322:	6c2a      	ldr	r2, [r5, #64]	; 0x40
 8003324:	6367      	str	r7, [r4, #52]	; 0x34
 8003326:	3201      	adds	r2, #1
 8003328:	63e2      	str	r2, [r4, #60]	; 0x3c
 800332a:	6be2      	ldr	r2, [r4, #60]	; 0x3c
 800332c:	63a2      	str	r2, [r4, #56]	; 0x38
 800332e:	6829      	ldr	r1, [r5, #0]
 8003330:	68e2      	ldr	r2, [r4, #12]
 8003332:	f021 5140 	bic.w	r1, r1, #805306368	; 0x30000000
 8003336:	f041 5180 	orr.w	r1, r1, #268435456	; 0x10000000
 800333a:	f1b2 6f80 	cmp.w	r2, #67108864	; 0x4000000
 800333e:	6029      	str	r1, [r5, #0]
 8003340:	d123      	bne.n	800338a <HAL_OSPI_Receive+0x90>
 8003342:	64a8      	str	r0, [r5, #72]	; 0x48
 8003344:	9600      	str	r6, [sp, #0]
 8003346:	2201      	movs	r2, #1
 8003348:	2106      	movs	r1, #6
 800334a:	4620      	mov	r0, r4
 800334c:	9303      	str	r3, [sp, #12]
 800334e:	f7ff fea7 	bl	80030a0 <OSPI_WaitFlagStateUntilTimeout>
 8003352:	b9c0      	cbnz	r0, 8003386 <HAL_OSPI_Receive+0x8c>
 8003354:	6b62      	ldr	r2, [r4, #52]	; 0x34
 8003356:	f895 1050 	ldrb.w	r1, [r5, #80]	; 0x50
 800335a:	7011      	strb	r1, [r2, #0]
 800335c:	6b62      	ldr	r2, [r4, #52]	; 0x34
 800335e:	9b03      	ldr	r3, [sp, #12]
 8003360:	3201      	adds	r2, #1
 8003362:	6362      	str	r2, [r4, #52]	; 0x34
 8003364:	6be2      	ldr	r2, [r4, #60]	; 0x3c
 8003366:	3a01      	subs	r2, #1
 8003368:	63e2      	str	r2, [r4, #60]	; 0x3c
 800336a:	6be2      	ldr	r2, [r4, #60]	; 0x3c
 800336c:	2a00      	cmp	r2, #0
 800336e:	d1e9      	bne.n	8003344 <HAL_OSPI_Receive+0x4a>
 8003370:	9600      	str	r6, [sp, #0]
 8003372:	2201      	movs	r2, #1
 8003374:	2102      	movs	r1, #2
 8003376:	4620      	mov	r0, r4
 8003378:	f7ff fe92 	bl	80030a0 <OSPI_WaitFlagStateUntilTimeout>
 800337c:	b918      	cbnz	r0, 8003386 <HAL_OSPI_Receive+0x8c>
 800337e:	6822      	ldr	r2, [r4, #0]
 8003380:	2302      	movs	r3, #2
 8003382:	6253      	str	r3, [r2, #36]	; 0x24
 8003384:	6463      	str	r3, [r4, #68]	; 0x44
 8003386:	b005      	add	sp, #20
 8003388:	bdf0      	pop	{r4, r5, r6, r7, pc}
 800338a:	f8d5 2100 	ldr.w	r2, [r5, #256]	; 0x100
 800338e:	f412 6fe0 	tst.w	r2, #1792	; 0x700
 8003392:	d1d6      	bne.n	8003342 <HAL_OSPI_Receive+0x48>
 8003394:	f8c5 c110 	str.w	ip, [r5, #272]	; 0x110
 8003398:	e7d4      	b.n	8003344 <HAL_OSPI_Receive+0x4a>
 800339a:	2310      	movs	r3, #16
 800339c:	e7bb      	b.n	8003316 <HAL_OSPI_Receive+0x1c>

0800339e <HAL_OSPI_AutoPolling>:
 800339e:	e92d 41ff 	stmdb	sp!, {r0, r1, r2, r3, r4, r5, r6, r7, r8, lr}
 80033a2:	4604      	mov	r4, r0
 80033a4:	4616      	mov	r6, r2
 80033a6:	460d      	mov	r5, r1
 80033a8:	f7ff f81c 	bl	80023e4 <HAL_GetTick>
 80033ac:	6822      	ldr	r2, [r4, #0]
 80033ae:	6c97      	ldr	r7, [r2, #72]	; 0x48
 80033b0:	f8d2 8110 	ldr.w	r8, [r2, #272]	; 0x110
 80033b4:	6c62      	ldr	r2, [r4, #68]	; 0x44
 80033b6:	2a04      	cmp	r2, #4
 80033b8:	4603      	mov	r3, r0
 80033ba:	d13c      	bne.n	8003436 <HAL_OSPI_AutoPolling+0x98>
 80033bc:	68ea      	ldr	r2, [r5, #12]
 80033be:	f5b2 0f80 	cmp.w	r2, #4194304	; 0x400000
 80033c2:	d138      	bne.n	8003436 <HAL_OSPI_AutoPolling+0x98>
 80033c4:	9003      	str	r0, [sp, #12]
 80033c6:	9600      	str	r6, [sp, #0]
 80033c8:	2200      	movs	r2, #0
 80033ca:	2120      	movs	r1, #32
 80033cc:	4620      	mov	r0, r4
 80033ce:	f7ff fe67 	bl	80030a0 <OSPI_WaitFlagStateUntilTimeout>
 80033d2:	bb28      	cbnz	r0, 8003420 <HAL_OSPI_AutoPolling+0x82>
 80033d4:	6822      	ldr	r2, [r4, #0]
 80033d6:	6829      	ldr	r1, [r5, #0]
 80033d8:	f8c2 1088 	str.w	r1, [r2, #136]	; 0x88
 80033dc:	6869      	ldr	r1, [r5, #4]
 80033de:	f8c2 1080 	str.w	r1, [r2, #128]	; 0x80
 80033e2:	6929      	ldr	r1, [r5, #16]
 80033e4:	f8c2 1090 	str.w	r1, [r2, #144]	; 0x90
 80033e8:	e9d5 1502 	ldrd	r1, r5, [r5, #8]
 80033ec:	6810      	ldr	r0, [r2, #0]
 80033ee:	9b03      	ldr	r3, [sp, #12]
 80033f0:	4329      	orrs	r1, r5
 80033f2:	f020 5043 	bic.w	r0, r0, #817889280	; 0x30c00000
 80033f6:	4301      	orrs	r1, r0
 80033f8:	f041 5100 	orr.w	r1, r1, #536870912	; 0x20000000
 80033fc:	6011      	str	r1, [r2, #0]
 80033fe:	68e1      	ldr	r1, [r4, #12]
 8003400:	f1b1 6f80 	cmp.w	r1, #67108864	; 0x4000000
 8003404:	d10f      	bne.n	8003426 <HAL_OSPI_AutoPolling+0x88>
 8003406:	6497      	str	r7, [r2, #72]	; 0x48
 8003408:	9600      	str	r6, [sp, #0]
 800340a:	2201      	movs	r2, #1
 800340c:	2108      	movs	r1, #8
 800340e:	4620      	mov	r0, r4
 8003410:	f7ff fe46 	bl	80030a0 <OSPI_WaitFlagStateUntilTimeout>
 8003414:	b920      	cbnz	r0, 8003420 <HAL_OSPI_AutoPolling+0x82>
 8003416:	6823      	ldr	r3, [r4, #0]
 8003418:	2208      	movs	r2, #8
 800341a:	625a      	str	r2, [r3, #36]	; 0x24
 800341c:	2302      	movs	r3, #2
 800341e:	6463      	str	r3, [r4, #68]	; 0x44
 8003420:	b004      	add	sp, #16
 8003422:	e8bd 81f0 	ldmia.w	sp!, {r4, r5, r6, r7, r8, pc}
 8003426:	f8d2 1100 	ldr.w	r1, [r2, #256]	; 0x100
 800342a:	f411 6fe0 	tst.w	r1, #1792	; 0x700
 800342e:	d1ea      	bne.n	8003406 <HAL_OSPI_AutoPolling+0x68>
 8003430:	f8c2 8110 	str.w	r8, [r2, #272]	; 0x110
 8003434:	e7e8      	b.n	8003408 <HAL_OSPI_AutoPolling+0x6a>
 8003436:	2310      	movs	r3, #16
 8003438:	64a3      	str	r3, [r4, #72]	; 0x48
 800343a:	2001      	movs	r0, #1
 800343c:	e7f0      	b.n	8003420 <HAL_OSPI_AutoPolling+0x82>
	...

08003440 <HAL_PWREx_GetVoltageRange>:
 8003440:	4b06      	ldr	r3, [pc, #24]	; (800345c <HAL_PWREx_GetVoltageRange+0x1c>)
 8003442:	6818      	ldr	r0, [r3, #0]
 8003444:	f400 60c0 	and.w	r0, r0, #1536	; 0x600
 8003448:	f5b0 6f80 	cmp.w	r0, #1024	; 0x400
 800344c:	bf1e      	ittt	ne
 800344e:	f8d3 0080 	ldrne.w	r0, [r3, #128]	; 0x80
 8003452:	f3c0 2000 	ubfxne	r0, r0, #8, #1
 8003456:	0240      	lslne	r0, r0, #9
 8003458:	4770      	bx	lr
 800345a:	bf00      	nop
 800345c:	40007000 	.word	0x40007000

08003460 <HAL_PWREx_ControlVoltageScaling>:
 8003460:	4b29      	ldr	r3, [pc, #164]	; (8003508 <HAL_PWREx_ControlVoltageScaling+0xa8>)
 8003462:	681a      	ldr	r2, [r3, #0]
 8003464:	bb30      	cbnz	r0, 80034b4 <HAL_PWREx_ControlVoltageScaling+0x54>
 8003466:	f402 62c0 	and.w	r2, r2, #1536	; 0x600
 800346a:	f5b2 6f80 	cmp.w	r2, #1024	; 0x400
 800346e:	f8d3 2080 	ldr.w	r2, [r3, #128]	; 0x80
 8003472:	f422 7280 	bic.w	r2, r2, #256	; 0x100
 8003476:	f8c3 2080 	str.w	r2, [r3, #128]	; 0x80
 800347a:	d11a      	bne.n	80034b2 <HAL_PWREx_ControlVoltageScaling+0x52>
 800347c:	681a      	ldr	r2, [r3, #0]
 800347e:	f422 62c0 	bic.w	r2, r2, #1536	; 0x600
 8003482:	f442 7200 	orr.w	r2, r2, #512	; 0x200
 8003486:	601a      	str	r2, [r3, #0]
 8003488:	4a20      	ldr	r2, [pc, #128]	; (800350c <HAL_PWREx_ControlVoltageScaling+0xac>)
 800348a:	6812      	ldr	r2, [r2, #0]
 800348c:	2132      	movs	r1, #50	; 0x32
 800348e:	434a      	muls	r2, r1
 8003490:	491f      	ldr	r1, [pc, #124]	; (8003510 <HAL_PWREx_ControlVoltageScaling+0xb0>)
 8003492:	fbb2 f2f1 	udiv	r2, r2, r1
 8003496:	3201      	adds	r2, #1
 8003498:	6959      	ldr	r1, [r3, #20]
 800349a:	0549      	lsls	r1, r1, #21
 800349c:	d500      	bpl.n	80034a0 <HAL_PWREx_ControlVoltageScaling+0x40>
 800349e:	b922      	cbnz	r2, 80034aa <HAL_PWREx_ControlVoltageScaling+0x4a>
 80034a0:	695b      	ldr	r3, [r3, #20]
 80034a2:	0558      	lsls	r0, r3, #21
 80034a4:	d403      	bmi.n	80034ae <HAL_PWREx_ControlVoltageScaling+0x4e>
 80034a6:	2000      	movs	r0, #0
 80034a8:	4770      	bx	lr
 80034aa:	3a01      	subs	r2, #1
 80034ac:	e7f4      	b.n	8003498 <HAL_PWREx_ControlVoltageScaling+0x38>
 80034ae:	2003      	movs	r0, #3
 80034b0:	4770      	bx	lr
 80034b2:	4770      	bx	lr
 80034b4:	f5b0 7f00 	cmp.w	r0, #512	; 0x200
 80034b8:	d11f      	bne.n	80034fa <HAL_PWREx_ControlVoltageScaling+0x9a>
 80034ba:	f402 62c0 	and.w	r2, r2, #1536	; 0x600
 80034be:	f5b2 6f80 	cmp.w	r2, #1024	; 0x400
 80034c2:	f8d3 2080 	ldr.w	r2, [r3, #128]	; 0x80
 80034c6:	f442 7280 	orr.w	r2, r2, #256	; 0x100
 80034ca:	f8c3 2080 	str.w	r2, [r3, #128]	; 0x80
 80034ce:	d1ea      	bne.n	80034a6 <HAL_PWREx_ControlVoltageScaling+0x46>
 80034d0:	681a      	ldr	r2, [r3, #0]
 80034d2:	f422 62c0 	bic.w	r2, r2, #1536	; 0x600
 80034d6:	f442 7200 	orr.w	r2, r2, #512	; 0x200
 80034da:	601a      	str	r2, [r3, #0]
 80034dc:	4a0b      	ldr	r2, [pc, #44]	; (800350c <HAL_PWREx_ControlVoltageScaling+0xac>)
 80034de:	6812      	ldr	r2, [r2, #0]
 80034e0:	2132      	movs	r1, #50	; 0x32
 80034e2:	434a      	muls	r2, r1
 80034e4:	490a      	ldr	r1, [pc, #40]	; (8003510 <HAL_PWREx_ControlVoltageScaling+0xb0>)
 80034e6:	fbb2 f2f1 	udiv	r2, r2, r1
 80034ea:	3201      	adds	r2, #1
 80034ec:	6959      	ldr	r1, [r3, #20]
 80034ee:	0549      	lsls	r1, r1, #21
 80034f0:	d5d6      	bpl.n	80034a0 <HAL_PWREx_ControlVoltageScaling+0x40>
 80034f2:	2a00      	cmp	r2, #0
 80034f4:	d0d4      	beq.n	80034a0 <HAL_PWREx_ControlVoltageScaling+0x40>
 80034f6:	3a01      	subs	r2, #1
 80034f8:	e7f8      	b.n	80034ec <HAL_PWREx_ControlVoltageScaling+0x8c>
 80034fa:	f422 62c0 	bic.w	r2, r2, #1536	; 0x600
 80034fe:	f442 6280 	orr.w	r2, r2, #1024	; 0x400
 8003502:	601a      	str	r2, [r3, #0]
 8003504:	e7cf      	b.n	80034a6 <HAL_PWREx_ControlVoltageScaling+0x46>
 8003506:	bf00      	nop
 8003508:	40007000 	.word	0x40007000
 800350c:	20000008 	.word	0x20000008
 8003510:	000f4240 	.word	0x000f4240

08003514 <RCC_SetFlashLatencyFromMSIRange>:
 8003514:	b537      	push	{r0, r1, r2, r4, r5, lr}
 8003516:	4d1c      	ldr	r5, [pc, #112]	; (8003588 <RCC_SetFlashLatencyFromMSIRange+0x74>)
 8003518:	6dab      	ldr	r3, [r5, #88]	; 0x58
 800351a:	00da      	lsls	r2, r3, #3
 800351c:	4604      	mov	r4, r0
 800351e:	d518      	bpl.n	8003552 <RCC_SetFlashLatencyFromMSIRange+0x3e>
 8003520:	f7ff ff8e 	bl	8003440 <HAL_PWREx_GetVoltageRange>
 8003524:	f5b0 7f00 	cmp.w	r0, #512	; 0x200
 8003528:	d123      	bne.n	8003572 <RCC_SetFlashLatencyFromMSIRange+0x5e>
 800352a:	2c80      	cmp	r4, #128	; 0x80
 800352c:	d928      	bls.n	8003580 <RCC_SetFlashLatencyFromMSIRange+0x6c>
 800352e:	2ca0      	cmp	r4, #160	; 0xa0
 8003530:	bf8c      	ite	hi
 8003532:	2402      	movhi	r4, #2
 8003534:	2401      	movls	r4, #1
 8003536:	4915      	ldr	r1, [pc, #84]	; (800358c <RCC_SetFlashLatencyFromMSIRange+0x78>)
 8003538:	680a      	ldr	r2, [r1, #0]
 800353a:	f022 020f 	bic.w	r2, r2, #15
 800353e:	4322      	orrs	r2, r4
 8003540:	600a      	str	r2, [r1, #0]
 8003542:	6808      	ldr	r0, [r1, #0]
 8003544:	f000 000f 	and.w	r0, r0, #15
 8003548:	1b00      	subs	r0, r0, r4
 800354a:	bf18      	it	ne
 800354c:	2001      	movne	r0, #1
 800354e:	b003      	add	sp, #12
 8003550:	bd30      	pop	{r4, r5, pc}
 8003552:	6dab      	ldr	r3, [r5, #88]	; 0x58
 8003554:	f043 5380 	orr.w	r3, r3, #268435456	; 0x10000000
 8003558:	65ab      	str	r3, [r5, #88]	; 0x58
 800355a:	6dab      	ldr	r3, [r5, #88]	; 0x58
 800355c:	f003 5380 	and.w	r3, r3, #268435456	; 0x10000000
 8003560:	9301      	str	r3, [sp, #4]
 8003562:	9b01      	ldr	r3, [sp, #4]
 8003564:	f7ff ff6c 	bl	8003440 <HAL_PWREx_GetVoltageRange>
 8003568:	6dab      	ldr	r3, [r5, #88]	; 0x58
 800356a:	f023 5380 	bic.w	r3, r3, #268435456	; 0x10000000
 800356e:	65ab      	str	r3, [r5, #88]	; 0x58
 8003570:	e7d8      	b.n	8003524 <RCC_SetFlashLatencyFromMSIRange+0x10>
 8003572:	2c7f      	cmp	r4, #127	; 0x7f
 8003574:	d806      	bhi.n	8003584 <RCC_SetFlashLatencyFromMSIRange+0x70>
 8003576:	f1a4 0370 	sub.w	r3, r4, #112	; 0x70
 800357a:	425c      	negs	r4, r3
 800357c:	415c      	adcs	r4, r3
 800357e:	e7da      	b.n	8003536 <RCC_SetFlashLatencyFromMSIRange+0x22>
 8003580:	2400      	movs	r4, #0
 8003582:	e7d8      	b.n	8003536 <RCC_SetFlashLatencyFromMSIRange+0x22>
 8003584:	2402      	movs	r4, #2
 8003586:	e7d6      	b.n	8003536 <RCC_SetFlashLatencyFromMSIRange+0x22>
 8003588:	40021000 	.word	0x40021000
 800358c:	40022000 	.word	0x40022000

08003590 <HAL_RCC_GetSysClockFreq>:
 8003590:	4b22      	ldr	r3, [pc, #136]	; (800361c <HAL_RCC_GetSysClockFreq+0x8c>)
 8003592:	689a      	ldr	r2, [r3, #8]
 8003594:	68d9      	ldr	r1, [r3, #12]
 8003596:	f012 020c 	ands.w	r2, r2, #12
 800359a:	d005      	beq.n	80035a8 <HAL_RCC_GetSysClockFreq+0x18>
 800359c:	2a0c      	cmp	r2, #12
 800359e:	d115      	bne.n	80035cc <HAL_RCC_GetSysClockFreq+0x3c>
 80035a0:	f001 0103 	and.w	r1, r1, #3
 80035a4:	2901      	cmp	r1, #1
 80035a6:	d118      	bne.n	80035da <HAL_RCC_GetSysClockFreq+0x4a>
 80035a8:	6819      	ldr	r1, [r3, #0]
 80035aa:	481d      	ldr	r0, [pc, #116]	; (8003620 <HAL_RCC_GetSysClockFreq+0x90>)
 80035ac:	0709      	lsls	r1, r1, #28
 80035ae:	bf55      	itete	pl
 80035b0:	f8d3 1094 	ldrpl.w	r1, [r3, #148]	; 0x94
 80035b4:	6819      	ldrmi	r1, [r3, #0]
 80035b6:	f3c1 2103 	ubfxpl	r1, r1, #8, #4
 80035ba:	f3c1 1103 	ubfxmi	r1, r1, #4, #4
 80035be:	f850 0021 	ldr.w	r0, [r0, r1, lsl #2]
 80035c2:	b34a      	cbz	r2, 8003618 <HAL_RCC_GetSysClockFreq+0x88>
 80035c4:	2a0c      	cmp	r2, #12
 80035c6:	d009      	beq.n	80035dc <HAL_RCC_GetSysClockFreq+0x4c>
 80035c8:	2000      	movs	r0, #0
 80035ca:	4770      	bx	lr
 80035cc:	2a04      	cmp	r2, #4
 80035ce:	d022      	beq.n	8003616 <HAL_RCC_GetSysClockFreq+0x86>
 80035d0:	2a08      	cmp	r2, #8
 80035d2:	4814      	ldr	r0, [pc, #80]	; (8003624 <HAL_RCC_GetSysClockFreq+0x94>)
 80035d4:	bf18      	it	ne
 80035d6:	2000      	movne	r0, #0
 80035d8:	4770      	bx	lr
 80035da:	2000      	movs	r0, #0
 80035dc:	68da      	ldr	r2, [r3, #12]
 80035de:	f002 0203 	and.w	r2, r2, #3
 80035e2:	2a02      	cmp	r2, #2
 80035e4:	d015      	beq.n	8003612 <HAL_RCC_GetSysClockFreq+0x82>
 80035e6:	490f      	ldr	r1, [pc, #60]	; (8003624 <HAL_RCC_GetSysClockFreq+0x94>)
 80035e8:	2a03      	cmp	r2, #3
 80035ea:	bf08      	it	eq
 80035ec:	4608      	moveq	r0, r1
 80035ee:	68d9      	ldr	r1, [r3, #12]
 80035f0:	68da      	ldr	r2, [r3, #12]
 80035f2:	f3c2 2206 	ubfx	r2, r2, #8, #7
 80035f6:	4342      	muls	r2, r0
 80035f8:	68d8      	ldr	r0, [r3, #12]
 80035fa:	f3c0 6041 	ubfx	r0, r0, #25, #2
 80035fe:	f3c1 1103 	ubfx	r1, r1, #4, #4
 8003602:	3001      	adds	r0, #1
 8003604:	3101      	adds	r1, #1
 8003606:	0040      	lsls	r0, r0, #1
 8003608:	fbb2 f2f1 	udiv	r2, r2, r1
 800360c:	fbb2 f0f0 	udiv	r0, r2, r0
 8003610:	4770      	bx	lr
 8003612:	4805      	ldr	r0, [pc, #20]	; (8003628 <HAL_RCC_GetSysClockFreq+0x98>)
 8003614:	e7eb      	b.n	80035ee <HAL_RCC_GetSysClockFreq+0x5e>
 8003616:	4804      	ldr	r0, [pc, #16]	; (8003628 <HAL_RCC_GetSysClockFreq+0x98>)
 8003618:	4770      	bx	lr
 800361a:	bf00      	nop
 800361c:	40021000 	.word	0x40021000
 8003620:	08008954 	.word	0x08008954
 8003624:	007a1200 	.word	0x007a1200
 8003628:	00f42400 	.word	0x00f42400

0800362c <HAL_RCC_OscConfig>:
 800362c:	e92d 43f7 	stmdb	sp!, {r0, r1, r2, r4, r5, r6, r7, r8, r9, lr}
 8003630:	4605      	mov	r5, r0
 8003632:	b908      	cbnz	r0, 8003638 <HAL_RCC_OscConfig+0xc>
 8003634:	2001      	movs	r0, #1
 8003636:	e047      	b.n	80036c8 <HAL_RCC_OscConfig+0x9c>
 8003638:	4c94      	ldr	r4, [pc, #592]	; (800388c <HAL_RCC_OscConfig+0x260>)
 800363a:	6803      	ldr	r3, [r0, #0]
 800363c:	68a6      	ldr	r6, [r4, #8]
 800363e:	68e7      	ldr	r7, [r4, #12]
 8003640:	06db      	lsls	r3, r3, #27
 8003642:	f006 060c 	and.w	r6, r6, #12
 8003646:	f007 0703 	and.w	r7, r7, #3
 800364a:	d575      	bpl.n	8003738 <HAL_RCC_OscConfig+0x10c>
 800364c:	b11e      	cbz	r6, 8003656 <HAL_RCC_OscConfig+0x2a>
 800364e:	2e0c      	cmp	r6, #12
 8003650:	d154      	bne.n	80036fc <HAL_RCC_OscConfig+0xd0>
 8003652:	2f01      	cmp	r7, #1
 8003654:	d152      	bne.n	80036fc <HAL_RCC_OscConfig+0xd0>
 8003656:	6823      	ldr	r3, [r4, #0]
 8003658:	0798      	lsls	r0, r3, #30
 800365a:	d502      	bpl.n	8003662 <HAL_RCC_OscConfig+0x36>
 800365c:	69ab      	ldr	r3, [r5, #24]
 800365e:	2b00      	cmp	r3, #0
 8003660:	d0e8      	beq.n	8003634 <HAL_RCC_OscConfig+0x8>
 8003662:	6823      	ldr	r3, [r4, #0]
 8003664:	6a28      	ldr	r0, [r5, #32]
 8003666:	0719      	lsls	r1, r3, #28
 8003668:	bf56      	itet	pl
 800366a:	f8d4 3094 	ldrpl.w	r3, [r4, #148]	; 0x94
 800366e:	6823      	ldrmi	r3, [r4, #0]
 8003670:	091b      	lsrpl	r3, r3, #4
 8003672:	f003 03f0 	and.w	r3, r3, #240	; 0xf0
 8003676:	4298      	cmp	r0, r3
 8003678:	d929      	bls.n	80036ce <HAL_RCC_OscConfig+0xa2>
 800367a:	f7ff ff4b 	bl	8003514 <RCC_SetFlashLatencyFromMSIRange>
 800367e:	2800      	cmp	r0, #0
 8003680:	d1d8      	bne.n	8003634 <HAL_RCC_OscConfig+0x8>
 8003682:	6823      	ldr	r3, [r4, #0]
 8003684:	f043 0308 	orr.w	r3, r3, #8
 8003688:	6023      	str	r3, [r4, #0]
 800368a:	6823      	ldr	r3, [r4, #0]
 800368c:	6a2a      	ldr	r2, [r5, #32]
 800368e:	f023 03f0 	bic.w	r3, r3, #240	; 0xf0
 8003692:	4313      	orrs	r3, r2
 8003694:	6023      	str	r3, [r4, #0]
 8003696:	6863      	ldr	r3, [r4, #4]
 8003698:	69ea      	ldr	r2, [r5, #28]
 800369a:	f423 437f 	bic.w	r3, r3, #65280	; 0xff00
 800369e:	ea43 2302 	orr.w	r3, r3, r2, lsl #8
 80036a2:	6063      	str	r3, [r4, #4]
 80036a4:	f7ff ff74 	bl	8003590 <HAL_RCC_GetSysClockFreq>
 80036a8:	68a3      	ldr	r3, [r4, #8]
 80036aa:	4a79      	ldr	r2, [pc, #484]	; (8003890 <HAL_RCC_OscConfig+0x264>)
 80036ac:	f3c3 1303 	ubfx	r3, r3, #4, #4
 80036b0:	5cd3      	ldrb	r3, [r2, r3]
 80036b2:	f003 031f 	and.w	r3, r3, #31
 80036b6:	40d8      	lsrs	r0, r3
 80036b8:	4b76      	ldr	r3, [pc, #472]	; (8003894 <HAL_RCC_OscConfig+0x268>)
 80036ba:	6018      	str	r0, [r3, #0]
 80036bc:	4b76      	ldr	r3, [pc, #472]	; (8003898 <HAL_RCC_OscConfig+0x26c>)
 80036be:	6818      	ldr	r0, [r3, #0]
 80036c0:	f7fe fb2c 	bl	8001d1c <HAL_InitTick>
 80036c4:	2800      	cmp	r0, #0
 80036c6:	d037      	beq.n	8003738 <HAL_RCC_OscConfig+0x10c>
 80036c8:	b003      	add	sp, #12
 80036ca:	e8bd 83f0 	ldmia.w	sp!, {r4, r5, r6, r7, r8, r9, pc}
 80036ce:	6823      	ldr	r3, [r4, #0]
 80036d0:	f043 0308 	orr.w	r3, r3, #8
 80036d4:	6023      	str	r3, [r4, #0]
 80036d6:	6823      	ldr	r3, [r4, #0]
 80036d8:	f023 03f0 	bic.w	r3, r3, #240	; 0xf0
 80036dc:	4303      	orrs	r3, r0
 80036de:	6023      	str	r3, [r4, #0]
 80036e0:	6863      	ldr	r3, [r4, #4]
 80036e2:	69ea      	ldr	r2, [r5, #28]
 80036e4:	f423 437f 	bic.w	r3, r3, #65280	; 0xff00
 80036e8:	ea43 2302 	orr.w	r3, r3, r2, lsl #8
 80036ec:	6063      	str	r3, [r4, #4]
 80036ee:	2e00      	cmp	r6, #0
 80036f0:	d1d8      	bne.n	80036a4 <HAL_RCC_OscConfig+0x78>
 80036f2:	f7ff ff0f 	bl	8003514 <RCC_SetFlashLatencyFromMSIRange>
 80036f6:	2800      	cmp	r0, #0
 80036f8:	d0d4      	beq.n	80036a4 <HAL_RCC_OscConfig+0x78>
 80036fa:	e79b      	b.n	8003634 <HAL_RCC_OscConfig+0x8>
 80036fc:	69ab      	ldr	r3, [r5, #24]
 80036fe:	2b00      	cmp	r3, #0
 8003700:	d03a      	beq.n	8003778 <HAL_RCC_OscConfig+0x14c>
 8003702:	6823      	ldr	r3, [r4, #0]
 8003704:	f043 0301 	orr.w	r3, r3, #1
 8003708:	6023      	str	r3, [r4, #0]
 800370a:	f7fe fe6b 	bl	80023e4 <HAL_GetTick>
 800370e:	4680      	mov	r8, r0
 8003710:	6823      	ldr	r3, [r4, #0]
 8003712:	079a      	lsls	r2, r3, #30
 8003714:	d528      	bpl.n	8003768 <HAL_RCC_OscConfig+0x13c>
 8003716:	6823      	ldr	r3, [r4, #0]
 8003718:	f043 0308 	orr.w	r3, r3, #8
 800371c:	6023      	str	r3, [r4, #0]
 800371e:	6823      	ldr	r3, [r4, #0]
 8003720:	6a2a      	ldr	r2, [r5, #32]
 8003722:	f023 03f0 	bic.w	r3, r3, #240	; 0xf0
 8003726:	4313      	orrs	r3, r2
 8003728:	6023      	str	r3, [r4, #0]
 800372a:	6863      	ldr	r3, [r4, #4]
 800372c:	69ea      	ldr	r2, [r5, #28]
 800372e:	f423 437f 	bic.w	r3, r3, #65280	; 0xff00
 8003732:	ea43 2302 	orr.w	r3, r3, r2, lsl #8
 8003736:	6063      	str	r3, [r4, #4]
 8003738:	682b      	ldr	r3, [r5, #0]
 800373a:	07d8      	lsls	r0, r3, #31
 800373c:	d42d      	bmi.n	800379a <HAL_RCC_OscConfig+0x16e>
 800373e:	682b      	ldr	r3, [r5, #0]
 8003740:	0799      	lsls	r1, r3, #30
 8003742:	d46b      	bmi.n	800381c <HAL_RCC_OscConfig+0x1f0>
 8003744:	682b      	ldr	r3, [r5, #0]
 8003746:	0718      	lsls	r0, r3, #28
 8003748:	f100 80a8 	bmi.w	800389c <HAL_RCC_OscConfig+0x270>
 800374c:	682b      	ldr	r3, [r5, #0]
 800374e:	0759      	lsls	r1, r3, #29
 8003750:	f100 80ce 	bmi.w	80038f0 <HAL_RCC_OscConfig+0x2c4>
 8003754:	682b      	ldr	r3, [r5, #0]
 8003756:	0699      	lsls	r1, r3, #26
 8003758:	f100 8137 	bmi.w	80039ca <HAL_RCC_OscConfig+0x39e>
 800375c:	6aab      	ldr	r3, [r5, #40]	; 0x28
 800375e:	2b00      	cmp	r3, #0
 8003760:	f040 815d 	bne.w	8003a1e <HAL_RCC_OscConfig+0x3f2>
 8003764:	2000      	movs	r0, #0
 8003766:	e7af      	b.n	80036c8 <HAL_RCC_OscConfig+0x9c>
 8003768:	f7fe fe3c 	bl	80023e4 <HAL_GetTick>
 800376c:	eba0 0008 	sub.w	r0, r0, r8
 8003770:	2802      	cmp	r0, #2
 8003772:	d9cd      	bls.n	8003710 <HAL_RCC_OscConfig+0xe4>
 8003774:	2003      	movs	r0, #3
 8003776:	e7a7      	b.n	80036c8 <HAL_RCC_OscConfig+0x9c>
 8003778:	6823      	ldr	r3, [r4, #0]
 800377a:	f023 0301 	bic.w	r3, r3, #1
 800377e:	6023      	str	r3, [r4, #0]
 8003780:	f7fe fe30 	bl	80023e4 <HAL_GetTick>
 8003784:	4680      	mov	r8, r0
 8003786:	6823      	ldr	r3, [r4, #0]
 8003788:	079b      	lsls	r3, r3, #30
 800378a:	d5d5      	bpl.n	8003738 <HAL_RCC_OscConfig+0x10c>
 800378c:	f7fe fe2a 	bl	80023e4 <HAL_GetTick>
 8003790:	eba0 0008 	sub.w	r0, r0, r8
 8003794:	2802      	cmp	r0, #2
 8003796:	d9f6      	bls.n	8003786 <HAL_RCC_OscConfig+0x15a>
 8003798:	e7ec      	b.n	8003774 <HAL_RCC_OscConfig+0x148>
 800379a:	2e08      	cmp	r6, #8
 800379c:	d003      	beq.n	80037a6 <HAL_RCC_OscConfig+0x17a>
 800379e:	2e0c      	cmp	r6, #12
 80037a0:	d108      	bne.n	80037b4 <HAL_RCC_OscConfig+0x188>
 80037a2:	2f03      	cmp	r7, #3
 80037a4:	d106      	bne.n	80037b4 <HAL_RCC_OscConfig+0x188>
 80037a6:	6823      	ldr	r3, [r4, #0]
 80037a8:	039a      	lsls	r2, r3, #14
 80037aa:	d5c8      	bpl.n	800373e <HAL_RCC_OscConfig+0x112>
 80037ac:	686b      	ldr	r3, [r5, #4]
 80037ae:	2b00      	cmp	r3, #0
 80037b0:	d1c5      	bne.n	800373e <HAL_RCC_OscConfig+0x112>
 80037b2:	e73f      	b.n	8003634 <HAL_RCC_OscConfig+0x8>
 80037b4:	686b      	ldr	r3, [r5, #4]
 80037b6:	f5b3 3f80 	cmp.w	r3, #65536	; 0x10000
 80037ba:	d110      	bne.n	80037de <HAL_RCC_OscConfig+0x1b2>
 80037bc:	6823      	ldr	r3, [r4, #0]
 80037be:	f443 3380 	orr.w	r3, r3, #65536	; 0x10000
 80037c2:	6023      	str	r3, [r4, #0]
 80037c4:	f7fe fe0e 	bl	80023e4 <HAL_GetTick>
 80037c8:	4680      	mov	r8, r0
 80037ca:	6823      	ldr	r3, [r4, #0]
 80037cc:	039b      	lsls	r3, r3, #14
 80037ce:	d4b6      	bmi.n	800373e <HAL_RCC_OscConfig+0x112>
 80037d0:	f7fe fe08 	bl	80023e4 <HAL_GetTick>
 80037d4:	eba0 0008 	sub.w	r0, r0, r8
 80037d8:	2864      	cmp	r0, #100	; 0x64
 80037da:	d9f6      	bls.n	80037ca <HAL_RCC_OscConfig+0x19e>
 80037dc:	e7ca      	b.n	8003774 <HAL_RCC_OscConfig+0x148>
 80037de:	f5b3 2fa0 	cmp.w	r3, #327680	; 0x50000
 80037e2:	d104      	bne.n	80037ee <HAL_RCC_OscConfig+0x1c2>
 80037e4:	6823      	ldr	r3, [r4, #0]
 80037e6:	f443 2380 	orr.w	r3, r3, #262144	; 0x40000
 80037ea:	6023      	str	r3, [r4, #0]
 80037ec:	e7e6      	b.n	80037bc <HAL_RCC_OscConfig+0x190>
 80037ee:	6822      	ldr	r2, [r4, #0]
 80037f0:	f422 3280 	bic.w	r2, r2, #65536	; 0x10000
 80037f4:	6022      	str	r2, [r4, #0]
 80037f6:	6822      	ldr	r2, [r4, #0]
 80037f8:	f422 2280 	bic.w	r2, r2, #262144	; 0x40000
 80037fc:	6022      	str	r2, [r4, #0]
 80037fe:	2b00      	cmp	r3, #0
 8003800:	d1e0      	bne.n	80037c4 <HAL_RCC_OscConfig+0x198>
 8003802:	f7fe fdef 	bl	80023e4 <HAL_GetTick>
 8003806:	4680      	mov	r8, r0
 8003808:	6823      	ldr	r3, [r4, #0]
 800380a:	0398      	lsls	r0, r3, #14
 800380c:	d597      	bpl.n	800373e <HAL_RCC_OscConfig+0x112>
 800380e:	f7fe fde9 	bl	80023e4 <HAL_GetTick>
 8003812:	eba0 0008 	sub.w	r0, r0, r8
 8003816:	2864      	cmp	r0, #100	; 0x64
 8003818:	d9f6      	bls.n	8003808 <HAL_RCC_OscConfig+0x1dc>
 800381a:	e7ab      	b.n	8003774 <HAL_RCC_OscConfig+0x148>
 800381c:	2e04      	cmp	r6, #4
 800381e:	d003      	beq.n	8003828 <HAL_RCC_OscConfig+0x1fc>
 8003820:	2e0c      	cmp	r6, #12
 8003822:	d110      	bne.n	8003846 <HAL_RCC_OscConfig+0x21a>
 8003824:	2f02      	cmp	r7, #2
 8003826:	d10e      	bne.n	8003846 <HAL_RCC_OscConfig+0x21a>
 8003828:	6823      	ldr	r3, [r4, #0]
 800382a:	0559      	lsls	r1, r3, #21
 800382c:	d503      	bpl.n	8003836 <HAL_RCC_OscConfig+0x20a>
 800382e:	68eb      	ldr	r3, [r5, #12]
 8003830:	2b00      	cmp	r3, #0
 8003832:	f43f aeff 	beq.w	8003634 <HAL_RCC_OscConfig+0x8>
 8003836:	6863      	ldr	r3, [r4, #4]
 8003838:	692a      	ldr	r2, [r5, #16]
 800383a:	f023 43fe 	bic.w	r3, r3, #2130706432	; 0x7f000000
 800383e:	ea43 6302 	orr.w	r3, r3, r2, lsl #24
 8003842:	6063      	str	r3, [r4, #4]
 8003844:	e77e      	b.n	8003744 <HAL_RCC_OscConfig+0x118>
 8003846:	68eb      	ldr	r3, [r5, #12]
 8003848:	b17b      	cbz	r3, 800386a <HAL_RCC_OscConfig+0x23e>
 800384a:	6823      	ldr	r3, [r4, #0]
 800384c:	f443 7380 	orr.w	r3, r3, #256	; 0x100
 8003850:	6023      	str	r3, [r4, #0]
 8003852:	f7fe fdc7 	bl	80023e4 <HAL_GetTick>
 8003856:	4607      	mov	r7, r0
 8003858:	6823      	ldr	r3, [r4, #0]
 800385a:	055a      	lsls	r2, r3, #21
 800385c:	d4eb      	bmi.n	8003836 <HAL_RCC_OscConfig+0x20a>
 800385e:	f7fe fdc1 	bl	80023e4 <HAL_GetTick>
 8003862:	1bc0      	subs	r0, r0, r7
 8003864:	2802      	cmp	r0, #2
 8003866:	d9f7      	bls.n	8003858 <HAL_RCC_OscConfig+0x22c>
 8003868:	e784      	b.n	8003774 <HAL_RCC_OscConfig+0x148>
 800386a:	6823      	ldr	r3, [r4, #0]
 800386c:	f423 7380 	bic.w	r3, r3, #256	; 0x100
 8003870:	6023      	str	r3, [r4, #0]
 8003872:	f7fe fdb7 	bl	80023e4 <HAL_GetTick>
 8003876:	4607      	mov	r7, r0
 8003878:	6823      	ldr	r3, [r4, #0]
 800387a:	055b      	lsls	r3, r3, #21
 800387c:	f57f af62 	bpl.w	8003744 <HAL_RCC_OscConfig+0x118>
 8003880:	f7fe fdb0 	bl	80023e4 <HAL_GetTick>
 8003884:	1bc0      	subs	r0, r0, r7
 8003886:	2802      	cmp	r0, #2
 8003888:	d9f6      	bls.n	8003878 <HAL_RCC_OscConfig+0x24c>
 800388a:	e773      	b.n	8003774 <HAL_RCC_OscConfig+0x148>
 800388c:	40021000 	.word	0x40021000
 8003890:	0800893c 	.word	0x0800893c
 8003894:	20000008 	.word	0x20000008
 8003898:	200000a0 	.word	0x200000a0
 800389c:	696b      	ldr	r3, [r5, #20]
 800389e:	b19b      	cbz	r3, 80038c8 <HAL_RCC_OscConfig+0x29c>
 80038a0:	f8d4 3094 	ldr.w	r3, [r4, #148]	; 0x94
 80038a4:	f043 0301 	orr.w	r3, r3, #1
 80038a8:	f8c4 3094 	str.w	r3, [r4, #148]	; 0x94
 80038ac:	f7fe fd9a 	bl	80023e4 <HAL_GetTick>
 80038b0:	4607      	mov	r7, r0
 80038b2:	f8d4 3094 	ldr.w	r3, [r4, #148]	; 0x94
 80038b6:	079a      	lsls	r2, r3, #30
 80038b8:	f53f af48 	bmi.w	800374c <HAL_RCC_OscConfig+0x120>
 80038bc:	f7fe fd92 	bl	80023e4 <HAL_GetTick>
 80038c0:	1bc0      	subs	r0, r0, r7
 80038c2:	2802      	cmp	r0, #2
 80038c4:	d9f5      	bls.n	80038b2 <HAL_RCC_OscConfig+0x286>
 80038c6:	e755      	b.n	8003774 <HAL_RCC_OscConfig+0x148>
 80038c8:	f8d4 3094 	ldr.w	r3, [r4, #148]	; 0x94
 80038cc:	f023 0301 	bic.w	r3, r3, #1
 80038d0:	f8c4 3094 	str.w	r3, [r4, #148]	; 0x94
 80038d4:	f7fe fd86 	bl	80023e4 <HAL_GetTick>
 80038d8:	4607      	mov	r7, r0
 80038da:	f8d4 3094 	ldr.w	r3, [r4, #148]	; 0x94
 80038de:	079b      	lsls	r3, r3, #30
 80038e0:	f57f af34 	bpl.w	800374c <HAL_RCC_OscConfig+0x120>
 80038e4:	f7fe fd7e 	bl	80023e4 <HAL_GetTick>
 80038e8:	1bc0      	subs	r0, r0, r7
 80038ea:	2802      	cmp	r0, #2
 80038ec:	d9f5      	bls.n	80038da <HAL_RCC_OscConfig+0x2ae>
 80038ee:	e741      	b.n	8003774 <HAL_RCC_OscConfig+0x148>
 80038f0:	6da3      	ldr	r3, [r4, #88]	; 0x58
 80038f2:	00d8      	lsls	r0, r3, #3
 80038f4:	d429      	bmi.n	800394a <HAL_RCC_OscConfig+0x31e>
 80038f6:	6da3      	ldr	r3, [r4, #88]	; 0x58
 80038f8:	f043 5380 	orr.w	r3, r3, #268435456	; 0x10000000
 80038fc:	65a3      	str	r3, [r4, #88]	; 0x58
 80038fe:	6da3      	ldr	r3, [r4, #88]	; 0x58
 8003900:	f003 5380 	and.w	r3, r3, #268435456	; 0x10000000
 8003904:	9301      	str	r3, [sp, #4]
 8003906:	9b01      	ldr	r3, [sp, #4]
 8003908:	f04f 0801 	mov.w	r8, #1
 800390c:	4f98      	ldr	r7, [pc, #608]	; (8003b70 <HAL_RCC_OscConfig+0x544>)
 800390e:	683b      	ldr	r3, [r7, #0]
 8003910:	05d9      	lsls	r1, r3, #23
 8003912:	d51d      	bpl.n	8003950 <HAL_RCC_OscConfig+0x324>
 8003914:	68ab      	ldr	r3, [r5, #8]
 8003916:	2b01      	cmp	r3, #1
 8003918:	d12b      	bne.n	8003972 <HAL_RCC_OscConfig+0x346>
 800391a:	f8d4 3090 	ldr.w	r3, [r4, #144]	; 0x90
 800391e:	f043 0301 	orr.w	r3, r3, #1
 8003922:	f8c4 3090 	str.w	r3, [r4, #144]	; 0x90
 8003926:	f7fe fd5d 	bl	80023e4 <HAL_GetTick>
 800392a:	f241 3988 	movw	r9, #5000	; 0x1388
 800392e:	4607      	mov	r7, r0
 8003930:	f8d4 3090 	ldr.w	r3, [r4, #144]	; 0x90
 8003934:	079b      	lsls	r3, r3, #30
 8003936:	d542      	bpl.n	80039be <HAL_RCC_OscConfig+0x392>
 8003938:	f1b8 0f00 	cmp.w	r8, #0
 800393c:	f43f af0a 	beq.w	8003754 <HAL_RCC_OscConfig+0x128>
 8003940:	6da3      	ldr	r3, [r4, #88]	; 0x58
 8003942:	f023 5380 	bic.w	r3, r3, #268435456	; 0x10000000
 8003946:	65a3      	str	r3, [r4, #88]	; 0x58
 8003948:	e704      	b.n	8003754 <HAL_RCC_OscConfig+0x128>
 800394a:	f04f 0800 	mov.w	r8, #0
 800394e:	e7dd      	b.n	800390c <HAL_RCC_OscConfig+0x2e0>
 8003950:	683b      	ldr	r3, [r7, #0]
 8003952:	f443 7380 	orr.w	r3, r3, #256	; 0x100
 8003956:	603b      	str	r3, [r7, #0]
 8003958:	f7fe fd44 	bl	80023e4 <HAL_GetTick>
 800395c:	4681      	mov	r9, r0
 800395e:	683b      	ldr	r3, [r7, #0]
 8003960:	05da      	lsls	r2, r3, #23
 8003962:	d4d7      	bmi.n	8003914 <HAL_RCC_OscConfig+0x2e8>
 8003964:	f7fe fd3e 	bl	80023e4 <HAL_GetTick>
 8003968:	eba0 0009 	sub.w	r0, r0, r9
 800396c:	2802      	cmp	r0, #2
 800396e:	d9f6      	bls.n	800395e <HAL_RCC_OscConfig+0x332>
 8003970:	e700      	b.n	8003774 <HAL_RCC_OscConfig+0x148>
 8003972:	2b05      	cmp	r3, #5
 8003974:	d106      	bne.n	8003984 <HAL_RCC_OscConfig+0x358>
 8003976:	f8d4 3090 	ldr.w	r3, [r4, #144]	; 0x90
 800397a:	f043 0304 	orr.w	r3, r3, #4
 800397e:	f8c4 3090 	str.w	r3, [r4, #144]	; 0x90
 8003982:	e7ca      	b.n	800391a <HAL_RCC_OscConfig+0x2ee>
 8003984:	f8d4 2090 	ldr.w	r2, [r4, #144]	; 0x90
 8003988:	f022 0201 	bic.w	r2, r2, #1
 800398c:	f8c4 2090 	str.w	r2, [r4, #144]	; 0x90
 8003990:	f8d4 2090 	ldr.w	r2, [r4, #144]	; 0x90
 8003994:	f022 0204 	bic.w	r2, r2, #4
 8003998:	f8c4 2090 	str.w	r2, [r4, #144]	; 0x90
 800399c:	2b00      	cmp	r3, #0
 800399e:	d1c2      	bne.n	8003926 <HAL_RCC_OscConfig+0x2fa>
 80039a0:	f7fe fd20 	bl	80023e4 <HAL_GetTick>
 80039a4:	f241 3988 	movw	r9, #5000	; 0x1388
 80039a8:	4607      	mov	r7, r0
 80039aa:	f8d4 3090 	ldr.w	r3, [r4, #144]	; 0x90
 80039ae:	0798      	lsls	r0, r3, #30
 80039b0:	d5c2      	bpl.n	8003938 <HAL_RCC_OscConfig+0x30c>
 80039b2:	f7fe fd17 	bl	80023e4 <HAL_GetTick>
 80039b6:	1bc0      	subs	r0, r0, r7
 80039b8:	4548      	cmp	r0, r9
 80039ba:	d9f6      	bls.n	80039aa <HAL_RCC_OscConfig+0x37e>
 80039bc:	e6da      	b.n	8003774 <HAL_RCC_OscConfig+0x148>
 80039be:	f7fe fd11 	bl	80023e4 <HAL_GetTick>
 80039c2:	1bc0      	subs	r0, r0, r7
 80039c4:	4548      	cmp	r0, r9
 80039c6:	d9b3      	bls.n	8003930 <HAL_RCC_OscConfig+0x304>
 80039c8:	e6d4      	b.n	8003774 <HAL_RCC_OscConfig+0x148>
 80039ca:	6a6b      	ldr	r3, [r5, #36]	; 0x24
 80039cc:	b19b      	cbz	r3, 80039f6 <HAL_RCC_OscConfig+0x3ca>
 80039ce:	f8d4 3098 	ldr.w	r3, [r4, #152]	; 0x98
 80039d2:	f043 0301 	orr.w	r3, r3, #1
 80039d6:	f8c4 3098 	str.w	r3, [r4, #152]	; 0x98
 80039da:	f7fe fd03 	bl	80023e4 <HAL_GetTick>
 80039de:	4607      	mov	r7, r0
 80039e0:	f8d4 3098 	ldr.w	r3, [r4, #152]	; 0x98
 80039e4:	079a      	lsls	r2, r3, #30
 80039e6:	f53f aeb9 	bmi.w	800375c <HAL_RCC_OscConfig+0x130>
 80039ea:	f7fe fcfb 	bl	80023e4 <HAL_GetTick>
 80039ee:	1bc0      	subs	r0, r0, r7
 80039f0:	2802      	cmp	r0, #2
 80039f2:	d9f5      	bls.n	80039e0 <HAL_RCC_OscConfig+0x3b4>
 80039f4:	e6be      	b.n	8003774 <HAL_RCC_OscConfig+0x148>
 80039f6:	f8d4 3098 	ldr.w	r3, [r4, #152]	; 0x98
 80039fa:	f023 0301 	bic.w	r3, r3, #1
 80039fe:	f8c4 3098 	str.w	r3, [r4, #152]	; 0x98
 8003a02:	f7fe fcef 	bl	80023e4 <HAL_GetTick>
 8003a06:	4607      	mov	r7, r0
 8003a08:	f8d4 3098 	ldr.w	r3, [r4, #152]	; 0x98
 8003a0c:	079b      	lsls	r3, r3, #30
 8003a0e:	f57f aea5 	bpl.w	800375c <HAL_RCC_OscConfig+0x130>
 8003a12:	f7fe fce7 	bl	80023e4 <HAL_GetTick>
 8003a16:	1bc0      	subs	r0, r0, r7
 8003a18:	2802      	cmp	r0, #2
 8003a1a:	d9f5      	bls.n	8003a08 <HAL_RCC_OscConfig+0x3dc>
 8003a1c:	e6aa      	b.n	8003774 <HAL_RCC_OscConfig+0x148>
 8003a1e:	2b02      	cmp	r3, #2
 8003a20:	f040 808c 	bne.w	8003b3c <HAL_RCC_OscConfig+0x510>
 8003a24:	68e3      	ldr	r3, [r4, #12]
 8003a26:	6aea      	ldr	r2, [r5, #44]	; 0x2c
 8003a28:	f003 0103 	and.w	r1, r3, #3
 8003a2c:	4291      	cmp	r1, r2
 8003a2e:	d122      	bne.n	8003a76 <HAL_RCC_OscConfig+0x44a>
 8003a30:	6b29      	ldr	r1, [r5, #48]	; 0x30
 8003a32:	f003 02f0 	and.w	r2, r3, #240	; 0xf0
 8003a36:	3901      	subs	r1, #1
 8003a38:	ebb2 1f01 	cmp.w	r2, r1, lsl #4
 8003a3c:	d11b      	bne.n	8003a76 <HAL_RCC_OscConfig+0x44a>
 8003a3e:	6b69      	ldr	r1, [r5, #52]	; 0x34
 8003a40:	f403 42fe 	and.w	r2, r3, #32512	; 0x7f00
 8003a44:	ebb2 2f01 	cmp.w	r2, r1, lsl #8
 8003a48:	d115      	bne.n	8003a76 <HAL_RCC_OscConfig+0x44a>
 8003a4a:	6ba9      	ldr	r1, [r5, #56]	; 0x38
 8003a4c:	f003 4278 	and.w	r2, r3, #4160749568	; 0xf8000000
 8003a50:	ebb2 6fc1 	cmp.w	r2, r1, lsl #27
 8003a54:	d10f      	bne.n	8003a76 <HAL_RCC_OscConfig+0x44a>
 8003a56:	6bea      	ldr	r2, [r5, #60]	; 0x3c
 8003a58:	0852      	lsrs	r2, r2, #1
 8003a5a:	f403 01c0 	and.w	r1, r3, #6291456	; 0x600000
 8003a5e:	3a01      	subs	r2, #1
 8003a60:	ebb1 5f42 	cmp.w	r1, r2, lsl #21
 8003a64:	d107      	bne.n	8003a76 <HAL_RCC_OscConfig+0x44a>
 8003a66:	6c2a      	ldr	r2, [r5, #64]	; 0x40
 8003a68:	0852      	lsrs	r2, r2, #1
 8003a6a:	f003 63c0 	and.w	r3, r3, #100663296	; 0x6000000
 8003a6e:	3a01      	subs	r2, #1
 8003a70:	ebb3 6f42 	cmp.w	r3, r2, lsl #25
 8003a74:	d049      	beq.n	8003b0a <HAL_RCC_OscConfig+0x4de>
 8003a76:	2e0c      	cmp	r6, #12
 8003a78:	f43f addc 	beq.w	8003634 <HAL_RCC_OscConfig+0x8>
 8003a7c:	6823      	ldr	r3, [r4, #0]
 8003a7e:	015f      	lsls	r7, r3, #5
 8003a80:	f53f add8 	bmi.w	8003634 <HAL_RCC_OscConfig+0x8>
 8003a84:	6823      	ldr	r3, [r4, #0]
 8003a86:	00de      	lsls	r6, r3, #3
 8003a88:	f53f add4 	bmi.w	8003634 <HAL_RCC_OscConfig+0x8>
 8003a8c:	6823      	ldr	r3, [r4, #0]
 8003a8e:	f023 7380 	bic.w	r3, r3, #16777216	; 0x1000000
 8003a92:	6023      	str	r3, [r4, #0]
 8003a94:	f7fe fca6 	bl	80023e4 <HAL_GetTick>
 8003a98:	4606      	mov	r6, r0
 8003a9a:	6823      	ldr	r3, [r4, #0]
 8003a9c:	0198      	lsls	r0, r3, #6
 8003a9e:	d42e      	bmi.n	8003afe <HAL_RCC_OscConfig+0x4d2>
 8003aa0:	68e2      	ldr	r2, [r4, #12]
 8003aa2:	4b34      	ldr	r3, [pc, #208]	; (8003b74 <HAL_RCC_OscConfig+0x548>)
 8003aa4:	4013      	ands	r3, r2
 8003aa6:	6aea      	ldr	r2, [r5, #44]	; 0x2c
 8003aa8:	4313      	orrs	r3, r2
 8003aaa:	6b6a      	ldr	r2, [r5, #52]	; 0x34
 8003aac:	ea43 2302 	orr.w	r3, r3, r2, lsl #8
 8003ab0:	6baa      	ldr	r2, [r5, #56]	; 0x38
 8003ab2:	ea43 63c2 	orr.w	r3, r3, r2, lsl #27
 8003ab6:	6b2a      	ldr	r2, [r5, #48]	; 0x30
 8003ab8:	3a01      	subs	r2, #1
 8003aba:	ea43 1302 	orr.w	r3, r3, r2, lsl #4
 8003abe:	6bea      	ldr	r2, [r5, #60]	; 0x3c
 8003ac0:	0852      	lsrs	r2, r2, #1
 8003ac2:	3a01      	subs	r2, #1
 8003ac4:	ea43 5342 	orr.w	r3, r3, r2, lsl #21
 8003ac8:	6c2a      	ldr	r2, [r5, #64]	; 0x40
 8003aca:	0852      	lsrs	r2, r2, #1
 8003acc:	3a01      	subs	r2, #1
 8003ace:	ea43 6342 	orr.w	r3, r3, r2, lsl #25
 8003ad2:	60e3      	str	r3, [r4, #12]
 8003ad4:	6823      	ldr	r3, [r4, #0]
 8003ad6:	f043 7380 	orr.w	r3, r3, #16777216	; 0x1000000
 8003ada:	6023      	str	r3, [r4, #0]
 8003adc:	68e3      	ldr	r3, [r4, #12]
 8003ade:	f043 7380 	orr.w	r3, r3, #16777216	; 0x1000000
 8003ae2:	60e3      	str	r3, [r4, #12]
 8003ae4:	f7fe fc7e 	bl	80023e4 <HAL_GetTick>
 8003ae8:	4605      	mov	r5, r0
 8003aea:	6823      	ldr	r3, [r4, #0]
 8003aec:	0199      	lsls	r1, r3, #6
 8003aee:	f53f ae39 	bmi.w	8003764 <HAL_RCC_OscConfig+0x138>
 8003af2:	f7fe fc77 	bl	80023e4 <HAL_GetTick>
 8003af6:	1b40      	subs	r0, r0, r5
 8003af8:	2802      	cmp	r0, #2
 8003afa:	d9f6      	bls.n	8003aea <HAL_RCC_OscConfig+0x4be>
 8003afc:	e63a      	b.n	8003774 <HAL_RCC_OscConfig+0x148>
 8003afe:	f7fe fc71 	bl	80023e4 <HAL_GetTick>
 8003b02:	1b80      	subs	r0, r0, r6
 8003b04:	2802      	cmp	r0, #2
 8003b06:	d9c8      	bls.n	8003a9a <HAL_RCC_OscConfig+0x46e>
 8003b08:	e634      	b.n	8003774 <HAL_RCC_OscConfig+0x148>
 8003b0a:	6823      	ldr	r3, [r4, #0]
 8003b0c:	019a      	lsls	r2, r3, #6
 8003b0e:	f53f ae29 	bmi.w	8003764 <HAL_RCC_OscConfig+0x138>
 8003b12:	6823      	ldr	r3, [r4, #0]
 8003b14:	f043 7380 	orr.w	r3, r3, #16777216	; 0x1000000
 8003b18:	6023      	str	r3, [r4, #0]
 8003b1a:	68e3      	ldr	r3, [r4, #12]
 8003b1c:	f043 7380 	orr.w	r3, r3, #16777216	; 0x1000000
 8003b20:	60e3      	str	r3, [r4, #12]
 8003b22:	f7fe fc5f 	bl	80023e4 <HAL_GetTick>
 8003b26:	4605      	mov	r5, r0
 8003b28:	6823      	ldr	r3, [r4, #0]
 8003b2a:	019b      	lsls	r3, r3, #6
 8003b2c:	f53f ae1a 	bmi.w	8003764 <HAL_RCC_OscConfig+0x138>
 8003b30:	f7fe fc58 	bl	80023e4 <HAL_GetTick>
 8003b34:	1b40      	subs	r0, r0, r5
 8003b36:	2802      	cmp	r0, #2
 8003b38:	d9f6      	bls.n	8003b28 <HAL_RCC_OscConfig+0x4fc>
 8003b3a:	e61b      	b.n	8003774 <HAL_RCC_OscConfig+0x148>
 8003b3c:	2e0c      	cmp	r6, #12
 8003b3e:	f43f ad79 	beq.w	8003634 <HAL_RCC_OscConfig+0x8>
 8003b42:	6823      	ldr	r3, [r4, #0]
 8003b44:	f023 7380 	bic.w	r3, r3, #16777216	; 0x1000000
 8003b48:	6023      	str	r3, [r4, #0]
 8003b4a:	f7fe fc4b 	bl	80023e4 <HAL_GetTick>
 8003b4e:	4605      	mov	r5, r0
 8003b50:	6823      	ldr	r3, [r4, #0]
 8003b52:	f013 7300 	ands.w	r3, r3, #33554432	; 0x2000000
 8003b56:	d104      	bne.n	8003b62 <HAL_RCC_OscConfig+0x536>
 8003b58:	68e1      	ldr	r1, [r4, #12]
 8003b5a:	4a07      	ldr	r2, [pc, #28]	; (8003b78 <HAL_RCC_OscConfig+0x54c>)
 8003b5c:	400a      	ands	r2, r1
 8003b5e:	60e2      	str	r2, [r4, #12]
 8003b60:	e600      	b.n	8003764 <HAL_RCC_OscConfig+0x138>
 8003b62:	f7fe fc3f 	bl	80023e4 <HAL_GetTick>
 8003b66:	1b40      	subs	r0, r0, r5
 8003b68:	2802      	cmp	r0, #2
 8003b6a:	d9f1      	bls.n	8003b50 <HAL_RCC_OscConfig+0x524>
 8003b6c:	e602      	b.n	8003774 <HAL_RCC_OscConfig+0x148>
 8003b6e:	bf00      	nop
 8003b70:	40007000 	.word	0x40007000
 8003b74:	019d800c 	.word	0x019d800c
 8003b78:	feeefffc 	.word	0xfeeefffc

08003b7c <HAL_RCC_ClockConfig>:
 8003b7c:	e92d 43f8 	stmdb	sp!, {r3, r4, r5, r6, r7, r8, r9, lr}
 8003b80:	460e      	mov	r6, r1
 8003b82:	4605      	mov	r5, r0
 8003b84:	b910      	cbnz	r0, 8003b8c <HAL_RCC_ClockConfig+0x10>
 8003b86:	2001      	movs	r0, #1
 8003b88:	e8bd 83f8 	ldmia.w	sp!, {r3, r4, r5, r6, r7, r8, r9, pc}
 8003b8c:	4a74      	ldr	r2, [pc, #464]	; (8003d60 <HAL_RCC_ClockConfig+0x1e4>)
 8003b8e:	6813      	ldr	r3, [r2, #0]
 8003b90:	f003 030f 	and.w	r3, r3, #15
 8003b94:	428b      	cmp	r3, r1
 8003b96:	f0c0 8089 	bcc.w	8003cac <HAL_RCC_ClockConfig+0x130>
 8003b9a:	6829      	ldr	r1, [r5, #0]
 8003b9c:	078f      	lsls	r7, r1, #30
 8003b9e:	f100 8091 	bmi.w	8003cc4 <HAL_RCC_ClockConfig+0x148>
 8003ba2:	07cc      	lsls	r4, r1, #31
 8003ba4:	d54e      	bpl.n	8003c44 <HAL_RCC_ClockConfig+0xc8>
 8003ba6:	686f      	ldr	r7, [r5, #4]
 8003ba8:	4c6e      	ldr	r4, [pc, #440]	; (8003d64 <HAL_RCC_ClockConfig+0x1e8>)
 8003baa:	2f03      	cmp	r7, #3
 8003bac:	6823      	ldr	r3, [r4, #0]
 8003bae:	f040 809c 	bne.w	8003cea <HAL_RCC_ClockConfig+0x16e>
 8003bb2:	0198      	lsls	r0, r3, #6
 8003bb4:	d5e7      	bpl.n	8003b86 <HAL_RCC_ClockConfig+0xa>
 8003bb6:	68e3      	ldr	r3, [r4, #12]
 8003bb8:	f003 0303 	and.w	r3, r3, #3
 8003bbc:	2b02      	cmp	r3, #2
 8003bbe:	f000 808e 	beq.w	8003cde <HAL_RCC_ClockConfig+0x162>
 8003bc2:	2b03      	cmp	r3, #3
 8003bc4:	f000 808d 	beq.w	8003ce2 <HAL_RCC_ClockConfig+0x166>
 8003bc8:	2b01      	cmp	r3, #1
 8003bca:	f040 808c 	bne.w	8003ce6 <HAL_RCC_ClockConfig+0x16a>
 8003bce:	6823      	ldr	r3, [r4, #0]
 8003bd0:	4a65      	ldr	r2, [pc, #404]	; (8003d68 <HAL_RCC_ClockConfig+0x1ec>)
 8003bd2:	0719      	lsls	r1, r3, #28
 8003bd4:	bf55      	itete	pl
 8003bd6:	f8d4 3094 	ldrpl.w	r3, [r4, #148]	; 0x94
 8003bda:	6823      	ldrmi	r3, [r4, #0]
 8003bdc:	f3c3 2303 	ubfxpl	r3, r3, #8, #4
 8003be0:	f3c3 1303 	ubfxmi	r3, r3, #4, #4
 8003be4:	f852 2023 	ldr.w	r2, [r2, r3, lsl #2]
 8003be8:	68e1      	ldr	r1, [r4, #12]
 8003bea:	68e3      	ldr	r3, [r4, #12]
 8003bec:	f3c3 2306 	ubfx	r3, r3, #8, #7
 8003bf0:	4353      	muls	r3, r2
 8003bf2:	68e2      	ldr	r2, [r4, #12]
 8003bf4:	f3c2 6241 	ubfx	r2, r2, #25, #2
 8003bf8:	f3c1 1103 	ubfx	r1, r1, #4, #4
 8003bfc:	3201      	adds	r2, #1
 8003bfe:	0052      	lsls	r2, r2, #1
 8003c00:	3101      	adds	r1, #1
 8003c02:	fbb3 f3f1 	udiv	r3, r3, r1
 8003c06:	fbb3 f3f2 	udiv	r3, r3, r2
 8003c0a:	4a58      	ldr	r2, [pc, #352]	; (8003d6c <HAL_RCC_ClockConfig+0x1f0>)
 8003c0c:	4293      	cmp	r3, r2
 8003c0e:	d87e      	bhi.n	8003d0e <HAL_RCC_ClockConfig+0x192>
 8003c10:	f04f 0800 	mov.w	r8, #0
 8003c14:	68a3      	ldr	r3, [r4, #8]
 8003c16:	f023 0303 	bic.w	r3, r3, #3
 8003c1a:	433b      	orrs	r3, r7
 8003c1c:	60a3      	str	r3, [r4, #8]
 8003c1e:	f7fe fbe1 	bl	80023e4 <HAL_GetTick>
 8003c22:	f241 3988 	movw	r9, #5000	; 0x1388
 8003c26:	4607      	mov	r7, r0
 8003c28:	68a3      	ldr	r3, [r4, #8]
 8003c2a:	686a      	ldr	r2, [r5, #4]
 8003c2c:	f003 030c 	and.w	r3, r3, #12
 8003c30:	ebb3 0f82 	cmp.w	r3, r2, lsl #2
 8003c34:	d179      	bne.n	8003d2a <HAL_RCC_ClockConfig+0x1ae>
 8003c36:	f1b8 0f00 	cmp.w	r8, #0
 8003c3a:	d003      	beq.n	8003c44 <HAL_RCC_ClockConfig+0xc8>
 8003c3c:	68a3      	ldr	r3, [r4, #8]
 8003c3e:	f023 03f0 	bic.w	r3, r3, #240	; 0xf0
 8003c42:	60a3      	str	r3, [r4, #8]
 8003c44:	6829      	ldr	r1, [r5, #0]
 8003c46:	078a      	lsls	r2, r1, #30
 8003c48:	d50b      	bpl.n	8003c62 <HAL_RCC_ClockConfig+0xe6>
 8003c4a:	4a46      	ldr	r2, [pc, #280]	; (8003d64 <HAL_RCC_ClockConfig+0x1e8>)
 8003c4c:	68a8      	ldr	r0, [r5, #8]
 8003c4e:	6893      	ldr	r3, [r2, #8]
 8003c50:	f003 03f0 	and.w	r3, r3, #240	; 0xf0
 8003c54:	4298      	cmp	r0, r3
 8003c56:	bf3f      	itttt	cc
 8003c58:	6893      	ldrcc	r3, [r2, #8]
 8003c5a:	f023 03f0 	biccc.w	r3, r3, #240	; 0xf0
 8003c5e:	4303      	orrcc	r3, r0
 8003c60:	6093      	strcc	r3, [r2, #8]
 8003c62:	4a3f      	ldr	r2, [pc, #252]	; (8003d60 <HAL_RCC_ClockConfig+0x1e4>)
 8003c64:	6813      	ldr	r3, [r2, #0]
 8003c66:	f003 030f 	and.w	r3, r3, #15
 8003c6a:	42b3      	cmp	r3, r6
 8003c6c:	d865      	bhi.n	8003d3a <HAL_RCC_ClockConfig+0x1be>
 8003c6e:	f011 0f04 	tst.w	r1, #4
 8003c72:	4c3c      	ldr	r4, [pc, #240]	; (8003d64 <HAL_RCC_ClockConfig+0x1e8>)
 8003c74:	d16d      	bne.n	8003d52 <HAL_RCC_ClockConfig+0x1d6>
 8003c76:	070b      	lsls	r3, r1, #28
 8003c78:	d506      	bpl.n	8003c88 <HAL_RCC_ClockConfig+0x10c>
 8003c7a:	68a3      	ldr	r3, [r4, #8]
 8003c7c:	692a      	ldr	r2, [r5, #16]
 8003c7e:	f423 5360 	bic.w	r3, r3, #14336	; 0x3800
 8003c82:	ea43 03c2 	orr.w	r3, r3, r2, lsl #3
 8003c86:	60a3      	str	r3, [r4, #8]
 8003c88:	f7ff fc82 	bl	8003590 <HAL_RCC_GetSysClockFreq>
 8003c8c:	68a3      	ldr	r3, [r4, #8]
 8003c8e:	4a38      	ldr	r2, [pc, #224]	; (8003d70 <HAL_RCC_ClockConfig+0x1f4>)
 8003c90:	f3c3 1303 	ubfx	r3, r3, #4, #4
 8003c94:	5cd3      	ldrb	r3, [r2, r3]
 8003c96:	f003 031f 	and.w	r3, r3, #31
 8003c9a:	40d8      	lsrs	r0, r3
 8003c9c:	4b35      	ldr	r3, [pc, #212]	; (8003d74 <HAL_RCC_ClockConfig+0x1f8>)
 8003c9e:	6018      	str	r0, [r3, #0]
 8003ca0:	4b35      	ldr	r3, [pc, #212]	; (8003d78 <HAL_RCC_ClockConfig+0x1fc>)
 8003ca2:	6818      	ldr	r0, [r3, #0]
 8003ca4:	e8bd 43f8 	ldmia.w	sp!, {r3, r4, r5, r6, r7, r8, r9, lr}
 8003ca8:	f7fe b838 	b.w	8001d1c <HAL_InitTick>
 8003cac:	6813      	ldr	r3, [r2, #0]
 8003cae:	f023 030f 	bic.w	r3, r3, #15
 8003cb2:	430b      	orrs	r3, r1
 8003cb4:	6013      	str	r3, [r2, #0]
 8003cb6:	6813      	ldr	r3, [r2, #0]
 8003cb8:	f003 030f 	and.w	r3, r3, #15
 8003cbc:	428b      	cmp	r3, r1
 8003cbe:	f47f af62 	bne.w	8003b86 <HAL_RCC_ClockConfig+0xa>
 8003cc2:	e76a      	b.n	8003b9a <HAL_RCC_ClockConfig+0x1e>
 8003cc4:	4a27      	ldr	r2, [pc, #156]	; (8003d64 <HAL_RCC_ClockConfig+0x1e8>)
 8003cc6:	68a8      	ldr	r0, [r5, #8]
 8003cc8:	6893      	ldr	r3, [r2, #8]
 8003cca:	f003 03f0 	and.w	r3, r3, #240	; 0xf0
 8003cce:	4298      	cmp	r0, r3
 8003cd0:	bf81      	itttt	hi
 8003cd2:	6893      	ldrhi	r3, [r2, #8]
 8003cd4:	f023 03f0 	bichi.w	r3, r3, #240	; 0xf0
 8003cd8:	4303      	orrhi	r3, r0
 8003cda:	6093      	strhi	r3, [r2, #8]
 8003cdc:	e761      	b.n	8003ba2 <HAL_RCC_ClockConfig+0x26>
 8003cde:	4a27      	ldr	r2, [pc, #156]	; (8003d7c <HAL_RCC_ClockConfig+0x200>)
 8003ce0:	e782      	b.n	8003be8 <HAL_RCC_ClockConfig+0x6c>
 8003ce2:	4a27      	ldr	r2, [pc, #156]	; (8003d80 <HAL_RCC_ClockConfig+0x204>)
 8003ce4:	e780      	b.n	8003be8 <HAL_RCC_ClockConfig+0x6c>
 8003ce6:	2200      	movs	r2, #0
 8003ce8:	e77e      	b.n	8003be8 <HAL_RCC_ClockConfig+0x6c>
 8003cea:	2f02      	cmp	r7, #2
 8003cec:	d108      	bne.n	8003d00 <HAL_RCC_ClockConfig+0x184>
 8003cee:	f413 3f00 	tst.w	r3, #131072	; 0x20000
 8003cf2:	f43f af48 	beq.w	8003b86 <HAL_RCC_ClockConfig+0xa>
 8003cf6:	f7ff fc4b 	bl	8003590 <HAL_RCC_GetSysClockFreq>
 8003cfa:	4b1c      	ldr	r3, [pc, #112]	; (8003d6c <HAL_RCC_ClockConfig+0x1f0>)
 8003cfc:	4298      	cmp	r0, r3
 8003cfe:	e786      	b.n	8003c0e <HAL_RCC_ClockConfig+0x92>
 8003d00:	b917      	cbnz	r7, 8003d08 <HAL_RCC_ClockConfig+0x18c>
 8003d02:	f013 0f02 	tst.w	r3, #2
 8003d06:	e7f4      	b.n	8003cf2 <HAL_RCC_ClockConfig+0x176>
 8003d08:	f413 6f80 	tst.w	r3, #1024	; 0x400
 8003d0c:	e7f1      	b.n	8003cf2 <HAL_RCC_ClockConfig+0x176>
 8003d0e:	68a3      	ldr	r3, [r4, #8]
 8003d10:	f013 0ff0 	tst.w	r3, #240	; 0xf0
 8003d14:	f47f af7c 	bne.w	8003c10 <HAL_RCC_ClockConfig+0x94>
 8003d18:	68a3      	ldr	r3, [r4, #8]
 8003d1a:	f023 03f0 	bic.w	r3, r3, #240	; 0xf0
 8003d1e:	f043 0380 	orr.w	r3, r3, #128	; 0x80
 8003d22:	60a3      	str	r3, [r4, #8]
 8003d24:	f04f 0880 	mov.w	r8, #128	; 0x80
 8003d28:	e774      	b.n	8003c14 <HAL_RCC_ClockConfig+0x98>
 8003d2a:	f7fe fb5b 	bl	80023e4 <HAL_GetTick>
 8003d2e:	1bc0      	subs	r0, r0, r7
 8003d30:	4548      	cmp	r0, r9
 8003d32:	f67f af79 	bls.w	8003c28 <HAL_RCC_ClockConfig+0xac>
 8003d36:	2003      	movs	r0, #3
 8003d38:	e726      	b.n	8003b88 <HAL_RCC_ClockConfig+0xc>
 8003d3a:	6813      	ldr	r3, [r2, #0]
 8003d3c:	f023 030f 	bic.w	r3, r3, #15
 8003d40:	4333      	orrs	r3, r6
 8003d42:	6013      	str	r3, [r2, #0]
 8003d44:	6813      	ldr	r3, [r2, #0]
 8003d46:	f003 030f 	and.w	r3, r3, #15
 8003d4a:	42b3      	cmp	r3, r6
 8003d4c:	f47f af1b 	bne.w	8003b86 <HAL_RCC_ClockConfig+0xa>
 8003d50:	e78d      	b.n	8003c6e <HAL_RCC_ClockConfig+0xf2>
 8003d52:	68a3      	ldr	r3, [r4, #8]
 8003d54:	68ea      	ldr	r2, [r5, #12]
 8003d56:	f423 63e0 	bic.w	r3, r3, #1792	; 0x700
 8003d5a:	4313      	orrs	r3, r2
 8003d5c:	60a3      	str	r3, [r4, #8]
 8003d5e:	e78a      	b.n	8003c76 <HAL_RCC_ClockConfig+0xfa>
 8003d60:	40022000 	.word	0x40022000
 8003d64:	40021000 	.word	0x40021000
 8003d68:	08008954 	.word	0x08008954
 8003d6c:	04c4b400 	.word	0x04c4b400
 8003d70:	0800893c 	.word	0x0800893c
 8003d74:	20000008 	.word	0x20000008
 8003d78:	200000a0 	.word	0x200000a0
 8003d7c:	00f42400 	.word	0x00f42400
 8003d80:	007a1200 	.word	0x007a1200

08003d84 <HAL_RCC_GetPCLK1Freq>:
 8003d84:	4b05      	ldr	r3, [pc, #20]	; (8003d9c <HAL_RCC_GetPCLK1Freq+0x18>)
 8003d86:	4a06      	ldr	r2, [pc, #24]	; (8003da0 <HAL_RCC_GetPCLK1Freq+0x1c>)
 8003d88:	689b      	ldr	r3, [r3, #8]
 8003d8a:	f3c3 2302 	ubfx	r3, r3, #8, #3
 8003d8e:	5cd3      	ldrb	r3, [r2, r3]
 8003d90:	4a04      	ldr	r2, [pc, #16]	; (8003da4 <HAL_RCC_GetPCLK1Freq+0x20>)
 8003d92:	6810      	ldr	r0, [r2, #0]
 8003d94:	f003 031f 	and.w	r3, r3, #31
 8003d98:	40d8      	lsrs	r0, r3
 8003d9a:	4770      	bx	lr
 8003d9c:	40021000 	.word	0x40021000
 8003da0:	0800894c 	.word	0x0800894c
 8003da4:	20000008 	.word	0x20000008

08003da8 <HAL_RCC_GetPCLK2Freq>:
 8003da8:	4b05      	ldr	r3, [pc, #20]	; (8003dc0 <HAL_RCC_GetPCLK2Freq+0x18>)
 8003daa:	4a06      	ldr	r2, [pc, #24]	; (8003dc4 <HAL_RCC_GetPCLK2Freq+0x1c>)
 8003dac:	689b      	ldr	r3, [r3, #8]
 8003dae:	f3c3 23c2 	ubfx	r3, r3, #11, #3
 8003db2:	5cd3      	ldrb	r3, [r2, r3]
 8003db4:	4a04      	ldr	r2, [pc, #16]	; (8003dc8 <HAL_RCC_GetPCLK2Freq+0x20>)
 8003db6:	6810      	ldr	r0, [r2, #0]
 8003db8:	f003 031f 	and.w	r3, r3, #31
 8003dbc:	40d8      	lsrs	r0, r3
 8003dbe:	4770      	bx	lr
 8003dc0:	40021000 	.word	0x40021000
 8003dc4:	0800894c 	.word	0x0800894c
 8003dc8:	20000008 	.word	0x20000008

08003dcc <HAL_RCC_GetClockConfig>:
 8003dcc:	230f      	movs	r3, #15
 8003dce:	6003      	str	r3, [r0, #0]
 8003dd0:	4b0b      	ldr	r3, [pc, #44]	; (8003e00 <HAL_RCC_GetClockConfig+0x34>)
 8003dd2:	689a      	ldr	r2, [r3, #8]
 8003dd4:	f002 0203 	and.w	r2, r2, #3
 8003dd8:	6042      	str	r2, [r0, #4]
 8003dda:	689a      	ldr	r2, [r3, #8]
 8003ddc:	f002 02f0 	and.w	r2, r2, #240	; 0xf0
 8003de0:	6082      	str	r2, [r0, #8]
 8003de2:	689a      	ldr	r2, [r3, #8]
 8003de4:	f402 62e0 	and.w	r2, r2, #1792	; 0x700
 8003de8:	60c2      	str	r2, [r0, #12]
 8003dea:	689b      	ldr	r3, [r3, #8]
 8003dec:	08db      	lsrs	r3, r3, #3
 8003dee:	f403 63e0 	and.w	r3, r3, #1792	; 0x700
 8003df2:	6103      	str	r3, [r0, #16]
 8003df4:	4b03      	ldr	r3, [pc, #12]	; (8003e04 <HAL_RCC_GetClockConfig+0x38>)
 8003df6:	681b      	ldr	r3, [r3, #0]
 8003df8:	f003 030f 	and.w	r3, r3, #15
 8003dfc:	600b      	str	r3, [r1, #0]
 8003dfe:	4770      	bx	lr
 8003e00:	40021000 	.word	0x40021000
 8003e04:	40022000 	.word	0x40022000

08003e08 <RCCEx_PLLSAI1_Config>:
 8003e08:	b5f8      	push	{r3, r4, r5, r6, r7, lr}
 8003e0a:	4c3b      	ldr	r4, [pc, #236]	; (8003ef8 <RCCEx_PLLSAI1_Config+0xf0>)
 8003e0c:	68e2      	ldr	r2, [r4, #12]
 8003e0e:	0793      	lsls	r3, r2, #30
 8003e10:	4605      	mov	r5, r0
 8003e12:	460e      	mov	r6, r1
 8003e14:	6800      	ldr	r0, [r0, #0]
 8003e16:	d022      	beq.n	8003e5e <RCCEx_PLLSAI1_Config+0x56>
 8003e18:	68e2      	ldr	r2, [r4, #12]
 8003e1a:	f002 0203 	and.w	r2, r2, #3
 8003e1e:	4282      	cmp	r2, r0
 8003e20:	d130      	bne.n	8003e84 <RCCEx_PLLSAI1_Config+0x7c>
 8003e22:	b37a      	cbz	r2, 8003e84 <RCCEx_PLLSAI1_Config+0x7c>
 8003e24:	6823      	ldr	r3, [r4, #0]
 8003e26:	f023 6380 	bic.w	r3, r3, #67108864	; 0x4000000
 8003e2a:	6023      	str	r3, [r4, #0]
 8003e2c:	f7fe fada 	bl	80023e4 <HAL_GetTick>
 8003e30:	4607      	mov	r7, r0
 8003e32:	6823      	ldr	r3, [r4, #0]
 8003e34:	011a      	lsls	r2, r3, #4
 8003e36:	d42e      	bmi.n	8003e96 <RCCEx_PLLSAI1_Config+0x8e>
 8003e38:	686a      	ldr	r2, [r5, #4]
 8003e3a:	68a8      	ldr	r0, [r5, #8]
 8003e3c:	3a01      	subs	r2, #1
 8003e3e:	0200      	lsls	r0, r0, #8
 8003e40:	0112      	lsls	r2, r2, #4
 8003e42:	b37e      	cbz	r6, 8003ea4 <RCCEx_PLLSAI1_Config+0x9c>
 8003e44:	2e01      	cmp	r6, #1
 8003e46:	6926      	ldr	r6, [r4, #16]
 8003e48:	d145      	bne.n	8003ed6 <RCCEx_PLLSAI1_Config+0xce>
 8003e4a:	692b      	ldr	r3, [r5, #16]
 8003e4c:	085b      	lsrs	r3, r3, #1
 8003e4e:	1e59      	subs	r1, r3, #1
 8003e50:	4b2a      	ldr	r3, [pc, #168]	; (8003efc <RCCEx_PLLSAI1_Config+0xf4>)
 8003e52:	4033      	ands	r3, r6
 8003e54:	4303      	orrs	r3, r0
 8003e56:	4313      	orrs	r3, r2
 8003e58:	ea43 5341 	orr.w	r3, r3, r1, lsl #21
 8003e5c:	e02a      	b.n	8003eb4 <RCCEx_PLLSAI1_Config+0xac>
 8003e5e:	2802      	cmp	r0, #2
 8003e60:	d00c      	beq.n	8003e7c <RCCEx_PLLSAI1_Config+0x74>
 8003e62:	2803      	cmp	r0, #3
 8003e64:	d010      	beq.n	8003e88 <RCCEx_PLLSAI1_Config+0x80>
 8003e66:	2801      	cmp	r0, #1
 8003e68:	d10c      	bne.n	8003e84 <RCCEx_PLLSAI1_Config+0x7c>
 8003e6a:	6822      	ldr	r2, [r4, #0]
 8003e6c:	0797      	lsls	r7, r2, #30
 8003e6e:	d518      	bpl.n	8003ea2 <RCCEx_PLLSAI1_Config+0x9a>
 8003e70:	68e2      	ldr	r2, [r4, #12]
 8003e72:	f022 0203 	bic.w	r2, r2, #3
 8003e76:	4302      	orrs	r2, r0
 8003e78:	60e2      	str	r2, [r4, #12]
 8003e7a:	e7d3      	b.n	8003e24 <RCCEx_PLLSAI1_Config+0x1c>
 8003e7c:	6822      	ldr	r2, [r4, #0]
 8003e7e:	f412 6f80 	tst.w	r2, #1024	; 0x400
 8003e82:	d1f5      	bne.n	8003e70 <RCCEx_PLLSAI1_Config+0x68>
 8003e84:	2001      	movs	r0, #1
 8003e86:	e00c      	b.n	8003ea2 <RCCEx_PLLSAI1_Config+0x9a>
 8003e88:	6822      	ldr	r2, [r4, #0]
 8003e8a:	0391      	lsls	r1, r2, #14
 8003e8c:	d4f0      	bmi.n	8003e70 <RCCEx_PLLSAI1_Config+0x68>
 8003e8e:	6822      	ldr	r2, [r4, #0]
 8003e90:	f412 2f80 	tst.w	r2, #262144	; 0x40000
 8003e94:	e7f5      	b.n	8003e82 <RCCEx_PLLSAI1_Config+0x7a>
 8003e96:	f7fe faa5 	bl	80023e4 <HAL_GetTick>
 8003e9a:	1bc0      	subs	r0, r0, r7
 8003e9c:	2802      	cmp	r0, #2
 8003e9e:	d9c8      	bls.n	8003e32 <RCCEx_PLLSAI1_Config+0x2a>
 8003ea0:	2003      	movs	r0, #3
 8003ea2:	bdf8      	pop	{r3, r4, r5, r6, r7, pc}
 8003ea4:	6926      	ldr	r6, [r4, #16]
 8003ea6:	68eb      	ldr	r3, [r5, #12]
 8003ea8:	4915      	ldr	r1, [pc, #84]	; (8003f00 <RCCEx_PLLSAI1_Config+0xf8>)
 8003eaa:	ea40 63c3 	orr.w	r3, r0, r3, lsl #27
 8003eae:	4031      	ands	r1, r6
 8003eb0:	430b      	orrs	r3, r1
 8003eb2:	4313      	orrs	r3, r2
 8003eb4:	6123      	str	r3, [r4, #16]
 8003eb6:	6823      	ldr	r3, [r4, #0]
 8003eb8:	f043 6380 	orr.w	r3, r3, #67108864	; 0x4000000
 8003ebc:	6023      	str	r3, [r4, #0]
 8003ebe:	f7fe fa91 	bl	80023e4 <HAL_GetTick>
 8003ec2:	4606      	mov	r6, r0
 8003ec4:	6823      	ldr	r3, [r4, #0]
 8003ec6:	011b      	lsls	r3, r3, #4
 8003ec8:	d50f      	bpl.n	8003eea <RCCEx_PLLSAI1_Config+0xe2>
 8003eca:	6923      	ldr	r3, [r4, #16]
 8003ecc:	69aa      	ldr	r2, [r5, #24]
 8003ece:	4313      	orrs	r3, r2
 8003ed0:	6123      	str	r3, [r4, #16]
 8003ed2:	2000      	movs	r0, #0
 8003ed4:	e7e5      	b.n	8003ea2 <RCCEx_PLLSAI1_Config+0x9a>
 8003ed6:	696b      	ldr	r3, [r5, #20]
 8003ed8:	085b      	lsrs	r3, r3, #1
 8003eda:	1e59      	subs	r1, r3, #1
 8003edc:	4b09      	ldr	r3, [pc, #36]	; (8003f04 <RCCEx_PLLSAI1_Config+0xfc>)
 8003ede:	4033      	ands	r3, r6
 8003ee0:	4303      	orrs	r3, r0
 8003ee2:	4313      	orrs	r3, r2
 8003ee4:	ea43 6341 	orr.w	r3, r3, r1, lsl #25
 8003ee8:	e7e4      	b.n	8003eb4 <RCCEx_PLLSAI1_Config+0xac>
 8003eea:	f7fe fa7b 	bl	80023e4 <HAL_GetTick>
 8003eee:	1b80      	subs	r0, r0, r6
 8003ef0:	2802      	cmp	r0, #2
 8003ef2:	d9e7      	bls.n	8003ec4 <RCCEx_PLLSAI1_Config+0xbc>
 8003ef4:	e7d4      	b.n	8003ea0 <RCCEx_PLLSAI1_Config+0x98>
 8003ef6:	bf00      	nop
 8003ef8:	40021000 	.word	0x40021000
 8003efc:	ff9f800f 	.word	0xff9f800f
 8003f00:	07ff800f 	.word	0x07ff800f
 8003f04:	f9ff800f 	.word	0xf9ff800f

08003f08 <RCCEx_PLLSAI2_Config.constprop.0>:
 8003f08:	b570      	push	{r4, r5, r6, lr}
 8003f0a:	4c2f      	ldr	r4, [pc, #188]	; (8003fc8 <RCCEx_PLLSAI2_Config.constprop.0+0xc0>)
 8003f0c:	68e2      	ldr	r2, [r4, #12]
 8003f0e:	0793      	lsls	r3, r2, #30
 8003f10:	4605      	mov	r5, r0
 8003f12:	6800      	ldr	r0, [r0, #0]
 8003f14:	d026      	beq.n	8003f64 <RCCEx_PLLSAI2_Config.constprop.0+0x5c>
 8003f16:	68e2      	ldr	r2, [r4, #12]
 8003f18:	f002 0203 	and.w	r2, r2, #3
 8003f1c:	4282      	cmp	r2, r0
 8003f1e:	d134      	bne.n	8003f8a <RCCEx_PLLSAI2_Config.constprop.0+0x82>
 8003f20:	2a00      	cmp	r2, #0
 8003f22:	d032      	beq.n	8003f8a <RCCEx_PLLSAI2_Config.constprop.0+0x82>
 8003f24:	6823      	ldr	r3, [r4, #0]
 8003f26:	f023 5380 	bic.w	r3, r3, #268435456	; 0x10000000
 8003f2a:	6023      	str	r3, [r4, #0]
 8003f2c:	f7fe fa5a 	bl	80023e4 <HAL_GetTick>
 8003f30:	4606      	mov	r6, r0
 8003f32:	6823      	ldr	r3, [r4, #0]
 8003f34:	009a      	lsls	r2, r3, #2
 8003f36:	d431      	bmi.n	8003f9c <RCCEx_PLLSAI2_Config.constprop.0+0x94>
 8003f38:	e9d5 2302 	ldrd	r2, r3, [r5, #8]
 8003f3c:	06db      	lsls	r3, r3, #27
 8003f3e:	6961      	ldr	r1, [r4, #20]
 8003f40:	ea43 2302 	orr.w	r3, r3, r2, lsl #8
 8003f44:	4a21      	ldr	r2, [pc, #132]	; (8003fcc <RCCEx_PLLSAI2_Config.constprop.0+0xc4>)
 8003f46:	400a      	ands	r2, r1
 8003f48:	4313      	orrs	r3, r2
 8003f4a:	686a      	ldr	r2, [r5, #4]
 8003f4c:	3a01      	subs	r2, #1
 8003f4e:	ea43 1302 	orr.w	r3, r3, r2, lsl #4
 8003f52:	6163      	str	r3, [r4, #20]
 8003f54:	6823      	ldr	r3, [r4, #0]
 8003f56:	f043 5380 	orr.w	r3, r3, #268435456	; 0x10000000
 8003f5a:	6023      	str	r3, [r4, #0]
 8003f5c:	f7fe fa42 	bl	80023e4 <HAL_GetTick>
 8003f60:	4606      	mov	r6, r0
 8003f62:	e027      	b.n	8003fb4 <RCCEx_PLLSAI2_Config.constprop.0+0xac>
 8003f64:	2802      	cmp	r0, #2
 8003f66:	d00c      	beq.n	8003f82 <RCCEx_PLLSAI2_Config.constprop.0+0x7a>
 8003f68:	2803      	cmp	r0, #3
 8003f6a:	d010      	beq.n	8003f8e <RCCEx_PLLSAI2_Config.constprop.0+0x86>
 8003f6c:	2801      	cmp	r0, #1
 8003f6e:	d10c      	bne.n	8003f8a <RCCEx_PLLSAI2_Config.constprop.0+0x82>
 8003f70:	6822      	ldr	r2, [r4, #0]
 8003f72:	0796      	lsls	r6, r2, #30
 8003f74:	d518      	bpl.n	8003fa8 <RCCEx_PLLSAI2_Config.constprop.0+0xa0>
 8003f76:	68e2      	ldr	r2, [r4, #12]
 8003f78:	f022 0203 	bic.w	r2, r2, #3
 8003f7c:	4302      	orrs	r2, r0
 8003f7e:	60e2      	str	r2, [r4, #12]
 8003f80:	e7d0      	b.n	8003f24 <RCCEx_PLLSAI2_Config.constprop.0+0x1c>
 8003f82:	6822      	ldr	r2, [r4, #0]
 8003f84:	f412 6f80 	tst.w	r2, #1024	; 0x400
 8003f88:	d1f5      	bne.n	8003f76 <RCCEx_PLLSAI2_Config.constprop.0+0x6e>
 8003f8a:	2001      	movs	r0, #1
 8003f8c:	e00c      	b.n	8003fa8 <RCCEx_PLLSAI2_Config.constprop.0+0xa0>
 8003f8e:	6822      	ldr	r2, [r4, #0]
 8003f90:	0391      	lsls	r1, r2, #14
 8003f92:	d4f0      	bmi.n	8003f76 <RCCEx_PLLSAI2_Config.constprop.0+0x6e>
 8003f94:	6822      	ldr	r2, [r4, #0]
 8003f96:	f412 2f80 	tst.w	r2, #262144	; 0x40000
 8003f9a:	e7f5      	b.n	8003f88 <RCCEx_PLLSAI2_Config.constprop.0+0x80>
 8003f9c:	f7fe fa22 	bl	80023e4 <HAL_GetTick>
 8003fa0:	1b80      	subs	r0, r0, r6
 8003fa2:	2802      	cmp	r0, #2
 8003fa4:	d9c5      	bls.n	8003f32 <RCCEx_PLLSAI2_Config.constprop.0+0x2a>
 8003fa6:	2003      	movs	r0, #3
 8003fa8:	bd70      	pop	{r4, r5, r6, pc}
 8003faa:	f7fe fa1b 	bl	80023e4 <HAL_GetTick>
 8003fae:	1b80      	subs	r0, r0, r6
 8003fb0:	2802      	cmp	r0, #2
 8003fb2:	d8f8      	bhi.n	8003fa6 <RCCEx_PLLSAI2_Config.constprop.0+0x9e>
 8003fb4:	6823      	ldr	r3, [r4, #0]
 8003fb6:	009b      	lsls	r3, r3, #2
 8003fb8:	d5f7      	bpl.n	8003faa <RCCEx_PLLSAI2_Config.constprop.0+0xa2>
 8003fba:	6963      	ldr	r3, [r4, #20]
 8003fbc:	69aa      	ldr	r2, [r5, #24]
 8003fbe:	4313      	orrs	r3, r2
 8003fc0:	6163      	str	r3, [r4, #20]
 8003fc2:	2000      	movs	r0, #0
 8003fc4:	e7f0      	b.n	8003fa8 <RCCEx_PLLSAI2_Config.constprop.0+0xa0>
 8003fc6:	bf00      	nop
 8003fc8:	40021000 	.word	0x40021000
 8003fcc:	07ff800f 	.word	0x07ff800f

08003fd0 <HAL_RCCEx_PeriphCLKConfig>:
 8003fd0:	e92d 47f3 	stmdb	sp!, {r0, r1, r4, r5, r6, r7, r8, r9, sl, lr}
 8003fd4:	6806      	ldr	r6, [r0, #0]
 8003fd6:	f416 6600 	ands.w	r6, r6, #2048	; 0x800
 8003fda:	4604      	mov	r4, r0
 8003fdc:	d007      	beq.n	8003fee <HAL_RCCEx_PeriphCLKConfig+0x1e>
 8003fde:	6ec1      	ldr	r1, [r0, #108]	; 0x6c
 8003fe0:	2940      	cmp	r1, #64	; 0x40
 8003fe2:	d022      	beq.n	800402a <HAL_RCCEx_PeriphCLKConfig+0x5a>
 8003fe4:	d812      	bhi.n	800400c <HAL_RCCEx_PeriphCLKConfig+0x3c>
 8003fe6:	b331      	cbz	r1, 8004036 <HAL_RCCEx_PeriphCLKConfig+0x66>
 8003fe8:	2920      	cmp	r1, #32
 8003fea:	d02b      	beq.n	8004044 <HAL_RCCEx_PeriphCLKConfig+0x74>
 8003fec:	2601      	movs	r6, #1
 8003fee:	6823      	ldr	r3, [r4, #0]
 8003ff0:	04db      	lsls	r3, r3, #19
 8003ff2:	d509      	bpl.n	8004008 <HAL_RCCEx_PeriphCLKConfig+0x38>
 8003ff4:	6f21      	ldr	r1, [r4, #112]	; 0x70
 8003ff6:	f5b1 7f00 	cmp.w	r1, #512	; 0x200
 8003ffa:	d02f      	beq.n	800405c <HAL_RCCEx_PeriphCLKConfig+0x8c>
 8003ffc:	d826      	bhi.n	800404c <HAL_RCCEx_PeriphCLKConfig+0x7c>
 8003ffe:	b399      	cbz	r1, 8004068 <HAL_RCCEx_PeriphCLKConfig+0x98>
 8004000:	f5b1 7f80 	cmp.w	r1, #256	; 0x100
 8004004:	d075      	beq.n	80040f2 <HAL_RCCEx_PeriphCLKConfig+0x122>
 8004006:	2601      	movs	r6, #1
 8004008:	4635      	mov	r5, r6
 800400a:	e03c      	b.n	8004086 <HAL_RCCEx_PeriphCLKConfig+0xb6>
 800400c:	2960      	cmp	r1, #96	; 0x60
 800400e:	d001      	beq.n	8004014 <HAL_RCCEx_PeriphCLKConfig+0x44>
 8004010:	2980      	cmp	r1, #128	; 0x80
 8004012:	d1eb      	bne.n	8003fec <HAL_RCCEx_PeriphCLKConfig+0x1c>
 8004014:	4a3c      	ldr	r2, [pc, #240]	; (8004108 <HAL_RCCEx_PeriphCLKConfig+0x138>)
 8004016:	6ee1      	ldr	r1, [r4, #108]	; 0x6c
 8004018:	f8d2 309c 	ldr.w	r3, [r2, #156]	; 0x9c
 800401c:	f023 03e0 	bic.w	r3, r3, #224	; 0xe0
 8004020:	430b      	orrs	r3, r1
 8004022:	f8c2 309c 	str.w	r3, [r2, #156]	; 0x9c
 8004026:	2600      	movs	r6, #0
 8004028:	e7e1      	b.n	8003fee <HAL_RCCEx_PeriphCLKConfig+0x1e>
 800402a:	4a37      	ldr	r2, [pc, #220]	; (8004108 <HAL_RCCEx_PeriphCLKConfig+0x138>)
 800402c:	68d3      	ldr	r3, [r2, #12]
 800402e:	f443 3380 	orr.w	r3, r3, #65536	; 0x10000
 8004032:	60d3      	str	r3, [r2, #12]
 8004034:	e7ee      	b.n	8004014 <HAL_RCCEx_PeriphCLKConfig+0x44>
 8004036:	3004      	adds	r0, #4
 8004038:	f7ff fee6 	bl	8003e08 <RCCEx_PLLSAI1_Config>
 800403c:	4606      	mov	r6, r0
 800403e:	2800      	cmp	r0, #0
 8004040:	d1d5      	bne.n	8003fee <HAL_RCCEx_PeriphCLKConfig+0x1e>
 8004042:	e7e7      	b.n	8004014 <HAL_RCCEx_PeriphCLKConfig+0x44>
 8004044:	3020      	adds	r0, #32
 8004046:	f7ff ff5f 	bl	8003f08 <RCCEx_PLLSAI2_Config.constprop.0>
 800404a:	e7f7      	b.n	800403c <HAL_RCCEx_PeriphCLKConfig+0x6c>
 800404c:	f5b1 7f40 	cmp.w	r1, #768	; 0x300
 8004050:	d002      	beq.n	8004058 <HAL_RCCEx_PeriphCLKConfig+0x88>
 8004052:	f5b1 6f80 	cmp.w	r1, #1024	; 0x400
 8004056:	d1d6      	bne.n	8004006 <HAL_RCCEx_PeriphCLKConfig+0x36>
 8004058:	4635      	mov	r5, r6
 800405a:	e009      	b.n	8004070 <HAL_RCCEx_PeriphCLKConfig+0xa0>
 800405c:	4a2a      	ldr	r2, [pc, #168]	; (8004108 <HAL_RCCEx_PeriphCLKConfig+0x138>)
 800405e:	68d3      	ldr	r3, [r2, #12]
 8004060:	f443 3380 	orr.w	r3, r3, #65536	; 0x10000
 8004064:	60d3      	str	r3, [r2, #12]
 8004066:	e7f7      	b.n	8004058 <HAL_RCCEx_PeriphCLKConfig+0x88>
 8004068:	1d20      	adds	r0, r4, #4
 800406a:	f7ff fecd 	bl	8003e08 <RCCEx_PLLSAI1_Config>
 800406e:	4605      	mov	r5, r0
 8004070:	2d00      	cmp	r5, #0
 8004072:	d143      	bne.n	80040fc <HAL_RCCEx_PeriphCLKConfig+0x12c>
 8004074:	4a24      	ldr	r2, [pc, #144]	; (8004108 <HAL_RCCEx_PeriphCLKConfig+0x138>)
 8004076:	6f21      	ldr	r1, [r4, #112]	; 0x70
 8004078:	f8d2 309c 	ldr.w	r3, [r2, #156]	; 0x9c
 800407c:	f423 63e0 	bic.w	r3, r3, #1792	; 0x700
 8004080:	430b      	orrs	r3, r1
 8004082:	f8c2 309c 	str.w	r3, [r2, #156]	; 0x9c
 8004086:	6823      	ldr	r3, [r4, #0]
 8004088:	039f      	lsls	r7, r3, #14
 800408a:	f140 817d 	bpl.w	8004388 <HAL_RCCEx_PeriphCLKConfig+0x3b8>
 800408e:	4f1e      	ldr	r7, [pc, #120]	; (8004108 <HAL_RCCEx_PeriphCLKConfig+0x138>)
 8004090:	6dbb      	ldr	r3, [r7, #88]	; 0x58
 8004092:	00d8      	lsls	r0, r3, #3
 8004094:	d434      	bmi.n	8004100 <HAL_RCCEx_PeriphCLKConfig+0x130>
 8004096:	6dbb      	ldr	r3, [r7, #88]	; 0x58
 8004098:	f043 5380 	orr.w	r3, r3, #268435456	; 0x10000000
 800409c:	65bb      	str	r3, [r7, #88]	; 0x58
 800409e:	6dbb      	ldr	r3, [r7, #88]	; 0x58
 80040a0:	f003 5380 	and.w	r3, r3, #268435456	; 0x10000000
 80040a4:	9301      	str	r3, [sp, #4]
 80040a6:	9b01      	ldr	r3, [sp, #4]
 80040a8:	f04f 0801 	mov.w	r8, #1
 80040ac:	f8df 905c 	ldr.w	r9, [pc, #92]	; 800410c <HAL_RCCEx_PeriphCLKConfig+0x13c>
 80040b0:	f8d9 3000 	ldr.w	r3, [r9]
 80040b4:	f443 7380 	orr.w	r3, r3, #256	; 0x100
 80040b8:	f8c9 3000 	str.w	r3, [r9]
 80040bc:	f7fe f992 	bl	80023e4 <HAL_GetTick>
 80040c0:	4682      	mov	sl, r0
 80040c2:	f8d9 3000 	ldr.w	r3, [r9]
 80040c6:	05d9      	lsls	r1, r3, #23
 80040c8:	d522      	bpl.n	8004110 <HAL_RCCEx_PeriphCLKConfig+0x140>
 80040ca:	bb45      	cbnz	r5, 800411e <HAL_RCCEx_PeriphCLKConfig+0x14e>
 80040cc:	f8d7 3090 	ldr.w	r3, [r7, #144]	; 0x90
 80040d0:	f8d4 2090 	ldr.w	r2, [r4, #144]	; 0x90
 80040d4:	f413 7340 	ands.w	r3, r3, #768	; 0x300
 80040d8:	f040 812e 	bne.w	8004338 <HAL_RCCEx_PeriphCLKConfig+0x368>
 80040dc:	f8d7 3090 	ldr.w	r3, [r7, #144]	; 0x90
 80040e0:	f8d4 2090 	ldr.w	r2, [r4, #144]	; 0x90
 80040e4:	f423 7340 	bic.w	r3, r3, #768	; 0x300
 80040e8:	4313      	orrs	r3, r2
 80040ea:	f8c7 3090 	str.w	r3, [r7, #144]	; 0x90
 80040ee:	4635      	mov	r5, r6
 80040f0:	e015      	b.n	800411e <HAL_RCCEx_PeriphCLKConfig+0x14e>
 80040f2:	f104 0020 	add.w	r0, r4, #32
 80040f6:	f7ff ff07 	bl	8003f08 <RCCEx_PLLSAI2_Config.constprop.0>
 80040fa:	e7b8      	b.n	800406e <HAL_RCCEx_PeriphCLKConfig+0x9e>
 80040fc:	462e      	mov	r6, r5
 80040fe:	e7c2      	b.n	8004086 <HAL_RCCEx_PeriphCLKConfig+0xb6>
 8004100:	f04f 0800 	mov.w	r8, #0
 8004104:	e7d2      	b.n	80040ac <HAL_RCCEx_PeriphCLKConfig+0xdc>
 8004106:	bf00      	nop
 8004108:	40021000 	.word	0x40021000
 800410c:	40007000 	.word	0x40007000
 8004110:	f7fe f968 	bl	80023e4 <HAL_GetTick>
 8004114:	eba0 000a 	sub.w	r0, r0, sl
 8004118:	2802      	cmp	r0, #2
 800411a:	d9d2      	bls.n	80040c2 <HAL_RCCEx_PeriphCLKConfig+0xf2>
 800411c:	2503      	movs	r5, #3
 800411e:	f1b8 0f00 	cmp.w	r8, #0
 8004122:	d003      	beq.n	800412c <HAL_RCCEx_PeriphCLKConfig+0x15c>
 8004124:	6dbb      	ldr	r3, [r7, #88]	; 0x58
 8004126:	f023 5380 	bic.w	r3, r3, #268435456	; 0x10000000
 800412a:	65bb      	str	r3, [r7, #88]	; 0x58
 800412c:	6823      	ldr	r3, [r4, #0]
 800412e:	07d8      	lsls	r0, r3, #31
 8004130:	d508      	bpl.n	8004144 <HAL_RCCEx_PeriphCLKConfig+0x174>
 8004132:	49b1      	ldr	r1, [pc, #708]	; (80043f8 <HAL_RCCEx_PeriphCLKConfig+0x428>)
 8004134:	6be0      	ldr	r0, [r4, #60]	; 0x3c
 8004136:	f8d1 2088 	ldr.w	r2, [r1, #136]	; 0x88
 800413a:	f022 0203 	bic.w	r2, r2, #3
 800413e:	4302      	orrs	r2, r0
 8004140:	f8c1 2088 	str.w	r2, [r1, #136]	; 0x88
 8004144:	0799      	lsls	r1, r3, #30
 8004146:	d508      	bpl.n	800415a <HAL_RCCEx_PeriphCLKConfig+0x18a>
 8004148:	49ab      	ldr	r1, [pc, #684]	; (80043f8 <HAL_RCCEx_PeriphCLKConfig+0x428>)
 800414a:	6c20      	ldr	r0, [r4, #64]	; 0x40
 800414c:	f8d1 2088 	ldr.w	r2, [r1, #136]	; 0x88
 8004150:	f022 020c 	bic.w	r2, r2, #12
 8004154:	4302      	orrs	r2, r0
 8004156:	f8c1 2088 	str.w	r2, [r1, #136]	; 0x88
 800415a:	075a      	lsls	r2, r3, #29
 800415c:	d508      	bpl.n	8004170 <HAL_RCCEx_PeriphCLKConfig+0x1a0>
 800415e:	49a6      	ldr	r1, [pc, #664]	; (80043f8 <HAL_RCCEx_PeriphCLKConfig+0x428>)
 8004160:	6c60      	ldr	r0, [r4, #68]	; 0x44
 8004162:	f8d1 2088 	ldr.w	r2, [r1, #136]	; 0x88
 8004166:	f022 0230 	bic.w	r2, r2, #48	; 0x30
 800416a:	4302      	orrs	r2, r0
 800416c:	f8c1 2088 	str.w	r2, [r1, #136]	; 0x88
 8004170:	071f      	lsls	r7, r3, #28
 8004172:	d508      	bpl.n	8004186 <HAL_RCCEx_PeriphCLKConfig+0x1b6>
 8004174:	49a0      	ldr	r1, [pc, #640]	; (80043f8 <HAL_RCCEx_PeriphCLKConfig+0x428>)
 8004176:	6ca0      	ldr	r0, [r4, #72]	; 0x48
 8004178:	f8d1 2088 	ldr.w	r2, [r1, #136]	; 0x88
 800417c:	f022 02c0 	bic.w	r2, r2, #192	; 0xc0
 8004180:	4302      	orrs	r2, r0
 8004182:	f8c1 2088 	str.w	r2, [r1, #136]	; 0x88
 8004186:	06de      	lsls	r6, r3, #27
 8004188:	d508      	bpl.n	800419c <HAL_RCCEx_PeriphCLKConfig+0x1cc>
 800418a:	499b      	ldr	r1, [pc, #620]	; (80043f8 <HAL_RCCEx_PeriphCLKConfig+0x428>)
 800418c:	6ce0      	ldr	r0, [r4, #76]	; 0x4c
 800418e:	f8d1 2088 	ldr.w	r2, [r1, #136]	; 0x88
 8004192:	f422 7240 	bic.w	r2, r2, #768	; 0x300
 8004196:	4302      	orrs	r2, r0
 8004198:	f8c1 2088 	str.w	r2, [r1, #136]	; 0x88
 800419c:	0698      	lsls	r0, r3, #26
 800419e:	d508      	bpl.n	80041b2 <HAL_RCCEx_PeriphCLKConfig+0x1e2>
 80041a0:	4995      	ldr	r1, [pc, #596]	; (80043f8 <HAL_RCCEx_PeriphCLKConfig+0x428>)
 80041a2:	6d20      	ldr	r0, [r4, #80]	; 0x50
 80041a4:	f8d1 2088 	ldr.w	r2, [r1, #136]	; 0x88
 80041a8:	f422 6240 	bic.w	r2, r2, #3072	; 0xc00
 80041ac:	4302      	orrs	r2, r0
 80041ae:	f8c1 2088 	str.w	r2, [r1, #136]	; 0x88
 80041b2:	0599      	lsls	r1, r3, #22
 80041b4:	d508      	bpl.n	80041c8 <HAL_RCCEx_PeriphCLKConfig+0x1f8>
 80041b6:	4990      	ldr	r1, [pc, #576]	; (80043f8 <HAL_RCCEx_PeriphCLKConfig+0x428>)
 80041b8:	6e60      	ldr	r0, [r4, #100]	; 0x64
 80041ba:	f8d1 2088 	ldr.w	r2, [r1, #136]	; 0x88
 80041be:	f422 2240 	bic.w	r2, r2, #786432	; 0xc0000
 80041c2:	4302      	orrs	r2, r0
 80041c4:	f8c1 2088 	str.w	r2, [r1, #136]	; 0x88
 80041c8:	055a      	lsls	r2, r3, #21
 80041ca:	d508      	bpl.n	80041de <HAL_RCCEx_PeriphCLKConfig+0x20e>
 80041cc:	498a      	ldr	r1, [pc, #552]	; (80043f8 <HAL_RCCEx_PeriphCLKConfig+0x428>)
 80041ce:	6ea0      	ldr	r0, [r4, #104]	; 0x68
 80041d0:	f8d1 2088 	ldr.w	r2, [r1, #136]	; 0x88
 80041d4:	f422 1240 	bic.w	r2, r2, #3145728	; 0x300000
 80041d8:	4302      	orrs	r2, r0
 80041da:	f8c1 2088 	str.w	r2, [r1, #136]	; 0x88
 80041de:	065f      	lsls	r7, r3, #25
 80041e0:	d508      	bpl.n	80041f4 <HAL_RCCEx_PeriphCLKConfig+0x224>
 80041e2:	4985      	ldr	r1, [pc, #532]	; (80043f8 <HAL_RCCEx_PeriphCLKConfig+0x428>)
 80041e4:	6d60      	ldr	r0, [r4, #84]	; 0x54
 80041e6:	f8d1 2088 	ldr.w	r2, [r1, #136]	; 0x88
 80041ea:	f422 5240 	bic.w	r2, r2, #12288	; 0x3000
 80041ee:	4302      	orrs	r2, r0
 80041f0:	f8c1 2088 	str.w	r2, [r1, #136]	; 0x88
 80041f4:	061e      	lsls	r6, r3, #24
 80041f6:	d508      	bpl.n	800420a <HAL_RCCEx_PeriphCLKConfig+0x23a>
 80041f8:	497f      	ldr	r1, [pc, #508]	; (80043f8 <HAL_RCCEx_PeriphCLKConfig+0x428>)
 80041fa:	6da0      	ldr	r0, [r4, #88]	; 0x58
 80041fc:	f8d1 2088 	ldr.w	r2, [r1, #136]	; 0x88
 8004200:	f422 4240 	bic.w	r2, r2, #49152	; 0xc000
 8004204:	4302      	orrs	r2, r0
 8004206:	f8c1 2088 	str.w	r2, [r1, #136]	; 0x88
 800420a:	05d8      	lsls	r0, r3, #23
 800420c:	d508      	bpl.n	8004220 <HAL_RCCEx_PeriphCLKConfig+0x250>
 800420e:	497a      	ldr	r1, [pc, #488]	; (80043f8 <HAL_RCCEx_PeriphCLKConfig+0x428>)
 8004210:	6de0      	ldr	r0, [r4, #92]	; 0x5c
 8004212:	f8d1 2088 	ldr.w	r2, [r1, #136]	; 0x88
 8004216:	f422 3240 	bic.w	r2, r2, #196608	; 0x30000
 800421a:	4302      	orrs	r2, r0
 800421c:	f8c1 2088 	str.w	r2, [r1, #136]	; 0x88
 8004220:	02d9      	lsls	r1, r3, #11
 8004222:	d508      	bpl.n	8004236 <HAL_RCCEx_PeriphCLKConfig+0x266>
 8004224:	4974      	ldr	r1, [pc, #464]	; (80043f8 <HAL_RCCEx_PeriphCLKConfig+0x428>)
 8004226:	6e20      	ldr	r0, [r4, #96]	; 0x60
 8004228:	f8d1 209c 	ldr.w	r2, [r1, #156]	; 0x9c
 800422c:	f022 0203 	bic.w	r2, r2, #3
 8004230:	4302      	orrs	r2, r0
 8004232:	f8c1 209c 	str.w	r2, [r1, #156]	; 0x9c
 8004236:	049a      	lsls	r2, r3, #18
 8004238:	d510      	bpl.n	800425c <HAL_RCCEx_PeriphCLKConfig+0x28c>
 800423a:	4a6f      	ldr	r2, [pc, #444]	; (80043f8 <HAL_RCCEx_PeriphCLKConfig+0x428>)
 800423c:	6f61      	ldr	r1, [r4, #116]	; 0x74
 800423e:	f8d2 3088 	ldr.w	r3, [r2, #136]	; 0x88
 8004242:	f023 6340 	bic.w	r3, r3, #201326592	; 0xc000000
 8004246:	430b      	orrs	r3, r1
 8004248:	f1b1 6f00 	cmp.w	r1, #134217728	; 0x8000000
 800424c:	f8c2 3088 	str.w	r3, [r2, #136]	; 0x88
 8004250:	f040 809c 	bne.w	800438c <HAL_RCCEx_PeriphCLKConfig+0x3bc>
 8004254:	68d3      	ldr	r3, [r2, #12]
 8004256:	f443 1380 	orr.w	r3, r3, #1048576	; 0x100000
 800425a:	60d3      	str	r3, [r2, #12]
 800425c:	6823      	ldr	r3, [r4, #0]
 800425e:	031b      	lsls	r3, r3, #12
 8004260:	d50f      	bpl.n	8004282 <HAL_RCCEx_PeriphCLKConfig+0x2b2>
 8004262:	6fa1      	ldr	r1, [r4, #120]	; 0x78
 8004264:	4b64      	ldr	r3, [pc, #400]	; (80043f8 <HAL_RCCEx_PeriphCLKConfig+0x428>)
 8004266:	f5b1 4f80 	cmp.w	r1, #16384	; 0x4000
 800426a:	f8d3 209c 	ldr.w	r2, [r3, #156]	; 0x9c
 800426e:	f040 8099 	bne.w	80043a4 <HAL_RCCEx_PeriphCLKConfig+0x3d4>
 8004272:	f442 4280 	orr.w	r2, r2, #16384	; 0x4000
 8004276:	f8c3 209c 	str.w	r2, [r3, #156]	; 0x9c
 800427a:	68da      	ldr	r2, [r3, #12]
 800427c:	f442 3280 	orr.w	r2, r2, #65536	; 0x10000
 8004280:	60da      	str	r2, [r3, #12]
 8004282:	6823      	ldr	r3, [r4, #0]
 8004284:	035f      	lsls	r7, r3, #13
 8004286:	d510      	bpl.n	80042aa <HAL_RCCEx_PeriphCLKConfig+0x2da>
 8004288:	4a5b      	ldr	r2, [pc, #364]	; (80043f8 <HAL_RCCEx_PeriphCLKConfig+0x428>)
 800428a:	6fe1      	ldr	r1, [r4, #124]	; 0x7c
 800428c:	f8d2 3088 	ldr.w	r3, [r2, #136]	; 0x88
 8004290:	f023 6340 	bic.w	r3, r3, #201326592	; 0xc000000
 8004294:	430b      	orrs	r3, r1
 8004296:	f1b1 6f00 	cmp.w	r1, #134217728	; 0x8000000
 800429a:	f8c2 3088 	str.w	r3, [r2, #136]	; 0x88
 800429e:	f040 809f 	bne.w	80043e0 <HAL_RCCEx_PeriphCLKConfig+0x410>
 80042a2:	68d3      	ldr	r3, [r2, #12]
 80042a4:	f443 1380 	orr.w	r3, r3, #1048576	; 0x100000
 80042a8:	60d3      	str	r3, [r2, #12]
 80042aa:	6823      	ldr	r3, [r4, #0]
 80042ac:	045e      	lsls	r6, r3, #17
 80042ae:	d513      	bpl.n	80042d8 <HAL_RCCEx_PeriphCLKConfig+0x308>
 80042b0:	4951      	ldr	r1, [pc, #324]	; (80043f8 <HAL_RCCEx_PeriphCLKConfig+0x428>)
 80042b2:	f8d4 2080 	ldr.w	r2, [r4, #128]	; 0x80
 80042b6:	f8d1 3088 	ldr.w	r3, [r1, #136]	; 0x88
 80042ba:	f023 5340 	bic.w	r3, r3, #805306368	; 0x30000000
 80042be:	4313      	orrs	r3, r2
 80042c0:	f1b2 5f80 	cmp.w	r2, #268435456	; 0x10000000
 80042c4:	f8c1 3088 	str.w	r3, [r1, #136]	; 0x88
 80042c8:	d106      	bne.n	80042d8 <HAL_RCCEx_PeriphCLKConfig+0x308>
 80042ca:	2102      	movs	r1, #2
 80042cc:	1d20      	adds	r0, r4, #4
 80042ce:	f7ff fd9b 	bl	8003e08 <RCCEx_PLLSAI1_Config>
 80042d2:	2800      	cmp	r0, #0
 80042d4:	bf18      	it	ne
 80042d6:	4605      	movne	r5, r0
 80042d8:	6822      	ldr	r2, [r4, #0]
 80042da:	03d0      	lsls	r0, r2, #15
 80042dc:	d509      	bpl.n	80042f2 <HAL_RCCEx_PeriphCLKConfig+0x322>
 80042de:	4946      	ldr	r1, [pc, #280]	; (80043f8 <HAL_RCCEx_PeriphCLKConfig+0x428>)
 80042e0:	f8d4 0084 	ldr.w	r0, [r4, #132]	; 0x84
 80042e4:	f8d1 309c 	ldr.w	r3, [r1, #156]	; 0x9c
 80042e8:	f023 0304 	bic.w	r3, r3, #4
 80042ec:	4303      	orrs	r3, r0
 80042ee:	f8c1 309c 	str.w	r3, [r1, #156]	; 0x9c
 80042f2:	0291      	lsls	r1, r2, #10
 80042f4:	d509      	bpl.n	800430a <HAL_RCCEx_PeriphCLKConfig+0x33a>
 80042f6:	4940      	ldr	r1, [pc, #256]	; (80043f8 <HAL_RCCEx_PeriphCLKConfig+0x428>)
 80042f8:	f8d4 0088 	ldr.w	r0, [r4, #136]	; 0x88
 80042fc:	f8d1 309c 	ldr.w	r3, [r1, #156]	; 0x9c
 8004300:	f023 0318 	bic.w	r3, r3, #24
 8004304:	4303      	orrs	r3, r0
 8004306:	f8c1 309c 	str.w	r3, [r1, #156]	; 0x9c
 800430a:	01d3      	lsls	r3, r2, #7
 800430c:	d510      	bpl.n	8004330 <HAL_RCCEx_PeriphCLKConfig+0x360>
 800430e:	4a3a      	ldr	r2, [pc, #232]	; (80043f8 <HAL_RCCEx_PeriphCLKConfig+0x428>)
 8004310:	f8d4 108c 	ldr.w	r1, [r4, #140]	; 0x8c
 8004314:	f8d2 309c 	ldr.w	r3, [r2, #156]	; 0x9c
 8004318:	f423 1340 	bic.w	r3, r3, #3145728	; 0x300000
 800431c:	430b      	orrs	r3, r1
 800431e:	f8c2 309c 	str.w	r3, [r2, #156]	; 0x9c
 8004322:	f5b1 1f00 	cmp.w	r1, #2097152	; 0x200000
 8004326:	bf02      	ittt	eq
 8004328:	68d3      	ldreq	r3, [r2, #12]
 800432a:	f443 1380 	orreq.w	r3, r3, #1048576	; 0x100000
 800432e:	60d3      	streq	r3, [r2, #12]
 8004330:	4628      	mov	r0, r5
 8004332:	b002      	add	sp, #8
 8004334:	e8bd 87f0 	ldmia.w	sp!, {r4, r5, r6, r7, r8, r9, sl, pc}
 8004338:	4293      	cmp	r3, r2
 800433a:	f43f aecf 	beq.w	80040dc <HAL_RCCEx_PeriphCLKConfig+0x10c>
 800433e:	f8d7 2090 	ldr.w	r2, [r7, #144]	; 0x90
 8004342:	f8d7 3090 	ldr.w	r3, [r7, #144]	; 0x90
 8004346:	f443 3380 	orr.w	r3, r3, #65536	; 0x10000
 800434a:	f8c7 3090 	str.w	r3, [r7, #144]	; 0x90
 800434e:	f8d7 3090 	ldr.w	r3, [r7, #144]	; 0x90
 8004352:	f422 7140 	bic.w	r1, r2, #768	; 0x300
 8004356:	f423 3380 	bic.w	r3, r3, #65536	; 0x10000
 800435a:	07d2      	lsls	r2, r2, #31
 800435c:	f8c7 3090 	str.w	r3, [r7, #144]	; 0x90
 8004360:	f8c7 1090 	str.w	r1, [r7, #144]	; 0x90
 8004364:	f57f aeba 	bpl.w	80040dc <HAL_RCCEx_PeriphCLKConfig+0x10c>
 8004368:	f7fe f83c 	bl	80023e4 <HAL_GetTick>
 800436c:	f241 3988 	movw	r9, #5000	; 0x1388
 8004370:	4605      	mov	r5, r0
 8004372:	f8d7 3090 	ldr.w	r3, [r7, #144]	; 0x90
 8004376:	079b      	lsls	r3, r3, #30
 8004378:	f53f aeb0 	bmi.w	80040dc <HAL_RCCEx_PeriphCLKConfig+0x10c>
 800437c:	f7fe f832 	bl	80023e4 <HAL_GetTick>
 8004380:	1b40      	subs	r0, r0, r5
 8004382:	4548      	cmp	r0, r9
 8004384:	d9f5      	bls.n	8004372 <HAL_RCCEx_PeriphCLKConfig+0x3a2>
 8004386:	e6c9      	b.n	800411c <HAL_RCCEx_PeriphCLKConfig+0x14c>
 8004388:	4635      	mov	r5, r6
 800438a:	e6cf      	b.n	800412c <HAL_RCCEx_PeriphCLKConfig+0x15c>
 800438c:	f1b1 6f80 	cmp.w	r1, #67108864	; 0x4000000
 8004390:	f47f af64 	bne.w	800425c <HAL_RCCEx_PeriphCLKConfig+0x28c>
 8004394:	2101      	movs	r1, #1
 8004396:	1d20      	adds	r0, r4, #4
 8004398:	f7ff fd36 	bl	8003e08 <RCCEx_PLLSAI1_Config>
 800439c:	2800      	cmp	r0, #0
 800439e:	bf18      	it	ne
 80043a0:	4605      	movne	r5, r0
 80043a2:	e75b      	b.n	800425c <HAL_RCCEx_PeriphCLKConfig+0x28c>
 80043a4:	f422 4280 	bic.w	r2, r2, #16384	; 0x4000
 80043a8:	f8c3 209c 	str.w	r2, [r3, #156]	; 0x9c
 80043ac:	f8d3 2088 	ldr.w	r2, [r3, #136]	; 0x88
 80043b0:	f022 6240 	bic.w	r2, r2, #201326592	; 0xc000000
 80043b4:	430a      	orrs	r2, r1
 80043b6:	f1b1 6f00 	cmp.w	r1, #134217728	; 0x8000000
 80043ba:	f8c3 2088 	str.w	r2, [r3, #136]	; 0x88
 80043be:	d103      	bne.n	80043c8 <HAL_RCCEx_PeriphCLKConfig+0x3f8>
 80043c0:	68da      	ldr	r2, [r3, #12]
 80043c2:	f442 1280 	orr.w	r2, r2, #1048576	; 0x100000
 80043c6:	e75b      	b.n	8004280 <HAL_RCCEx_PeriphCLKConfig+0x2b0>
 80043c8:	f1b1 6f80 	cmp.w	r1, #67108864	; 0x4000000
 80043cc:	f47f af59 	bne.w	8004282 <HAL_RCCEx_PeriphCLKConfig+0x2b2>
 80043d0:	2101      	movs	r1, #1
 80043d2:	1d20      	adds	r0, r4, #4
 80043d4:	f7ff fd18 	bl	8003e08 <RCCEx_PLLSAI1_Config>
 80043d8:	2800      	cmp	r0, #0
 80043da:	bf18      	it	ne
 80043dc:	4605      	movne	r5, r0
 80043de:	e750      	b.n	8004282 <HAL_RCCEx_PeriphCLKConfig+0x2b2>
 80043e0:	f1b1 6f80 	cmp.w	r1, #67108864	; 0x4000000
 80043e4:	f47f af61 	bne.w	80042aa <HAL_RCCEx_PeriphCLKConfig+0x2da>
 80043e8:	2101      	movs	r1, #1
 80043ea:	1d20      	adds	r0, r4, #4
 80043ec:	f7ff fd0c 	bl	8003e08 <RCCEx_PLLSAI1_Config>
 80043f0:	2800      	cmp	r0, #0
 80043f2:	bf18      	it	ne
 80043f4:	4605      	movne	r5, r0
 80043f6:	e758      	b.n	80042aa <HAL_RCCEx_PeriphCLKConfig+0x2da>
 80043f8:	40021000 	.word	0x40021000

080043fc <HAL_TIM_Base_MspInit>:
 80043fc:	4770      	bx	lr
	...

08004400 <HAL_TIM_Base_Start_IT>:
 8004400:	f890 303d 	ldrb.w	r3, [r0, #61]	; 0x3d
 8004404:	2b01      	cmp	r3, #1
 8004406:	d12f      	bne.n	8004468 <HAL_TIM_Base_Start_IT+0x68>
 8004408:	2302      	movs	r3, #2
 800440a:	f880 303d 	strb.w	r3, [r0, #61]	; 0x3d
 800440e:	6803      	ldr	r3, [r0, #0]
 8004410:	68da      	ldr	r2, [r3, #12]
 8004412:	f042 0201 	orr.w	r2, r2, #1
 8004416:	60da      	str	r2, [r3, #12]
 8004418:	4a14      	ldr	r2, [pc, #80]	; (800446c <HAL_TIM_Base_Start_IT+0x6c>)
 800441a:	4293      	cmp	r3, r2
 800441c:	d016      	beq.n	800444c <HAL_TIM_Base_Start_IT+0x4c>
 800441e:	f1b3 4f80 	cmp.w	r3, #1073741824	; 0x40000000
 8004422:	d013      	beq.n	800444c <HAL_TIM_Base_Start_IT+0x4c>
 8004424:	f5a2 3294 	sub.w	r2, r2, #75776	; 0x12800
 8004428:	4293      	cmp	r3, r2
 800442a:	d00f      	beq.n	800444c <HAL_TIM_Base_Start_IT+0x4c>
 800442c:	f502 6280 	add.w	r2, r2, #1024	; 0x400
 8004430:	4293      	cmp	r3, r2
 8004432:	d00b      	beq.n	800444c <HAL_TIM_Base_Start_IT+0x4c>
 8004434:	f502 6280 	add.w	r2, r2, #1024	; 0x400
 8004438:	4293      	cmp	r3, r2
 800443a:	d007      	beq.n	800444c <HAL_TIM_Base_Start_IT+0x4c>
 800443c:	f502 3294 	add.w	r2, r2, #75776	; 0x12800
 8004440:	4293      	cmp	r3, r2
 8004442:	d003      	beq.n	800444c <HAL_TIM_Base_Start_IT+0x4c>
 8004444:	f502 6240 	add.w	r2, r2, #3072	; 0xc00
 8004448:	4293      	cmp	r3, r2
 800444a:	d107      	bne.n	800445c <HAL_TIM_Base_Start_IT+0x5c>
 800444c:	6899      	ldr	r1, [r3, #8]
 800444e:	4a08      	ldr	r2, [pc, #32]	; (8004470 <HAL_TIM_Base_Start_IT+0x70>)
 8004450:	400a      	ands	r2, r1
 8004452:	2a06      	cmp	r2, #6
 8004454:	d006      	beq.n	8004464 <HAL_TIM_Base_Start_IT+0x64>
 8004456:	f5b2 3f80 	cmp.w	r2, #65536	; 0x10000
 800445a:	d003      	beq.n	8004464 <HAL_TIM_Base_Start_IT+0x64>
 800445c:	681a      	ldr	r2, [r3, #0]
 800445e:	f042 0201 	orr.w	r2, r2, #1
 8004462:	601a      	str	r2, [r3, #0]
 8004464:	2000      	movs	r0, #0
 8004466:	4770      	bx	lr
 8004468:	2001      	movs	r0, #1
 800446a:	4770      	bx	lr
 800446c:	40012c00 	.word	0x40012c00
 8004470:	00010007 	.word	0x00010007

08004474 <HAL_TIM_OC_DelayElapsedCallback>:
 8004474:	4770      	bx	lr

08004476 <HAL_TIM_IC_CaptureCallback>:
 8004476:	4770      	bx	lr

08004478 <HAL_TIM_PWM_PulseFinishedCallback>:
 8004478:	4770      	bx	lr

0800447a <HAL_TIM_TriggerCallback>:
 800447a:	4770      	bx	lr

0800447c <HAL_TIM_IRQHandler>:
 800447c:	6803      	ldr	r3, [r0, #0]
 800447e:	b570      	push	{r4, r5, r6, lr}
 8004480:	68dd      	ldr	r5, [r3, #12]
 8004482:	691e      	ldr	r6, [r3, #16]
 8004484:	07b2      	lsls	r2, r6, #30
 8004486:	4604      	mov	r4, r0
 8004488:	d50d      	bpl.n	80044a6 <HAL_TIM_IRQHandler+0x2a>
 800448a:	07a9      	lsls	r1, r5, #30
 800448c:	d50b      	bpl.n	80044a6 <HAL_TIM_IRQHandler+0x2a>
 800448e:	f06f 0202 	mvn.w	r2, #2
 8004492:	611a      	str	r2, [r3, #16]
 8004494:	2201      	movs	r2, #1
 8004496:	7702      	strb	r2, [r0, #28]
 8004498:	699b      	ldr	r3, [r3, #24]
 800449a:	079a      	lsls	r2, r3, #30
 800449c:	d074      	beq.n	8004588 <HAL_TIM_IRQHandler+0x10c>
 800449e:	f7ff ffea 	bl	8004476 <HAL_TIM_IC_CaptureCallback>
 80044a2:	2300      	movs	r3, #0
 80044a4:	7723      	strb	r3, [r4, #28]
 80044a6:	0773      	lsls	r3, r6, #29
 80044a8:	d510      	bpl.n	80044cc <HAL_TIM_IRQHandler+0x50>
 80044aa:	0768      	lsls	r0, r5, #29
 80044ac:	d50e      	bpl.n	80044cc <HAL_TIM_IRQHandler+0x50>
 80044ae:	6823      	ldr	r3, [r4, #0]
 80044b0:	f06f 0204 	mvn.w	r2, #4
 80044b4:	611a      	str	r2, [r3, #16]
 80044b6:	2202      	movs	r2, #2
 80044b8:	7722      	strb	r2, [r4, #28]
 80044ba:	699b      	ldr	r3, [r3, #24]
 80044bc:	f413 7f40 	tst.w	r3, #768	; 0x300
 80044c0:	4620      	mov	r0, r4
 80044c2:	d067      	beq.n	8004594 <HAL_TIM_IRQHandler+0x118>
 80044c4:	f7ff ffd7 	bl	8004476 <HAL_TIM_IC_CaptureCallback>
 80044c8:	2300      	movs	r3, #0
 80044ca:	7723      	strb	r3, [r4, #28]
 80044cc:	0731      	lsls	r1, r6, #28
 80044ce:	d50f      	bpl.n	80044f0 <HAL_TIM_IRQHandler+0x74>
 80044d0:	072a      	lsls	r2, r5, #28
 80044d2:	d50d      	bpl.n	80044f0 <HAL_TIM_IRQHandler+0x74>
 80044d4:	6823      	ldr	r3, [r4, #0]
 80044d6:	f06f 0208 	mvn.w	r2, #8
 80044da:	611a      	str	r2, [r3, #16]
 80044dc:	2204      	movs	r2, #4
 80044de:	7722      	strb	r2, [r4, #28]
 80044e0:	69db      	ldr	r3, [r3, #28]
 80044e2:	079b      	lsls	r3, r3, #30
 80044e4:	4620      	mov	r0, r4
 80044e6:	d05b      	beq.n	80045a0 <HAL_TIM_IRQHandler+0x124>
 80044e8:	f7ff ffc5 	bl	8004476 <HAL_TIM_IC_CaptureCallback>
 80044ec:	2300      	movs	r3, #0
 80044ee:	7723      	strb	r3, [r4, #28]
 80044f0:	06f0      	lsls	r0, r6, #27
 80044f2:	d510      	bpl.n	8004516 <HAL_TIM_IRQHandler+0x9a>
 80044f4:	06e9      	lsls	r1, r5, #27
 80044f6:	d50e      	bpl.n	8004516 <HAL_TIM_IRQHandler+0x9a>
 80044f8:	6823      	ldr	r3, [r4, #0]
 80044fa:	f06f 0210 	mvn.w	r2, #16
 80044fe:	611a      	str	r2, [r3, #16]
 8004500:	2208      	movs	r2, #8
 8004502:	7722      	strb	r2, [r4, #28]
 8004504:	69db      	ldr	r3, [r3, #28]
 8004506:	f413 7f40 	tst.w	r3, #768	; 0x300
 800450a:	4620      	mov	r0, r4
 800450c:	d04e      	beq.n	80045ac <HAL_TIM_IRQHandler+0x130>
 800450e:	f7ff ffb2 	bl	8004476 <HAL_TIM_IC_CaptureCallback>
 8004512:	2300      	movs	r3, #0
 8004514:	7723      	strb	r3, [r4, #28]
 8004516:	07f2      	lsls	r2, r6, #31
 8004518:	d508      	bpl.n	800452c <HAL_TIM_IRQHandler+0xb0>
 800451a:	07eb      	lsls	r3, r5, #31
 800451c:	d506      	bpl.n	800452c <HAL_TIM_IRQHandler+0xb0>
 800451e:	6823      	ldr	r3, [r4, #0]
 8004520:	f06f 0201 	mvn.w	r2, #1
 8004524:	611a      	str	r2, [r3, #16]
 8004526:	4620      	mov	r0, r4
 8004528:	f7fc fd6a 	bl	8001000 <HAL_TIM_PeriodElapsedCallback>
 800452c:	0630      	lsls	r0, r6, #24
 800452e:	d508      	bpl.n	8004542 <HAL_TIM_IRQHandler+0xc6>
 8004530:	0629      	lsls	r1, r5, #24
 8004532:	d506      	bpl.n	8004542 <HAL_TIM_IRQHandler+0xc6>
 8004534:	6823      	ldr	r3, [r4, #0]
 8004536:	f06f 0280 	mvn.w	r2, #128	; 0x80
 800453a:	611a      	str	r2, [r3, #16]
 800453c:	4620      	mov	r0, r4
 800453e:	f000 f8d4 	bl	80046ea <HAL_TIMEx_BreakCallback>
 8004542:	05f2      	lsls	r2, r6, #23
 8004544:	d508      	bpl.n	8004558 <HAL_TIM_IRQHandler+0xdc>
 8004546:	062b      	lsls	r3, r5, #24
 8004548:	d506      	bpl.n	8004558 <HAL_TIM_IRQHandler+0xdc>
 800454a:	6823      	ldr	r3, [r4, #0]
 800454c:	f46f 7280 	mvn.w	r2, #256	; 0x100
 8004550:	611a      	str	r2, [r3, #16]
 8004552:	4620      	mov	r0, r4
 8004554:	f000 f8ca 	bl	80046ec <HAL_TIMEx_Break2Callback>
 8004558:	0670      	lsls	r0, r6, #25
 800455a:	d508      	bpl.n	800456e <HAL_TIM_IRQHandler+0xf2>
 800455c:	0669      	lsls	r1, r5, #25
 800455e:	d506      	bpl.n	800456e <HAL_TIM_IRQHandler+0xf2>
 8004560:	6823      	ldr	r3, [r4, #0]
 8004562:	f06f 0240 	mvn.w	r2, #64	; 0x40
 8004566:	611a      	str	r2, [r3, #16]
 8004568:	4620      	mov	r0, r4
 800456a:	f7ff ff86 	bl	800447a <HAL_TIM_TriggerCallback>
 800456e:	06b2      	lsls	r2, r6, #26
 8004570:	d522      	bpl.n	80045b8 <HAL_TIM_IRQHandler+0x13c>
 8004572:	06ab      	lsls	r3, r5, #26
 8004574:	d520      	bpl.n	80045b8 <HAL_TIM_IRQHandler+0x13c>
 8004576:	6823      	ldr	r3, [r4, #0]
 8004578:	f06f 0220 	mvn.w	r2, #32
 800457c:	4620      	mov	r0, r4
 800457e:	611a      	str	r2, [r3, #16]
 8004580:	e8bd 4070 	ldmia.w	sp!, {r4, r5, r6, lr}
 8004584:	f000 b8b0 	b.w	80046e8 <HAL_TIMEx_CommutCallback>
 8004588:	f7ff ff74 	bl	8004474 <HAL_TIM_OC_DelayElapsedCallback>
 800458c:	4620      	mov	r0, r4
 800458e:	f7ff ff73 	bl	8004478 <HAL_TIM_PWM_PulseFinishedCallback>
 8004592:	e786      	b.n	80044a2 <HAL_TIM_IRQHandler+0x26>
 8004594:	f7ff ff6e 	bl	8004474 <HAL_TIM_OC_DelayElapsedCallback>
 8004598:	4620      	mov	r0, r4
 800459a:	f7ff ff6d 	bl	8004478 <HAL_TIM_PWM_PulseFinishedCallback>
 800459e:	e793      	b.n	80044c8 <HAL_TIM_IRQHandler+0x4c>
 80045a0:	f7ff ff68 	bl	8004474 <HAL_TIM_OC_DelayElapsedCallback>
 80045a4:	4620      	mov	r0, r4
 80045a6:	f7ff ff67 	bl	8004478 <HAL_TIM_PWM_PulseFinishedCallback>
 80045aa:	e79f      	b.n	80044ec <HAL_TIM_IRQHandler+0x70>
 80045ac:	f7ff ff62 	bl	8004474 <HAL_TIM_OC_DelayElapsedCallback>
 80045b0:	4620      	mov	r0, r4
 80045b2:	f7ff ff61 	bl	8004478 <HAL_TIM_PWM_PulseFinishedCallback>
 80045b6:	e7ac      	b.n	8004512 <HAL_TIM_IRQHandler+0x96>
 80045b8:	bd70      	pop	{r4, r5, r6, pc}
	...

080045bc <TIM_Base_SetConfig>:
 80045bc:	4a30      	ldr	r2, [pc, #192]	; (8004680 <TIM_Base_SetConfig+0xc4>)
 80045be:	6803      	ldr	r3, [r0, #0]
 80045c0:	4290      	cmp	r0, r2
 80045c2:	d012      	beq.n	80045ea <TIM_Base_SetConfig+0x2e>
 80045c4:	f1b0 4f80 	cmp.w	r0, #1073741824	; 0x40000000
 80045c8:	d00f      	beq.n	80045ea <TIM_Base_SetConfig+0x2e>
 80045ca:	f5a2 3294 	sub.w	r2, r2, #75776	; 0x12800
 80045ce:	4290      	cmp	r0, r2
 80045d0:	d00b      	beq.n	80045ea <TIM_Base_SetConfig+0x2e>
 80045d2:	f502 6280 	add.w	r2, r2, #1024	; 0x400
 80045d6:	4290      	cmp	r0, r2
 80045d8:	d007      	beq.n	80045ea <TIM_Base_SetConfig+0x2e>
 80045da:	f502 6280 	add.w	r2, r2, #1024	; 0x400
 80045de:	4290      	cmp	r0, r2
 80045e0:	d003      	beq.n	80045ea <TIM_Base_SetConfig+0x2e>
 80045e2:	f502 3294 	add.w	r2, r2, #75776	; 0x12800
 80045e6:	4290      	cmp	r0, r2
 80045e8:	d119      	bne.n	800461e <TIM_Base_SetConfig+0x62>
 80045ea:	684a      	ldr	r2, [r1, #4]
 80045ec:	f023 0370 	bic.w	r3, r3, #112	; 0x70
 80045f0:	4313      	orrs	r3, r2
 80045f2:	4a23      	ldr	r2, [pc, #140]	; (8004680 <TIM_Base_SetConfig+0xc4>)
 80045f4:	4290      	cmp	r0, r2
 80045f6:	d01d      	beq.n	8004634 <TIM_Base_SetConfig+0x78>
 80045f8:	f1b0 4f80 	cmp.w	r0, #1073741824	; 0x40000000
 80045fc:	d01a      	beq.n	8004634 <TIM_Base_SetConfig+0x78>
 80045fe:	f5a2 3294 	sub.w	r2, r2, #75776	; 0x12800
 8004602:	4290      	cmp	r0, r2
 8004604:	d016      	beq.n	8004634 <TIM_Base_SetConfig+0x78>
 8004606:	f502 6280 	add.w	r2, r2, #1024	; 0x400
 800460a:	4290      	cmp	r0, r2
 800460c:	d012      	beq.n	8004634 <TIM_Base_SetConfig+0x78>
 800460e:	f502 6280 	add.w	r2, r2, #1024	; 0x400
 8004612:	4290      	cmp	r0, r2
 8004614:	d00e      	beq.n	8004634 <TIM_Base_SetConfig+0x78>
 8004616:	f502 3294 	add.w	r2, r2, #75776	; 0x12800
 800461a:	4290      	cmp	r0, r2
 800461c:	d00a      	beq.n	8004634 <TIM_Base_SetConfig+0x78>
 800461e:	4a19      	ldr	r2, [pc, #100]	; (8004684 <TIM_Base_SetConfig+0xc8>)
 8004620:	4290      	cmp	r0, r2
 8004622:	d007      	beq.n	8004634 <TIM_Base_SetConfig+0x78>
 8004624:	f502 6280 	add.w	r2, r2, #1024	; 0x400
 8004628:	4290      	cmp	r0, r2
 800462a:	d003      	beq.n	8004634 <TIM_Base_SetConfig+0x78>
 800462c:	f502 6280 	add.w	r2, r2, #1024	; 0x400
 8004630:	4290      	cmp	r0, r2
 8004632:	d103      	bne.n	800463c <TIM_Base_SetConfig+0x80>
 8004634:	68ca      	ldr	r2, [r1, #12]
 8004636:	f423 7340 	bic.w	r3, r3, #768	; 0x300
 800463a:	4313      	orrs	r3, r2
 800463c:	694a      	ldr	r2, [r1, #20]
 800463e:	f023 0380 	bic.w	r3, r3, #128	; 0x80
 8004642:	4313      	orrs	r3, r2
 8004644:	6003      	str	r3, [r0, #0]
 8004646:	688b      	ldr	r3, [r1, #8]
 8004648:	62c3      	str	r3, [r0, #44]	; 0x2c
 800464a:	680b      	ldr	r3, [r1, #0]
 800464c:	6283      	str	r3, [r0, #40]	; 0x28
 800464e:	4b0c      	ldr	r3, [pc, #48]	; (8004680 <TIM_Base_SetConfig+0xc4>)
 8004650:	4298      	cmp	r0, r3
 8004652:	d00f      	beq.n	8004674 <TIM_Base_SetConfig+0xb8>
 8004654:	f503 6300 	add.w	r3, r3, #2048	; 0x800
 8004658:	4298      	cmp	r0, r3
 800465a:	d00b      	beq.n	8004674 <TIM_Base_SetConfig+0xb8>
 800465c:	f503 6340 	add.w	r3, r3, #3072	; 0xc00
 8004660:	4298      	cmp	r0, r3
 8004662:	d007      	beq.n	8004674 <TIM_Base_SetConfig+0xb8>
 8004664:	f503 6380 	add.w	r3, r3, #1024	; 0x400
 8004668:	4298      	cmp	r0, r3
 800466a:	d003      	beq.n	8004674 <TIM_Base_SetConfig+0xb8>
 800466c:	f503 6380 	add.w	r3, r3, #1024	; 0x400
 8004670:	4298      	cmp	r0, r3
 8004672:	d101      	bne.n	8004678 <TIM_Base_SetConfig+0xbc>
 8004674:	690b      	ldr	r3, [r1, #16]
 8004676:	6303      	str	r3, [r0, #48]	; 0x30
 8004678:	2301      	movs	r3, #1
 800467a:	6143      	str	r3, [r0, #20]
 800467c:	4770      	bx	lr
 800467e:	bf00      	nop
 8004680:	40012c00 	.word	0x40012c00
 8004684:	40014000 	.word	0x40014000

08004688 <HAL_TIM_Base_Init>:
 8004688:	b510      	push	{r4, lr}
 800468a:	4604      	mov	r4, r0
 800468c:	b350      	cbz	r0, 80046e4 <HAL_TIM_Base_Init+0x5c>
 800468e:	f890 303d 	ldrb.w	r3, [r0, #61]	; 0x3d
 8004692:	f003 02ff 	and.w	r2, r3, #255	; 0xff
 8004696:	b91b      	cbnz	r3, 80046a0 <HAL_TIM_Base_Init+0x18>
 8004698:	f880 203c 	strb.w	r2, [r0, #60]	; 0x3c
 800469c:	f7ff feae 	bl	80043fc <HAL_TIM_Base_MspInit>
 80046a0:	2302      	movs	r3, #2
 80046a2:	6820      	ldr	r0, [r4, #0]
 80046a4:	f884 303d 	strb.w	r3, [r4, #61]	; 0x3d
 80046a8:	1d21      	adds	r1, r4, #4
 80046aa:	f7ff ff87 	bl	80045bc <TIM_Base_SetConfig>
 80046ae:	2301      	movs	r3, #1
 80046b0:	f884 3048 	strb.w	r3, [r4, #72]	; 0x48
 80046b4:	2000      	movs	r0, #0
 80046b6:	f884 303e 	strb.w	r3, [r4, #62]	; 0x3e
 80046ba:	f884 303f 	strb.w	r3, [r4, #63]	; 0x3f
 80046be:	f884 3040 	strb.w	r3, [r4, #64]	; 0x40
 80046c2:	f884 3041 	strb.w	r3, [r4, #65]	; 0x41
 80046c6:	f884 3042 	strb.w	r3, [r4, #66]	; 0x42
 80046ca:	f884 3043 	strb.w	r3, [r4, #67]	; 0x43
 80046ce:	f884 3044 	strb.w	r3, [r4, #68]	; 0x44
 80046d2:	f884 3045 	strb.w	r3, [r4, #69]	; 0x45
 80046d6:	f884 3046 	strb.w	r3, [r4, #70]	; 0x46
 80046da:	f884 3047 	strb.w	r3, [r4, #71]	; 0x47
 80046de:	f884 303d 	strb.w	r3, [r4, #61]	; 0x3d
 80046e2:	bd10      	pop	{r4, pc}
 80046e4:	2001      	movs	r0, #1
 80046e6:	e7fc      	b.n	80046e2 <HAL_TIM_Base_Init+0x5a>

080046e8 <HAL_TIMEx_CommutCallback>:
 80046e8:	4770      	bx	lr

080046ea <HAL_TIMEx_BreakCallback>:
 80046ea:	4770      	bx	lr

080046ec <HAL_TIMEx_Break2Callback>:
 80046ec:	4770      	bx	lr
	...

080046f0 <UART_EndRxTransfer>:
 80046f0:	b510      	push	{r4, lr}
 80046f2:	6802      	ldr	r2, [r0, #0]
 80046f4:	e852 3f00 	ldrex	r3, [r2]
 80046f8:	f423 7390 	bic.w	r3, r3, #288	; 0x120
 80046fc:	e842 3100 	strex	r1, r3, [r2]
 8004700:	6802      	ldr	r2, [r0, #0]
 8004702:	2900      	cmp	r1, #0
 8004704:	d1f5      	bne.n	80046f2 <UART_EndRxTransfer+0x2>
 8004706:	4c0f      	ldr	r4, [pc, #60]	; (8004744 <UART_EndRxTransfer+0x54>)
 8004708:	f102 0308 	add.w	r3, r2, #8
 800470c:	e853 3f00 	ldrex	r3, [r3]
 8004710:	4023      	ands	r3, r4
 8004712:	f102 0c08 	add.w	ip, r2, #8
 8004716:	e84c 3100 	strex	r1, r3, [ip]
 800471a:	2900      	cmp	r1, #0
 800471c:	d1f4      	bne.n	8004708 <UART_EndRxTransfer+0x18>
 800471e:	6ec3      	ldr	r3, [r0, #108]	; 0x6c
 8004720:	2b01      	cmp	r3, #1
 8004722:	d107      	bne.n	8004734 <UART_EndRxTransfer+0x44>
 8004724:	e852 3f00 	ldrex	r3, [r2]
 8004728:	f023 0310 	bic.w	r3, r3, #16
 800472c:	e842 3100 	strex	r1, r3, [r2]
 8004730:	2900      	cmp	r1, #0
 8004732:	d1f7      	bne.n	8004724 <UART_EndRxTransfer+0x34>
 8004734:	2320      	movs	r3, #32
 8004736:	f8c0 308c 	str.w	r3, [r0, #140]	; 0x8c
 800473a:	2300      	movs	r3, #0
 800473c:	66c3      	str	r3, [r0, #108]	; 0x6c
 800473e:	6743      	str	r3, [r0, #116]	; 0x74
 8004740:	bd10      	pop	{r4, pc}
 8004742:	bf00      	nop
 8004744:	effffffe 	.word	0xeffffffe

08004748 <UART_SetConfig>:
 8004748:	b538      	push	{r3, r4, r5, lr}
 800474a:	4604      	mov	r4, r0
 800474c:	6803      	ldr	r3, [r0, #0]
 800474e:	6921      	ldr	r1, [r4, #16]
 8004750:	68a2      	ldr	r2, [r4, #8]
 8004752:	681d      	ldr	r5, [r3, #0]
 8004754:	69c0      	ldr	r0, [r0, #28]
 8004756:	430a      	orrs	r2, r1
 8004758:	6961      	ldr	r1, [r4, #20]
 800475a:	430a      	orrs	r2, r1
 800475c:	49a0      	ldr	r1, [pc, #640]	; (80049e0 <UART_SetConfig+0x298>)
 800475e:	4302      	orrs	r2, r0
 8004760:	4029      	ands	r1, r5
 8004762:	430a      	orrs	r2, r1
 8004764:	601a      	str	r2, [r3, #0]
 8004766:	685a      	ldr	r2, [r3, #4]
 8004768:	68e1      	ldr	r1, [r4, #12]
 800476a:	f422 5240 	bic.w	r2, r2, #12288	; 0x3000
 800476e:	430a      	orrs	r2, r1
 8004770:	605a      	str	r2, [r3, #4]
 8004772:	4a9c      	ldr	r2, [pc, #624]	; (80049e4 <UART_SetConfig+0x29c>)
 8004774:	69a1      	ldr	r1, [r4, #24]
 8004776:	4293      	cmp	r3, r2
 8004778:	bf1c      	itt	ne
 800477a:	6a22      	ldrne	r2, [r4, #32]
 800477c:	4311      	orrne	r1, r2
 800477e:	689a      	ldr	r2, [r3, #8]
 8004780:	f022 426e 	bic.w	r2, r2, #3992977408	; 0xee000000
 8004784:	f422 6230 	bic.w	r2, r2, #2816	; 0xb00
 8004788:	430a      	orrs	r2, r1
 800478a:	609a      	str	r2, [r3, #8]
 800478c:	6ada      	ldr	r2, [r3, #44]	; 0x2c
 800478e:	6a61      	ldr	r1, [r4, #36]	; 0x24
 8004790:	f022 020f 	bic.w	r2, r2, #15
 8004794:	430a      	orrs	r2, r1
 8004796:	62da      	str	r2, [r3, #44]	; 0x2c
 8004798:	4a93      	ldr	r2, [pc, #588]	; (80049e8 <UART_SetConfig+0x2a0>)
 800479a:	4293      	cmp	r3, r2
 800479c:	d11b      	bne.n	80047d6 <UART_SetConfig+0x8e>
 800479e:	4b93      	ldr	r3, [pc, #588]	; (80049ec <UART_SetConfig+0x2a4>)
 80047a0:	f8d3 3088 	ldr.w	r3, [r3, #136]	; 0x88
 80047a4:	f003 0303 	and.w	r3, r3, #3
 80047a8:	3b01      	subs	r3, #1
 80047aa:	2b02      	cmp	r3, #2
 80047ac:	f200 80e4 	bhi.w	8004978 <UART_SetConfig+0x230>
 80047b0:	4a8f      	ldr	r2, [pc, #572]	; (80049f0 <UART_SetConfig+0x2a8>)
 80047b2:	5cd3      	ldrb	r3, [r2, r3]
 80047b4:	f5b0 4f00 	cmp.w	r0, #32768	; 0x8000
 80047b8:	f040 80ab 	bne.w	8004912 <UART_SetConfig+0x1ca>
 80047bc:	2b08      	cmp	r3, #8
 80047be:	d826      	bhi.n	800480e <UART_SetConfig+0xc6>
 80047c0:	e8df f013 	tbh	[pc, r3, lsl #1]
 80047c4:	00dd00ee 	.word	0x00dd00ee
 80047c8:	002500a5 	.word	0x002500a5
 80047cc:	002500e3 	.word	0x002500e3
 80047d0:	00250025 	.word	0x00250025
 80047d4:	00f2      	.short	0x00f2
 80047d6:	4a87      	ldr	r2, [pc, #540]	; (80049f4 <UART_SetConfig+0x2ac>)
 80047d8:	4293      	cmp	r3, r2
 80047da:	d106      	bne.n	80047ea <UART_SetConfig+0xa2>
 80047dc:	4b83      	ldr	r3, [pc, #524]	; (80049ec <UART_SetConfig+0x2a4>)
 80047de:	4a86      	ldr	r2, [pc, #536]	; (80049f8 <UART_SetConfig+0x2b0>)
 80047e0:	f8d3 3088 	ldr.w	r3, [r3, #136]	; 0x88
 80047e4:	f003 030c 	and.w	r3, r3, #12
 80047e8:	e7e3      	b.n	80047b2 <UART_SetConfig+0x6a>
 80047ea:	4a84      	ldr	r2, [pc, #528]	; (80049fc <UART_SetConfig+0x2b4>)
 80047ec:	4293      	cmp	r3, r2
 80047ee:	d119      	bne.n	8004824 <UART_SetConfig+0xdc>
 80047f0:	4b7e      	ldr	r3, [pc, #504]	; (80049ec <UART_SetConfig+0x2a4>)
 80047f2:	f8d3 3088 	ldr.w	r3, [r3, #136]	; 0x88
 80047f6:	f003 0330 	and.w	r3, r3, #48	; 0x30
 80047fa:	2b20      	cmp	r3, #32
 80047fc:	f000 80c8 	beq.w	8004990 <UART_SetConfig+0x248>
 8004800:	d807      	bhi.n	8004812 <UART_SetConfig+0xca>
 8004802:	2b00      	cmp	r3, #0
 8004804:	f000 80c9 	beq.w	800499a <UART_SetConfig+0x252>
 8004808:	2b10      	cmp	r3, #16
 800480a:	f000 80bb 	beq.w	8004984 <UART_SetConfig+0x23c>
 800480e:	2001      	movs	r0, #1
 8004810:	e04e      	b.n	80048b0 <UART_SetConfig+0x168>
 8004812:	2b30      	cmp	r3, #48	; 0x30
 8004814:	d1fb      	bne.n	800480e <UART_SetConfig+0xc6>
 8004816:	f5b0 4f00 	cmp.w	r0, #32768	; 0x8000
 800481a:	f000 80c5 	beq.w	80049a8 <UART_SetConfig+0x260>
 800481e:	f44f 4000 	mov.w	r0, #32768	; 0x8000
 8004822:	e093      	b.n	800494c <UART_SetConfig+0x204>
 8004824:	4a76      	ldr	r2, [pc, #472]	; (8004a00 <UART_SetConfig+0x2b8>)
 8004826:	4293      	cmp	r3, r2
 8004828:	d10f      	bne.n	800484a <UART_SetConfig+0x102>
 800482a:	4b70      	ldr	r3, [pc, #448]	; (80049ec <UART_SetConfig+0x2a4>)
 800482c:	f8d3 3088 	ldr.w	r3, [r3, #136]	; 0x88
 8004830:	f003 03c0 	and.w	r3, r3, #192	; 0xc0
 8004834:	2b80      	cmp	r3, #128	; 0x80
 8004836:	f000 80ab 	beq.w	8004990 <UART_SetConfig+0x248>
 800483a:	d804      	bhi.n	8004846 <UART_SetConfig+0xfe>
 800483c:	2b00      	cmp	r3, #0
 800483e:	f000 80ac 	beq.w	800499a <UART_SetConfig+0x252>
 8004842:	2b40      	cmp	r3, #64	; 0x40
 8004844:	e7e1      	b.n	800480a <UART_SetConfig+0xc2>
 8004846:	2bc0      	cmp	r3, #192	; 0xc0
 8004848:	e7e4      	b.n	8004814 <UART_SetConfig+0xcc>
 800484a:	4a6e      	ldr	r2, [pc, #440]	; (8004a04 <UART_SetConfig+0x2bc>)
 800484c:	4293      	cmp	r3, r2
 800484e:	d112      	bne.n	8004876 <UART_SetConfig+0x12e>
 8004850:	4b66      	ldr	r3, [pc, #408]	; (80049ec <UART_SetConfig+0x2a4>)
 8004852:	f8d3 3088 	ldr.w	r3, [r3, #136]	; 0x88
 8004856:	f403 7340 	and.w	r3, r3, #768	; 0x300
 800485a:	f5b3 7f00 	cmp.w	r3, #512	; 0x200
 800485e:	f000 8097 	beq.w	8004990 <UART_SetConfig+0x248>
 8004862:	d805      	bhi.n	8004870 <UART_SetConfig+0x128>
 8004864:	2b00      	cmp	r3, #0
 8004866:	f000 8098 	beq.w	800499a <UART_SetConfig+0x252>
 800486a:	f5b3 7f80 	cmp.w	r3, #256	; 0x100
 800486e:	e7cc      	b.n	800480a <UART_SetConfig+0xc2>
 8004870:	f5b3 7f40 	cmp.w	r3, #768	; 0x300
 8004874:	e7ce      	b.n	8004814 <UART_SetConfig+0xcc>
 8004876:	4a5b      	ldr	r2, [pc, #364]	; (80049e4 <UART_SetConfig+0x29c>)
 8004878:	4293      	cmp	r3, r2
 800487a:	d1c8      	bne.n	800480e <UART_SetConfig+0xc6>
 800487c:	4b5b      	ldr	r3, [pc, #364]	; (80049ec <UART_SetConfig+0x2a4>)
 800487e:	f8d3 3088 	ldr.w	r3, [r3, #136]	; 0x88
 8004882:	f403 6340 	and.w	r3, r3, #3072	; 0xc00
 8004886:	f5b3 6f00 	cmp.w	r3, #2048	; 0x800
 800488a:	d018      	beq.n	80048be <UART_SetConfig+0x176>
 800488c:	d806      	bhi.n	800489c <UART_SetConfig+0x154>
 800488e:	b15b      	cbz	r3, 80048a8 <UART_SetConfig+0x160>
 8004890:	f5b3 6f80 	cmp.w	r3, #1024	; 0x400
 8004894:	d1bb      	bne.n	800480e <UART_SetConfig+0xc6>
 8004896:	f7fe fe7b 	bl	8003590 <HAL_RCC_GetSysClockFreq>
 800489a:	e007      	b.n	80048ac <UART_SetConfig+0x164>
 800489c:	f5b3 6f40 	cmp.w	r3, #3072	; 0xc00
 80048a0:	d1b5      	bne.n	800480e <UART_SetConfig+0xc6>
 80048a2:	f44f 4000 	mov.w	r0, #32768	; 0x8000
 80048a6:	e00b      	b.n	80048c0 <UART_SetConfig+0x178>
 80048a8:	f7ff fa6c 	bl	8003d84 <HAL_RCC_GetPCLK1Freq>
 80048ac:	b940      	cbnz	r0, 80048c0 <UART_SetConfig+0x178>
 80048ae:	2000      	movs	r0, #0
 80048b0:	f04f 1301 	mov.w	r3, #65537	; 0x10001
 80048b4:	66a3      	str	r3, [r4, #104]	; 0x68
 80048b6:	2300      	movs	r3, #0
 80048b8:	e9c4 331d 	strd	r3, r3, [r4, #116]	; 0x74
 80048bc:	bd38      	pop	{r3, r4, r5, pc}
 80048be:	4852      	ldr	r0, [pc, #328]	; (8004a08 <UART_SetConfig+0x2c0>)
 80048c0:	6865      	ldr	r5, [r4, #4]
 80048c2:	4b52      	ldr	r3, [pc, #328]	; (8004a0c <UART_SetConfig+0x2c4>)
 80048c4:	6a62      	ldr	r2, [r4, #36]	; 0x24
 80048c6:	eb05 0145 	add.w	r1, r5, r5, lsl #1
 80048ca:	f833 2012 	ldrh.w	r2, [r3, r2, lsl #1]
 80048ce:	fbb0 f3f2 	udiv	r3, r0, r2
 80048d2:	4299      	cmp	r1, r3
 80048d4:	d89b      	bhi.n	800480e <UART_SetConfig+0xc6>
 80048d6:	ebb3 3f05 	cmp.w	r3, r5, lsl #12
 80048da:	d898      	bhi.n	800480e <UART_SetConfig+0xc6>
 80048dc:	2300      	movs	r3, #0
 80048de:	4619      	mov	r1, r3
 80048e0:	f7fc f97a 	bl	8000bd8 <__aeabi_uldivmod>
 80048e4:	0209      	lsls	r1, r1, #8
 80048e6:	ea41 6110 	orr.w	r1, r1, r0, lsr #24
 80048ea:	086b      	lsrs	r3, r5, #1
 80048ec:	0200      	lsls	r0, r0, #8
 80048ee:	18c0      	adds	r0, r0, r3
 80048f0:	462a      	mov	r2, r5
 80048f2:	f04f 0300 	mov.w	r3, #0
 80048f6:	f141 0100 	adc.w	r1, r1, #0
 80048fa:	f7fc f96d 	bl	8000bd8 <__aeabi_uldivmod>
 80048fe:	4b44      	ldr	r3, [pc, #272]	; (8004a10 <UART_SetConfig+0x2c8>)
 8004900:	f5a0 7240 	sub.w	r2, r0, #768	; 0x300
 8004904:	429a      	cmp	r2, r3
 8004906:	d882      	bhi.n	800480e <UART_SetConfig+0xc6>
 8004908:	6823      	ldr	r3, [r4, #0]
 800490a:	60d8      	str	r0, [r3, #12]
 800490c:	e7cf      	b.n	80048ae <UART_SetConfig+0x166>
 800490e:	483e      	ldr	r0, [pc, #248]	; (8004a08 <UART_SetConfig+0x2c0>)
 8004910:	e04a      	b.n	80049a8 <UART_SetConfig+0x260>
 8004912:	2b08      	cmp	r3, #8
 8004914:	f63f af7b 	bhi.w	800480e <UART_SetConfig+0xc6>
 8004918:	a201      	add	r2, pc, #4	; (adr r2, 8004920 <UART_SetConfig+0x1d8>)
 800491a:	f852 f023 	ldr.w	pc, [r2, r3, lsl #2]
 800491e:	bf00      	nop
 8004920:	08004945 	.word	0x08004945
 8004924:	0800496d 	.word	0x0800496d
 8004928:	08004997 	.word	0x08004997
 800492c:	0800480f 	.word	0x0800480f
 8004930:	08004973 	.word	0x08004973
 8004934:	0800480f 	.word	0x0800480f
 8004938:	0800480f 	.word	0x0800480f
 800493c:	0800480f 	.word	0x0800480f
 8004940:	0800481f 	.word	0x0800481f
 8004944:	f7ff fa1e 	bl	8003d84 <HAL_RCC_GetPCLK1Freq>
 8004948:	2800      	cmp	r0, #0
 800494a:	d0b0      	beq.n	80048ae <UART_SetConfig+0x166>
 800494c:	6863      	ldr	r3, [r4, #4]
 800494e:	6a61      	ldr	r1, [r4, #36]	; 0x24
 8004950:	4a2e      	ldr	r2, [pc, #184]	; (8004a0c <UART_SetConfig+0x2c4>)
 8004952:	f832 2011 	ldrh.w	r2, [r2, r1, lsl #1]
 8004956:	fbb0 f0f2 	udiv	r0, r0, r2
 800495a:	eb00 0053 	add.w	r0, r0, r3, lsr #1
 800495e:	fbb0 f0f3 	udiv	r0, r0, r3
 8004962:	f64f 73ef 	movw	r3, #65519	; 0xffef
 8004966:	f1a0 0210 	sub.w	r2, r0, #16
 800496a:	e7cb      	b.n	8004904 <UART_SetConfig+0x1bc>
 800496c:	f7ff fa1c 	bl	8003da8 <HAL_RCC_GetPCLK2Freq>
 8004970:	e7ea      	b.n	8004948 <UART_SetConfig+0x200>
 8004972:	f7fe fe0d 	bl	8003590 <HAL_RCC_GetSysClockFreq>
 8004976:	e7e7      	b.n	8004948 <UART_SetConfig+0x200>
 8004978:	f5b0 4f00 	cmp.w	r0, #32768	; 0x8000
 800497c:	d1f6      	bne.n	800496c <UART_SetConfig+0x224>
 800497e:	f7ff fa13 	bl	8003da8 <HAL_RCC_GetPCLK2Freq>
 8004982:	e00f      	b.n	80049a4 <UART_SetConfig+0x25c>
 8004984:	f5b0 4f00 	cmp.w	r0, #32768	; 0x8000
 8004988:	d1f3      	bne.n	8004972 <UART_SetConfig+0x22a>
 800498a:	f7fe fe01 	bl	8003590 <HAL_RCC_GetSysClockFreq>
 800498e:	e009      	b.n	80049a4 <UART_SetConfig+0x25c>
 8004990:	f5b0 4f00 	cmp.w	r0, #32768	; 0x8000
 8004994:	d0bb      	beq.n	800490e <UART_SetConfig+0x1c6>
 8004996:	481c      	ldr	r0, [pc, #112]	; (8004a08 <UART_SetConfig+0x2c0>)
 8004998:	e7d8      	b.n	800494c <UART_SetConfig+0x204>
 800499a:	f5b0 4f00 	cmp.w	r0, #32768	; 0x8000
 800499e:	d1d1      	bne.n	8004944 <UART_SetConfig+0x1fc>
 80049a0:	f7ff f9f0 	bl	8003d84 <HAL_RCC_GetPCLK1Freq>
 80049a4:	2800      	cmp	r0, #0
 80049a6:	d082      	beq.n	80048ae <UART_SetConfig+0x166>
 80049a8:	6861      	ldr	r1, [r4, #4]
 80049aa:	4b18      	ldr	r3, [pc, #96]	; (8004a0c <UART_SetConfig+0x2c4>)
 80049ac:	6a62      	ldr	r2, [r4, #36]	; 0x24
 80049ae:	f833 2012 	ldrh.w	r2, [r3, r2, lsl #1]
 80049b2:	fbb0 f2f2 	udiv	r2, r0, r2
 80049b6:	084b      	lsrs	r3, r1, #1
 80049b8:	eb03 0342 	add.w	r3, r3, r2, lsl #1
 80049bc:	f64f 72ef 	movw	r2, #65519	; 0xffef
 80049c0:	fbb3 f3f1 	udiv	r3, r3, r1
 80049c4:	f1a3 0110 	sub.w	r1, r3, #16
 80049c8:	4291      	cmp	r1, r2
 80049ca:	f63f af20 	bhi.w	800480e <UART_SetConfig+0xc6>
 80049ce:	f023 020f 	bic.w	r2, r3, #15
 80049d2:	6821      	ldr	r1, [r4, #0]
 80049d4:	b292      	uxth	r2, r2
 80049d6:	f3c3 0342 	ubfx	r3, r3, #1, #3
 80049da:	4313      	orrs	r3, r2
 80049dc:	60cb      	str	r3, [r1, #12]
 80049de:	e766      	b.n	80048ae <UART_SetConfig+0x166>
 80049e0:	cfff69f3 	.word	0xcfff69f3
 80049e4:	40008000 	.word	0x40008000
 80049e8:	40013800 	.word	0x40013800
 80049ec:	40021000 	.word	0x40021000
 80049f0:	080089b8 	.word	0x080089b8
 80049f4:	40004400 	.word	0x40004400
 80049f8:	080089bb 	.word	0x080089bb
 80049fc:	40004800 	.word	0x40004800
 8004a00:	40004c00 	.word	0x40004c00
 8004a04:	40005000 	.word	0x40005000
 8004a08:	00f42400 	.word	0x00f42400
 8004a0c:	080089c8 	.word	0x080089c8
 8004a10:	000ffcff 	.word	0x000ffcff

08004a14 <UART_AdvFeatureConfig>:
 8004a14:	6a83      	ldr	r3, [r0, #40]	; 0x28
 8004a16:	071a      	lsls	r2, r3, #28
 8004a18:	b510      	push	{r4, lr}
 8004a1a:	d506      	bpl.n	8004a2a <UART_AdvFeatureConfig+0x16>
 8004a1c:	6801      	ldr	r1, [r0, #0]
 8004a1e:	6b84      	ldr	r4, [r0, #56]	; 0x38
 8004a20:	684a      	ldr	r2, [r1, #4]
 8004a22:	f422 4200 	bic.w	r2, r2, #32768	; 0x8000
 8004a26:	4322      	orrs	r2, r4
 8004a28:	604a      	str	r2, [r1, #4]
 8004a2a:	07dc      	lsls	r4, r3, #31
 8004a2c:	d506      	bpl.n	8004a3c <UART_AdvFeatureConfig+0x28>
 8004a2e:	6801      	ldr	r1, [r0, #0]
 8004a30:	6ac4      	ldr	r4, [r0, #44]	; 0x2c
 8004a32:	684a      	ldr	r2, [r1, #4]
 8004a34:	f422 3200 	bic.w	r2, r2, #131072	; 0x20000
 8004a38:	4322      	orrs	r2, r4
 8004a3a:	604a      	str	r2, [r1, #4]
 8004a3c:	0799      	lsls	r1, r3, #30
 8004a3e:	d506      	bpl.n	8004a4e <UART_AdvFeatureConfig+0x3a>
 8004a40:	6801      	ldr	r1, [r0, #0]
 8004a42:	6b04      	ldr	r4, [r0, #48]	; 0x30
 8004a44:	684a      	ldr	r2, [r1, #4]
 8004a46:	f422 3280 	bic.w	r2, r2, #65536	; 0x10000
 8004a4a:	4322      	orrs	r2, r4
 8004a4c:	604a      	str	r2, [r1, #4]
 8004a4e:	075a      	lsls	r2, r3, #29
 8004a50:	d506      	bpl.n	8004a60 <UART_AdvFeatureConfig+0x4c>
 8004a52:	6801      	ldr	r1, [r0, #0]
 8004a54:	6b44      	ldr	r4, [r0, #52]	; 0x34
 8004a56:	684a      	ldr	r2, [r1, #4]
 8004a58:	f422 2280 	bic.w	r2, r2, #262144	; 0x40000
 8004a5c:	4322      	orrs	r2, r4
 8004a5e:	604a      	str	r2, [r1, #4]
 8004a60:	06dc      	lsls	r4, r3, #27
 8004a62:	d506      	bpl.n	8004a72 <UART_AdvFeatureConfig+0x5e>
 8004a64:	6801      	ldr	r1, [r0, #0]
 8004a66:	6bc4      	ldr	r4, [r0, #60]	; 0x3c
 8004a68:	688a      	ldr	r2, [r1, #8]
 8004a6a:	f422 5280 	bic.w	r2, r2, #4096	; 0x1000
 8004a6e:	4322      	orrs	r2, r4
 8004a70:	608a      	str	r2, [r1, #8]
 8004a72:	0699      	lsls	r1, r3, #26
 8004a74:	d506      	bpl.n	8004a84 <UART_AdvFeatureConfig+0x70>
 8004a76:	6801      	ldr	r1, [r0, #0]
 8004a78:	6c04      	ldr	r4, [r0, #64]	; 0x40
 8004a7a:	688a      	ldr	r2, [r1, #8]
 8004a7c:	f422 5200 	bic.w	r2, r2, #8192	; 0x2000
 8004a80:	4322      	orrs	r2, r4
 8004a82:	608a      	str	r2, [r1, #8]
 8004a84:	065a      	lsls	r2, r3, #25
 8004a86:	d50f      	bpl.n	8004aa8 <UART_AdvFeatureConfig+0x94>
 8004a88:	6801      	ldr	r1, [r0, #0]
 8004a8a:	6c44      	ldr	r4, [r0, #68]	; 0x44
 8004a8c:	684a      	ldr	r2, [r1, #4]
 8004a8e:	f422 1280 	bic.w	r2, r2, #1048576	; 0x100000
 8004a92:	4322      	orrs	r2, r4
 8004a94:	f5b4 1f80 	cmp.w	r4, #1048576	; 0x100000
 8004a98:	604a      	str	r2, [r1, #4]
 8004a9a:	d105      	bne.n	8004aa8 <UART_AdvFeatureConfig+0x94>
 8004a9c:	684a      	ldr	r2, [r1, #4]
 8004a9e:	6c84      	ldr	r4, [r0, #72]	; 0x48
 8004aa0:	f422 02c0 	bic.w	r2, r2, #6291456	; 0x600000
 8004aa4:	4322      	orrs	r2, r4
 8004aa6:	604a      	str	r2, [r1, #4]
 8004aa8:	061b      	lsls	r3, r3, #24
 8004aaa:	d506      	bpl.n	8004aba <UART_AdvFeatureConfig+0xa6>
 8004aac:	6802      	ldr	r2, [r0, #0]
 8004aae:	6cc1      	ldr	r1, [r0, #76]	; 0x4c
 8004ab0:	6853      	ldr	r3, [r2, #4]
 8004ab2:	f423 2300 	bic.w	r3, r3, #524288	; 0x80000
 8004ab6:	430b      	orrs	r3, r1
 8004ab8:	6053      	str	r3, [r2, #4]
 8004aba:	bd10      	pop	{r4, pc}

08004abc <UART_WaitOnFlagUntilTimeout>:
 8004abc:	e92d 43f8 	stmdb	sp!, {r3, r4, r5, r6, r7, r8, r9, lr}
 8004ac0:	f8dd 9020 	ldr.w	r9, [sp, #32]
 8004ac4:	4604      	mov	r4, r0
 8004ac6:	460f      	mov	r7, r1
 8004ac8:	4616      	mov	r6, r2
 8004aca:	4698      	mov	r8, r3
 8004acc:	6822      	ldr	r2, [r4, #0]
 8004ace:	69d3      	ldr	r3, [r2, #28]
 8004ad0:	ea37 0303 	bics.w	r3, r7, r3
 8004ad4:	bf0c      	ite	eq
 8004ad6:	2301      	moveq	r3, #1
 8004ad8:	2300      	movne	r3, #0
 8004ada:	42b3      	cmp	r3, r6
 8004adc:	d001      	beq.n	8004ae2 <UART_WaitOnFlagUntilTimeout+0x26>
 8004ade:	2000      	movs	r0, #0
 8004ae0:	e01e      	b.n	8004b20 <UART_WaitOnFlagUntilTimeout+0x64>
 8004ae2:	f1b9 3fff 	cmp.w	r9, #4294967295
 8004ae6:	d0f2      	beq.n	8004ace <UART_WaitOnFlagUntilTimeout+0x12>
 8004ae8:	f7fd fc7c 	bl	80023e4 <HAL_GetTick>
 8004aec:	eba0 0008 	sub.w	r0, r0, r8
 8004af0:	4548      	cmp	r0, r9
 8004af2:	d825      	bhi.n	8004b40 <UART_WaitOnFlagUntilTimeout+0x84>
 8004af4:	f1b9 0f00 	cmp.w	r9, #0
 8004af8:	d022      	beq.n	8004b40 <UART_WaitOnFlagUntilTimeout+0x84>
 8004afa:	6820      	ldr	r0, [r4, #0]
 8004afc:	6803      	ldr	r3, [r0, #0]
 8004afe:	075a      	lsls	r2, r3, #29
 8004b00:	d5e4      	bpl.n	8004acc <UART_WaitOnFlagUntilTimeout+0x10>
 8004b02:	69c5      	ldr	r5, [r0, #28]
 8004b04:	f015 0508 	ands.w	r5, r5, #8
 8004b08:	d00c      	beq.n	8004b24 <UART_WaitOnFlagUntilTimeout+0x68>
 8004b0a:	2508      	movs	r5, #8
 8004b0c:	6205      	str	r5, [r0, #32]
 8004b0e:	4620      	mov	r0, r4
 8004b10:	f7ff fdee 	bl	80046f0 <UART_EndRxTransfer>
 8004b14:	2300      	movs	r3, #0
 8004b16:	f8c4 5090 	str.w	r5, [r4, #144]	; 0x90
 8004b1a:	f884 3084 	strb.w	r3, [r4, #132]	; 0x84
 8004b1e:	2001      	movs	r0, #1
 8004b20:	e8bd 83f8 	ldmia.w	sp!, {r3, r4, r5, r6, r7, r8, r9, pc}
 8004b24:	69c3      	ldr	r3, [r0, #28]
 8004b26:	051b      	lsls	r3, r3, #20
 8004b28:	d5d0      	bpl.n	8004acc <UART_WaitOnFlagUntilTimeout+0x10>
 8004b2a:	f44f 6300 	mov.w	r3, #2048	; 0x800
 8004b2e:	6203      	str	r3, [r0, #32]
 8004b30:	4620      	mov	r0, r4
 8004b32:	f7ff fddd 	bl	80046f0 <UART_EndRxTransfer>
 8004b36:	2320      	movs	r3, #32
 8004b38:	f8c4 3090 	str.w	r3, [r4, #144]	; 0x90
 8004b3c:	f884 5084 	strb.w	r5, [r4, #132]	; 0x84
 8004b40:	2003      	movs	r0, #3
 8004b42:	e7ed      	b.n	8004b20 <UART_WaitOnFlagUntilTimeout+0x64>

08004b44 <HAL_UART_Transmit>:
 8004b44:	e92d 41ff 	stmdb	sp!, {r0, r1, r2, r3, r4, r5, r6, r7, r8, lr}
 8004b48:	4698      	mov	r8, r3
 8004b4a:	f8d0 3088 	ldr.w	r3, [r0, #136]	; 0x88
 8004b4e:	2b20      	cmp	r3, #32
 8004b50:	4604      	mov	r4, r0
 8004b52:	460e      	mov	r6, r1
 8004b54:	4617      	mov	r7, r2
 8004b56:	d147      	bne.n	8004be8 <HAL_UART_Transmit+0xa4>
 8004b58:	2900      	cmp	r1, #0
 8004b5a:	d047      	beq.n	8004bec <HAL_UART_Transmit+0xa8>
 8004b5c:	2a00      	cmp	r2, #0
 8004b5e:	d045      	beq.n	8004bec <HAL_UART_Transmit+0xa8>
 8004b60:	2321      	movs	r3, #33	; 0x21
 8004b62:	2500      	movs	r5, #0
 8004b64:	f8c0 5090 	str.w	r5, [r0, #144]	; 0x90
 8004b68:	f8c0 3088 	str.w	r3, [r0, #136]	; 0x88
 8004b6c:	f7fd fc3a 	bl	80023e4 <HAL_GetTick>
 8004b70:	68a2      	ldr	r2, [r4, #8]
 8004b72:	f8a4 7054 	strh.w	r7, [r4, #84]	; 0x54
 8004b76:	f5b2 5f80 	cmp.w	r2, #4096	; 0x1000
 8004b7a:	4603      	mov	r3, r0
 8004b7c:	f8a4 7056 	strh.w	r7, [r4, #86]	; 0x56
 8004b80:	d103      	bne.n	8004b8a <HAL_UART_Transmit+0x46>
 8004b82:	6922      	ldr	r2, [r4, #16]
 8004b84:	b90a      	cbnz	r2, 8004b8a <HAL_UART_Transmit+0x46>
 8004b86:	4635      	mov	r5, r6
 8004b88:	4616      	mov	r6, r2
 8004b8a:	f8b4 2056 	ldrh.w	r2, [r4, #86]	; 0x56
 8004b8e:	f8cd 8000 	str.w	r8, [sp]
 8004b92:	b292      	uxth	r2, r2
 8004b94:	b952      	cbnz	r2, 8004bac <HAL_UART_Transmit+0x68>
 8004b96:	2140      	movs	r1, #64	; 0x40
 8004b98:	4620      	mov	r0, r4
 8004b9a:	f7ff ff8f 	bl	8004abc <UART_WaitOnFlagUntilTimeout>
 8004b9e:	2320      	movs	r3, #32
 8004ba0:	f8c4 3088 	str.w	r3, [r4, #136]	; 0x88
 8004ba4:	b968      	cbnz	r0, 8004bc2 <HAL_UART_Transmit+0x7e>
 8004ba6:	b004      	add	sp, #16
 8004ba8:	e8bd 81f0 	ldmia.w	sp!, {r4, r5, r6, r7, r8, pc}
 8004bac:	2200      	movs	r2, #0
 8004bae:	2180      	movs	r1, #128	; 0x80
 8004bb0:	4620      	mov	r0, r4
 8004bb2:	9303      	str	r3, [sp, #12]
 8004bb4:	f7ff ff82 	bl	8004abc <UART_WaitOnFlagUntilTimeout>
 8004bb8:	9b03      	ldr	r3, [sp, #12]
 8004bba:	b120      	cbz	r0, 8004bc6 <HAL_UART_Transmit+0x82>
 8004bbc:	2320      	movs	r3, #32
 8004bbe:	f8c4 3088 	str.w	r3, [r4, #136]	; 0x88
 8004bc2:	2003      	movs	r0, #3
 8004bc4:	e7ef      	b.n	8004ba6 <HAL_UART_Transmit+0x62>
 8004bc6:	6821      	ldr	r1, [r4, #0]
 8004bc8:	b95e      	cbnz	r6, 8004be2 <HAL_UART_Transmit+0x9e>
 8004bca:	f835 2b02 	ldrh.w	r2, [r5], #2
 8004bce:	f3c2 0208 	ubfx	r2, r2, #0, #9
 8004bd2:	850a      	strh	r2, [r1, #40]	; 0x28
 8004bd4:	f8b4 2056 	ldrh.w	r2, [r4, #86]	; 0x56
 8004bd8:	3a01      	subs	r2, #1
 8004bda:	b292      	uxth	r2, r2
 8004bdc:	f8a4 2056 	strh.w	r2, [r4, #86]	; 0x56
 8004be0:	e7d3      	b.n	8004b8a <HAL_UART_Transmit+0x46>
 8004be2:	f816 2b01 	ldrb.w	r2, [r6], #1
 8004be6:	e7f4      	b.n	8004bd2 <HAL_UART_Transmit+0x8e>
 8004be8:	2002      	movs	r0, #2
 8004bea:	e7dc      	b.n	8004ba6 <HAL_UART_Transmit+0x62>
 8004bec:	2001      	movs	r0, #1
 8004bee:	e7da      	b.n	8004ba6 <HAL_UART_Transmit+0x62>

08004bf0 <UART_CheckIdleState>:
 8004bf0:	b530      	push	{r4, r5, lr}
 8004bf2:	4604      	mov	r4, r0
 8004bf4:	2500      	movs	r5, #0
 8004bf6:	b085      	sub	sp, #20
 8004bf8:	f8c0 5090 	str.w	r5, [r0, #144]	; 0x90
 8004bfc:	f7fd fbf2 	bl	80023e4 <HAL_GetTick>
 8004c00:	6822      	ldr	r2, [r4, #0]
 8004c02:	6812      	ldr	r2, [r2, #0]
 8004c04:	0711      	lsls	r1, r2, #28
 8004c06:	4603      	mov	r3, r0
 8004c08:	d51d      	bpl.n	8004c46 <UART_CheckIdleState+0x56>
 8004c0a:	f06f 427e 	mvn.w	r2, #4261412864	; 0xfe000000
 8004c0e:	9200      	str	r2, [sp, #0]
 8004c10:	9003      	str	r0, [sp, #12]
 8004c12:	462a      	mov	r2, r5
 8004c14:	f44f 1100 	mov.w	r1, #2097152	; 0x200000
 8004c18:	4620      	mov	r0, r4
 8004c1a:	f7ff ff4f 	bl	8004abc <UART_WaitOnFlagUntilTimeout>
 8004c1e:	9b03      	ldr	r3, [sp, #12]
 8004c20:	b188      	cbz	r0, 8004c46 <UART_CheckIdleState+0x56>
 8004c22:	6822      	ldr	r2, [r4, #0]
 8004c24:	e852 3f00 	ldrex	r3, [r2]
 8004c28:	f023 0380 	bic.w	r3, r3, #128	; 0x80
 8004c2c:	e842 3100 	strex	r1, r3, [r2]
 8004c30:	2900      	cmp	r1, #0
 8004c32:	d1f6      	bne.n	8004c22 <UART_CheckIdleState+0x32>
 8004c34:	2320      	movs	r3, #32
 8004c36:	f8c4 3088 	str.w	r3, [r4, #136]	; 0x88
 8004c3a:	2003      	movs	r0, #3
 8004c3c:	2300      	movs	r3, #0
 8004c3e:	f884 3084 	strb.w	r3, [r4, #132]	; 0x84
 8004c42:	b005      	add	sp, #20
 8004c44:	bd30      	pop	{r4, r5, pc}
 8004c46:	6822      	ldr	r2, [r4, #0]
 8004c48:	6812      	ldr	r2, [r2, #0]
 8004c4a:	0752      	lsls	r2, r2, #29
 8004c4c:	d523      	bpl.n	8004c96 <UART_CheckIdleState+0xa6>
 8004c4e:	f06f 427e 	mvn.w	r2, #4261412864	; 0xfe000000
 8004c52:	9200      	str	r2, [sp, #0]
 8004c54:	f44f 0180 	mov.w	r1, #4194304	; 0x400000
 8004c58:	2200      	movs	r2, #0
 8004c5a:	4620      	mov	r0, r4
 8004c5c:	f7ff ff2e 	bl	8004abc <UART_WaitOnFlagUntilTimeout>
 8004c60:	b1c8      	cbz	r0, 8004c96 <UART_CheckIdleState+0xa6>
 8004c62:	6822      	ldr	r2, [r4, #0]
 8004c64:	e852 3f00 	ldrex	r3, [r2]
 8004c68:	f423 7390 	bic.w	r3, r3, #288	; 0x120
 8004c6c:	e842 3100 	strex	r1, r3, [r2]
 8004c70:	6822      	ldr	r2, [r4, #0]
 8004c72:	2900      	cmp	r1, #0
 8004c74:	d1f5      	bne.n	8004c62 <UART_CheckIdleState+0x72>
 8004c76:	f102 0308 	add.w	r3, r2, #8
 8004c7a:	e853 3f00 	ldrex	r3, [r3]
 8004c7e:	f023 0301 	bic.w	r3, r3, #1
 8004c82:	f102 0008 	add.w	r0, r2, #8
 8004c86:	e840 3100 	strex	r1, r3, [r0]
 8004c8a:	2900      	cmp	r1, #0
 8004c8c:	d1f3      	bne.n	8004c76 <UART_CheckIdleState+0x86>
 8004c8e:	2320      	movs	r3, #32
 8004c90:	f8c4 308c 	str.w	r3, [r4, #140]	; 0x8c
 8004c94:	e7d1      	b.n	8004c3a <UART_CheckIdleState+0x4a>
 8004c96:	2320      	movs	r3, #32
 8004c98:	2000      	movs	r0, #0
 8004c9a:	f8c4 3088 	str.w	r3, [r4, #136]	; 0x88
 8004c9e:	f8c4 308c 	str.w	r3, [r4, #140]	; 0x8c
 8004ca2:	66e0      	str	r0, [r4, #108]	; 0x6c
 8004ca4:	6720      	str	r0, [r4, #112]	; 0x70
 8004ca6:	e7c9      	b.n	8004c3c <UART_CheckIdleState+0x4c>

08004ca8 <HAL_UART_Init>:
 8004ca8:	b510      	push	{r4, lr}
 8004caa:	4604      	mov	r4, r0
 8004cac:	b350      	cbz	r0, 8004d04 <HAL_UART_Init+0x5c>
 8004cae:	f8d0 3088 	ldr.w	r3, [r0, #136]	; 0x88
 8004cb2:	b91b      	cbnz	r3, 8004cbc <HAL_UART_Init+0x14>
 8004cb4:	f880 3084 	strb.w	r3, [r0, #132]	; 0x84
 8004cb8:	f7fc ffd8 	bl	8001c6c <HAL_UART_MspInit>
 8004cbc:	6822      	ldr	r2, [r4, #0]
 8004cbe:	2324      	movs	r3, #36	; 0x24
 8004cc0:	f8c4 3088 	str.w	r3, [r4, #136]	; 0x88
 8004cc4:	6813      	ldr	r3, [r2, #0]
 8004cc6:	f023 0301 	bic.w	r3, r3, #1
 8004cca:	6013      	str	r3, [r2, #0]
 8004ccc:	6aa3      	ldr	r3, [r4, #40]	; 0x28
 8004cce:	b113      	cbz	r3, 8004cd6 <HAL_UART_Init+0x2e>
 8004cd0:	4620      	mov	r0, r4
 8004cd2:	f7ff fe9f 	bl	8004a14 <UART_AdvFeatureConfig>
 8004cd6:	4620      	mov	r0, r4
 8004cd8:	f7ff fd36 	bl	8004748 <UART_SetConfig>
 8004cdc:	2801      	cmp	r0, #1
 8004cde:	d011      	beq.n	8004d04 <HAL_UART_Init+0x5c>
 8004ce0:	6823      	ldr	r3, [r4, #0]
 8004ce2:	685a      	ldr	r2, [r3, #4]
 8004ce4:	f422 4290 	bic.w	r2, r2, #18432	; 0x4800
 8004ce8:	605a      	str	r2, [r3, #4]
 8004cea:	689a      	ldr	r2, [r3, #8]
 8004cec:	f022 022a 	bic.w	r2, r2, #42	; 0x2a
 8004cf0:	609a      	str	r2, [r3, #8]
 8004cf2:	681a      	ldr	r2, [r3, #0]
 8004cf4:	f042 0201 	orr.w	r2, r2, #1
 8004cf8:	4620      	mov	r0, r4
 8004cfa:	601a      	str	r2, [r3, #0]
 8004cfc:	e8bd 4010 	ldmia.w	sp!, {r4, lr}
 8004d00:	f7ff bf76 	b.w	8004bf0 <UART_CheckIdleState>
 8004d04:	2001      	movs	r0, #1
 8004d06:	bd10      	pop	{r4, pc}

08004d08 <UARTEx_SetNbDataToProcess>:
 8004d08:	6e43      	ldr	r3, [r0, #100]	; 0x64
 8004d0a:	b530      	push	{r4, r5, lr}
 8004d0c:	b92b      	cbnz	r3, 8004d1a <UARTEx_SetNbDataToProcess+0x12>
 8004d0e:	2301      	movs	r3, #1
 8004d10:	f8a0 306a 	strh.w	r3, [r0, #106]	; 0x6a
 8004d14:	f8a0 3068 	strh.w	r3, [r0, #104]	; 0x68
 8004d18:	bd30      	pop	{r4, r5, pc}
 8004d1a:	6803      	ldr	r3, [r0, #0]
 8004d1c:	4d09      	ldr	r5, [pc, #36]	; (8004d44 <UARTEx_SetNbDataToProcess+0x3c>)
 8004d1e:	689a      	ldr	r2, [r3, #8]
 8004d20:	6899      	ldr	r1, [r3, #8]
 8004d22:	4c09      	ldr	r4, [pc, #36]	; (8004d48 <UARTEx_SetNbDataToProcess+0x40>)
 8004d24:	0f49      	lsrs	r1, r1, #29
 8004d26:	f3c2 6242 	ubfx	r2, r2, #25, #3
 8004d2a:	5c6b      	ldrb	r3, [r5, r1]
 8004d2c:	5c61      	ldrb	r1, [r4, r1]
 8004d2e:	00db      	lsls	r3, r3, #3
 8004d30:	fbb3 f3f1 	udiv	r3, r3, r1
 8004d34:	f8a0 306a 	strh.w	r3, [r0, #106]	; 0x6a
 8004d38:	5cab      	ldrb	r3, [r5, r2]
 8004d3a:	5ca2      	ldrb	r2, [r4, r2]
 8004d3c:	00db      	lsls	r3, r3, #3
 8004d3e:	fbb3 f3f2 	udiv	r3, r3, r2
 8004d42:	e7e7      	b.n	8004d14 <UARTEx_SetNbDataToProcess+0xc>
 8004d44:	080089e8 	.word	0x080089e8
 8004d48:	080089e0 	.word	0x080089e0

08004d4c <HAL_UARTEx_DisableFifoMode>:
 8004d4c:	f890 3084 	ldrb.w	r3, [r0, #132]	; 0x84
 8004d50:	2b01      	cmp	r3, #1
 8004d52:	d014      	beq.n	8004d7e <HAL_UARTEx_DisableFifoMode+0x32>
 8004d54:	6802      	ldr	r2, [r0, #0]
 8004d56:	2324      	movs	r3, #36	; 0x24
 8004d58:	f8c0 3088 	str.w	r3, [r0, #136]	; 0x88
 8004d5c:	6811      	ldr	r1, [r2, #0]
 8004d5e:	6813      	ldr	r3, [r2, #0]
 8004d60:	f023 0301 	bic.w	r3, r3, #1
 8004d64:	6013      	str	r3, [r2, #0]
 8004d66:	f021 5100 	bic.w	r1, r1, #536870912	; 0x20000000
 8004d6a:	2300      	movs	r3, #0
 8004d6c:	6643      	str	r3, [r0, #100]	; 0x64
 8004d6e:	6011      	str	r1, [r2, #0]
 8004d70:	2220      	movs	r2, #32
 8004d72:	f8c0 2088 	str.w	r2, [r0, #136]	; 0x88
 8004d76:	f880 3084 	strb.w	r3, [r0, #132]	; 0x84
 8004d7a:	4618      	mov	r0, r3
 8004d7c:	4770      	bx	lr
 8004d7e:	2002      	movs	r0, #2
 8004d80:	4770      	bx	lr

08004d82 <HAL_UARTEx_SetTxFifoThreshold>:
 8004d82:	b570      	push	{r4, r5, r6, lr}
 8004d84:	f890 3084 	ldrb.w	r3, [r0, #132]	; 0x84
 8004d88:	2b01      	cmp	r3, #1
 8004d8a:	4604      	mov	r4, r0
 8004d8c:	d017      	beq.n	8004dbe <HAL_UARTEx_SetTxFifoThreshold+0x3c>
 8004d8e:	6805      	ldr	r5, [r0, #0]
 8004d90:	2324      	movs	r3, #36	; 0x24
 8004d92:	f8c0 3088 	str.w	r3, [r0, #136]	; 0x88
 8004d96:	682e      	ldr	r6, [r5, #0]
 8004d98:	682b      	ldr	r3, [r5, #0]
 8004d9a:	f023 0301 	bic.w	r3, r3, #1
 8004d9e:	602b      	str	r3, [r5, #0]
 8004da0:	68ab      	ldr	r3, [r5, #8]
 8004da2:	f023 4360 	bic.w	r3, r3, #3758096384	; 0xe0000000
 8004da6:	4319      	orrs	r1, r3
 8004da8:	60a9      	str	r1, [r5, #8]
 8004daa:	f7ff ffad 	bl	8004d08 <UARTEx_SetNbDataToProcess>
 8004dae:	2320      	movs	r3, #32
 8004db0:	602e      	str	r6, [r5, #0]
 8004db2:	f8c0 3088 	str.w	r3, [r0, #136]	; 0x88
 8004db6:	2000      	movs	r0, #0
 8004db8:	f884 0084 	strb.w	r0, [r4, #132]	; 0x84
 8004dbc:	bd70      	pop	{r4, r5, r6, pc}
 8004dbe:	2002      	movs	r0, #2
 8004dc0:	e7fc      	b.n	8004dbc <HAL_UARTEx_SetTxFifoThreshold+0x3a>

08004dc2 <HAL_UARTEx_SetRxFifoThreshold>:
 8004dc2:	b570      	push	{r4, r5, r6, lr}
 8004dc4:	f890 3084 	ldrb.w	r3, [r0, #132]	; 0x84
 8004dc8:	2b01      	cmp	r3, #1
 8004dca:	4604      	mov	r4, r0
 8004dcc:	d017      	beq.n	8004dfe <HAL_UARTEx_SetRxFifoThreshold+0x3c>
 8004dce:	6805      	ldr	r5, [r0, #0]
 8004dd0:	2324      	movs	r3, #36	; 0x24
 8004dd2:	f8c0 3088 	str.w	r3, [r0, #136]	; 0x88
 8004dd6:	682e      	ldr	r6, [r5, #0]
 8004dd8:	682b      	ldr	r3, [r5, #0]
 8004dda:	f023 0301 	bic.w	r3, r3, #1
 8004dde:	602b      	str	r3, [r5, #0]
 8004de0:	68ab      	ldr	r3, [r5, #8]
 8004de2:	f023 6360 	bic.w	r3, r3, #234881024	; 0xe000000
 8004de6:	4319      	orrs	r1, r3
 8004de8:	60a9      	str	r1, [r5, #8]
 8004dea:	f7ff ff8d 	bl	8004d08 <UARTEx_SetNbDataToProcess>
 8004dee:	2320      	movs	r3, #32
 8004df0:	602e      	str	r6, [r5, #0]
 8004df2:	f8c0 3088 	str.w	r3, [r0, #136]	; 0x88
 8004df6:	2000      	movs	r0, #0
 8004df8:	f884 0084 	strb.w	r0, [r4, #132]	; 0x84
 8004dfc:	bd70      	pop	{r4, r5, r6, pc}
 8004dfe:	2002      	movs	r0, #2
 8004e00:	e7fc      	b.n	8004dfc <HAL_UARTEx_SetRxFifoThreshold+0x3a>

08004e02 <osKernelStart>:
 8004e02:	b508      	push	{r3, lr}
 8004e04:	f000 fa3e 	bl	8005284 <vTaskStartScheduler>
 8004e08:	2000      	movs	r0, #0
 8004e0a:	bd08      	pop	{r3, pc}

08004e0c <osThreadCreate>:
 8004e0c:	b570      	push	{r4, r5, r6, lr}
 8004e0e:	4605      	mov	r5, r0
 8004e10:	6946      	ldr	r6, [r0, #20]
 8004e12:	692a      	ldr	r2, [r5, #16]
 8004e14:	f9b5 4008 	ldrsh.w	r4, [r5, #8]
 8004e18:	460b      	mov	r3, r1
 8004e1a:	b086      	sub	sp, #24
 8004e1c:	e9d0 1000 	ldrd	r1, r0, [r0]
 8004e20:	b176      	cbz	r6, 8004e40 <osThreadCreate+0x34>
 8004e22:	69ad      	ldr	r5, [r5, #24]
 8004e24:	b165      	cbz	r5, 8004e40 <osThreadCreate+0x34>
 8004e26:	2c84      	cmp	r4, #132	; 0x84
 8004e28:	bf14      	ite	ne
 8004e2a:	3403      	addne	r4, #3
 8004e2c:	2400      	moveq	r4, #0
 8004e2e:	e9cd 6501 	strd	r6, r5, [sp, #4]
 8004e32:	9400      	str	r4, [sp, #0]
 8004e34:	f000 f9c1 	bl	80051ba <xTaskCreateStatic>
 8004e38:	9005      	str	r0, [sp, #20]
 8004e3a:	9805      	ldr	r0, [sp, #20]
 8004e3c:	b006      	add	sp, #24
 8004e3e:	bd70      	pop	{r4, r5, r6, pc}
 8004e40:	2c84      	cmp	r4, #132	; 0x84
 8004e42:	bf14      	ite	ne
 8004e44:	3403      	addne	r4, #3
 8004e46:	2400      	moveq	r4, #0
 8004e48:	ad05      	add	r5, sp, #20
 8004e4a:	e9cd 4500 	strd	r4, r5, [sp]
 8004e4e:	b292      	uxth	r2, r2
 8004e50:	f000 f9eb 	bl	800522a <xTaskCreate>
 8004e54:	2801      	cmp	r0, #1
 8004e56:	d0f0      	beq.n	8004e3a <osThreadCreate+0x2e>
 8004e58:	2000      	movs	r0, #0
 8004e5a:	e7ef      	b.n	8004e3c <osThreadCreate+0x30>

08004e5c <osDelay>:
 8004e5c:	b508      	push	{r3, lr}
 8004e5e:	2801      	cmp	r0, #1
 8004e60:	bf38      	it	cc
 8004e62:	2001      	movcc	r0, #1
 8004e64:	f000 fb5e 	bl	8005524 <vTaskDelay>
 8004e68:	2000      	movs	r0, #0
 8004e6a:	bd08      	pop	{r3, pc}

08004e6c <vListInitialise>:
 8004e6c:	f100 0308 	add.w	r3, r0, #8
 8004e70:	f04f 32ff 	mov.w	r2, #4294967295
 8004e74:	e9c0 2302 	strd	r2, r3, [r0, #8]
 8004e78:	6043      	str	r3, [r0, #4]
 8004e7a:	6103      	str	r3, [r0, #16]
 8004e7c:	2300      	movs	r3, #0
 8004e7e:	6003      	str	r3, [r0, #0]
 8004e80:	4770      	bx	lr

08004e82 <vListInitialiseItem>:
 8004e82:	2300      	movs	r3, #0
 8004e84:	6103      	str	r3, [r0, #16]
 8004e86:	4770      	bx	lr

08004e88 <vListInsertEnd>:
 8004e88:	6843      	ldr	r3, [r0, #4]
 8004e8a:	604b      	str	r3, [r1, #4]
 8004e8c:	689a      	ldr	r2, [r3, #8]
 8004e8e:	608a      	str	r2, [r1, #8]
 8004e90:	689a      	ldr	r2, [r3, #8]
 8004e92:	6051      	str	r1, [r2, #4]
 8004e94:	6099      	str	r1, [r3, #8]
 8004e96:	6803      	ldr	r3, [r0, #0]
 8004e98:	6108      	str	r0, [r1, #16]
 8004e9a:	3301      	adds	r3, #1
 8004e9c:	6003      	str	r3, [r0, #0]
 8004e9e:	4770      	bx	lr

08004ea0 <vListInsert>:
 8004ea0:	b530      	push	{r4, r5, lr}
 8004ea2:	680c      	ldr	r4, [r1, #0]
 8004ea4:	1c63      	adds	r3, r4, #1
 8004ea6:	d10a      	bne.n	8004ebe <vListInsert+0x1e>
 8004ea8:	6903      	ldr	r3, [r0, #16]
 8004eaa:	685a      	ldr	r2, [r3, #4]
 8004eac:	604a      	str	r2, [r1, #4]
 8004eae:	6091      	str	r1, [r2, #8]
 8004eb0:	608b      	str	r3, [r1, #8]
 8004eb2:	6059      	str	r1, [r3, #4]
 8004eb4:	6803      	ldr	r3, [r0, #0]
 8004eb6:	6108      	str	r0, [r1, #16]
 8004eb8:	3301      	adds	r3, #1
 8004eba:	6003      	str	r3, [r0, #0]
 8004ebc:	bd30      	pop	{r4, r5, pc}
 8004ebe:	f100 0208 	add.w	r2, r0, #8
 8004ec2:	4613      	mov	r3, r2
 8004ec4:	6852      	ldr	r2, [r2, #4]
 8004ec6:	6815      	ldr	r5, [r2, #0]
 8004ec8:	42a5      	cmp	r5, r4
 8004eca:	d9fa      	bls.n	8004ec2 <vListInsert+0x22>
 8004ecc:	e7ed      	b.n	8004eaa <vListInsert+0xa>

08004ece <uxListRemove>:
 8004ece:	e9d0 1201 	ldrd	r1, r2, [r0, #4]
 8004ed2:	6903      	ldr	r3, [r0, #16]
 8004ed4:	608a      	str	r2, [r1, #8]
 8004ed6:	6051      	str	r1, [r2, #4]
 8004ed8:	6859      	ldr	r1, [r3, #4]
 8004eda:	4281      	cmp	r1, r0
 8004edc:	bf08      	it	eq
 8004ede:	605a      	streq	r2, [r3, #4]
 8004ee0:	2200      	movs	r2, #0
 8004ee2:	6102      	str	r2, [r0, #16]
 8004ee4:	681a      	ldr	r2, [r3, #0]
 8004ee6:	3a01      	subs	r2, #1
 8004ee8:	601a      	str	r2, [r3, #0]
 8004eea:	6818      	ldr	r0, [r3, #0]
 8004eec:	4770      	bx	lr
	...

08004ef0 <prvAddNewTaskToReadyList>:
 8004ef0:	e92d 41f0 	stmdb	sp!, {r4, r5, r6, r7, r8, lr}
 8004ef4:	4604      	mov	r4, r0
 8004ef6:	f000 fbdd 	bl	80056b4 <vPortEnterCritical>
 8004efa:	4b2f      	ldr	r3, [pc, #188]	; (8004fb8 <prvAddNewTaskToReadyList+0xc8>)
 8004efc:	4e2f      	ldr	r6, [pc, #188]	; (8004fbc <prvAddNewTaskToReadyList+0xcc>)
 8004efe:	681a      	ldr	r2, [r3, #0]
 8004f00:	4f2f      	ldr	r7, [pc, #188]	; (8004fc0 <prvAddNewTaskToReadyList+0xd0>)
 8004f02:	3201      	adds	r2, #1
 8004f04:	601a      	str	r2, [r3, #0]
 8004f06:	6835      	ldr	r5, [r6, #0]
 8004f08:	2d00      	cmp	r5, #0
 8004f0a:	d14a      	bne.n	8004fa2 <prvAddNewTaskToReadyList+0xb2>
 8004f0c:	6034      	str	r4, [r6, #0]
 8004f0e:	681b      	ldr	r3, [r3, #0]
 8004f10:	2b01      	cmp	r3, #1
 8004f12:	d11f      	bne.n	8004f54 <prvAddNewTaskToReadyList+0x64>
 8004f14:	46b8      	mov	r8, r7
 8004f16:	4640      	mov	r0, r8
 8004f18:	3501      	adds	r5, #1
 8004f1a:	f7ff ffa7 	bl	8004e6c <vListInitialise>
 8004f1e:	2d07      	cmp	r5, #7
 8004f20:	f108 0814 	add.w	r8, r8, #20
 8004f24:	d1f7      	bne.n	8004f16 <prvAddNewTaskToReadyList+0x26>
 8004f26:	f8df 80c0 	ldr.w	r8, [pc, #192]	; 8004fe8 <prvAddNewTaskToReadyList+0xf8>
 8004f2a:	4d26      	ldr	r5, [pc, #152]	; (8004fc4 <prvAddNewTaskToReadyList+0xd4>)
 8004f2c:	4640      	mov	r0, r8
 8004f2e:	f7ff ff9d 	bl	8004e6c <vListInitialise>
 8004f32:	4628      	mov	r0, r5
 8004f34:	f7ff ff9a 	bl	8004e6c <vListInitialise>
 8004f38:	4823      	ldr	r0, [pc, #140]	; (8004fc8 <prvAddNewTaskToReadyList+0xd8>)
 8004f3a:	f7ff ff97 	bl	8004e6c <vListInitialise>
 8004f3e:	4823      	ldr	r0, [pc, #140]	; (8004fcc <prvAddNewTaskToReadyList+0xdc>)
 8004f40:	f7ff ff94 	bl	8004e6c <vListInitialise>
 8004f44:	4822      	ldr	r0, [pc, #136]	; (8004fd0 <prvAddNewTaskToReadyList+0xe0>)
 8004f46:	f7ff ff91 	bl	8004e6c <vListInitialise>
 8004f4a:	4b22      	ldr	r3, [pc, #136]	; (8004fd4 <prvAddNewTaskToReadyList+0xe4>)
 8004f4c:	f8c3 8000 	str.w	r8, [r3]
 8004f50:	4b21      	ldr	r3, [pc, #132]	; (8004fd8 <prvAddNewTaskToReadyList+0xe8>)
 8004f52:	601d      	str	r5, [r3, #0]
 8004f54:	4a21      	ldr	r2, [pc, #132]	; (8004fdc <prvAddNewTaskToReadyList+0xec>)
 8004f56:	4922      	ldr	r1, [pc, #136]	; (8004fe0 <prvAddNewTaskToReadyList+0xf0>)
 8004f58:	6813      	ldr	r3, [r2, #0]
 8004f5a:	6808      	ldr	r0, [r1, #0]
 8004f5c:	3301      	adds	r3, #1
 8004f5e:	6013      	str	r3, [r2, #0]
 8004f60:	6ae2      	ldr	r2, [r4, #44]	; 0x2c
 8004f62:	2301      	movs	r3, #1
 8004f64:	4093      	lsls	r3, r2
 8004f66:	4303      	orrs	r3, r0
 8004f68:	2014      	movs	r0, #20
 8004f6a:	600b      	str	r3, [r1, #0]
 8004f6c:	fb00 7002 	mla	r0, r0, r2, r7
 8004f70:	1d21      	adds	r1, r4, #4
 8004f72:	f7ff ff89 	bl	8004e88 <vListInsertEnd>
 8004f76:	f000 fbbd 	bl	80056f4 <vPortExitCritical>
 8004f7a:	4b1a      	ldr	r3, [pc, #104]	; (8004fe4 <prvAddNewTaskToReadyList+0xf4>)
 8004f7c:	681b      	ldr	r3, [r3, #0]
 8004f7e:	b173      	cbz	r3, 8004f9e <prvAddNewTaskToReadyList+0xae>
 8004f80:	6833      	ldr	r3, [r6, #0]
 8004f82:	6ada      	ldr	r2, [r3, #44]	; 0x2c
 8004f84:	6ae3      	ldr	r3, [r4, #44]	; 0x2c
 8004f86:	429a      	cmp	r2, r3
 8004f88:	d209      	bcs.n	8004f9e <prvAddNewTaskToReadyList+0xae>
 8004f8a:	f04f 23e0 	mov.w	r3, #3758153728	; 0xe000e000
 8004f8e:	f04f 5280 	mov.w	r2, #268435456	; 0x10000000
 8004f92:	f8c3 2d04 	str.w	r2, [r3, #3332]	; 0xd04
 8004f96:	f3bf 8f4f 	dsb	sy
 8004f9a:	f3bf 8f6f 	isb	sy
 8004f9e:	e8bd 81f0 	ldmia.w	sp!, {r4, r5, r6, r7, r8, pc}
 8004fa2:	4b10      	ldr	r3, [pc, #64]	; (8004fe4 <prvAddNewTaskToReadyList+0xf4>)
 8004fa4:	681a      	ldr	r2, [r3, #0]
 8004fa6:	6ae3      	ldr	r3, [r4, #44]	; 0x2c
 8004fa8:	2a00      	cmp	r2, #0
 8004faa:	d1d3      	bne.n	8004f54 <prvAddNewTaskToReadyList+0x64>
 8004fac:	6832      	ldr	r2, [r6, #0]
 8004fae:	6ad2      	ldr	r2, [r2, #44]	; 0x2c
 8004fb0:	429a      	cmp	r2, r3
 8004fb2:	bf98      	it	ls
 8004fb4:	6034      	strls	r4, [r6, #0]
 8004fb6:	e7cd      	b.n	8004f54 <prvAddNewTaskToReadyList+0x64>
 8004fb8:	20000974 	.word	0x20000974
 8004fbc:	200008dc 	.word	0x200008dc
 8004fc0:	200008e8 	.word	0x200008e8
 8004fc4:	2000099c 	.word	0x2000099c
 8004fc8:	200009bc 	.word	0x200009bc
 8004fcc:	200009e8 	.word	0x200009e8
 8004fd0:	200009d4 	.word	0x200009d4
 8004fd4:	200008e0 	.word	0x200008e0
 8004fd8:	200008e4 	.word	0x200008e4
 8004fdc:	20000980 	.word	0x20000980
 8004fe0:	20000984 	.word	0x20000984
 8004fe4:	200009d0 	.word	0x200009d0
 8004fe8:	20000988 	.word	0x20000988

08004fec <prvAddCurrentTaskToDelayedList>:
 8004fec:	b5f8      	push	{r3, r4, r5, r6, r7, lr}
 8004fee:	4b1a      	ldr	r3, [pc, #104]	; (8005058 <prvAddCurrentTaskToDelayedList+0x6c>)
 8004ff0:	4d1a      	ldr	r5, [pc, #104]	; (800505c <prvAddCurrentTaskToDelayedList+0x70>)
 8004ff2:	681c      	ldr	r4, [r3, #0]
 8004ff4:	4606      	mov	r6, r0
 8004ff6:	6828      	ldr	r0, [r5, #0]
 8004ff8:	3004      	adds	r0, #4
 8004ffa:	460f      	mov	r7, r1
 8004ffc:	f7ff ff67 	bl	8004ece <uxListRemove>
 8005000:	b940      	cbnz	r0, 8005014 <prvAddCurrentTaskToDelayedList+0x28>
 8005002:	682a      	ldr	r2, [r5, #0]
 8005004:	4916      	ldr	r1, [pc, #88]	; (8005060 <prvAddCurrentTaskToDelayedList+0x74>)
 8005006:	6ad0      	ldr	r0, [r2, #44]	; 0x2c
 8005008:	680b      	ldr	r3, [r1, #0]
 800500a:	2201      	movs	r2, #1
 800500c:	4082      	lsls	r2, r0
 800500e:	ea23 0302 	bic.w	r3, r3, r2
 8005012:	600b      	str	r3, [r1, #0]
 8005014:	1c73      	adds	r3, r6, #1
 8005016:	d107      	bne.n	8005028 <prvAddCurrentTaskToDelayedList+0x3c>
 8005018:	b137      	cbz	r7, 8005028 <prvAddCurrentTaskToDelayedList+0x3c>
 800501a:	6829      	ldr	r1, [r5, #0]
 800501c:	4811      	ldr	r0, [pc, #68]	; (8005064 <prvAddCurrentTaskToDelayedList+0x78>)
 800501e:	e8bd 40f8 	ldmia.w	sp!, {r3, r4, r5, r6, r7, lr}
 8005022:	3104      	adds	r1, #4
 8005024:	f7ff bf30 	b.w	8004e88 <vListInsertEnd>
 8005028:	682b      	ldr	r3, [r5, #0]
 800502a:	19a4      	adds	r4, r4, r6
 800502c:	605c      	str	r4, [r3, #4]
 800502e:	d307      	bcc.n	8005040 <prvAddCurrentTaskToDelayedList+0x54>
 8005030:	4b0d      	ldr	r3, [pc, #52]	; (8005068 <prvAddCurrentTaskToDelayedList+0x7c>)
 8005032:	6818      	ldr	r0, [r3, #0]
 8005034:	6829      	ldr	r1, [r5, #0]
 8005036:	e8bd 40f8 	ldmia.w	sp!, {r3, r4, r5, r6, r7, lr}
 800503a:	3104      	adds	r1, #4
 800503c:	f7ff bf30 	b.w	8004ea0 <vListInsert>
 8005040:	4b0a      	ldr	r3, [pc, #40]	; (800506c <prvAddCurrentTaskToDelayedList+0x80>)
 8005042:	6818      	ldr	r0, [r3, #0]
 8005044:	6829      	ldr	r1, [r5, #0]
 8005046:	3104      	adds	r1, #4
 8005048:	f7ff ff2a 	bl	8004ea0 <vListInsert>
 800504c:	4b08      	ldr	r3, [pc, #32]	; (8005070 <prvAddCurrentTaskToDelayedList+0x84>)
 800504e:	681a      	ldr	r2, [r3, #0]
 8005050:	42a2      	cmp	r2, r4
 8005052:	bf88      	it	hi
 8005054:	601c      	strhi	r4, [r3, #0]
 8005056:	bdf8      	pop	{r3, r4, r5, r6, r7, pc}
 8005058:	200009fc 	.word	0x200009fc
 800505c:	200008dc 	.word	0x200008dc
 8005060:	20000984 	.word	0x20000984
 8005064:	200009d4 	.word	0x200009d4
 8005068:	200008e4 	.word	0x200008e4
 800506c:	200008e0 	.word	0x200008e0
 8005070:	200009b0 	.word	0x200009b0

08005074 <prvResetNextTaskUnblockTime>:
 8005074:	4a06      	ldr	r2, [pc, #24]	; (8005090 <prvResetNextTaskUnblockTime+0x1c>)
 8005076:	6813      	ldr	r3, [r2, #0]
 8005078:	6819      	ldr	r1, [r3, #0]
 800507a:	4b06      	ldr	r3, [pc, #24]	; (8005094 <prvResetNextTaskUnblockTime+0x20>)
 800507c:	b919      	cbnz	r1, 8005086 <prvResetNextTaskUnblockTime+0x12>
 800507e:	f04f 32ff 	mov.w	r2, #4294967295
 8005082:	601a      	str	r2, [r3, #0]
 8005084:	4770      	bx	lr
 8005086:	6812      	ldr	r2, [r2, #0]
 8005088:	68d2      	ldr	r2, [r2, #12]
 800508a:	68d2      	ldr	r2, [r2, #12]
 800508c:	6852      	ldr	r2, [r2, #4]
 800508e:	e7f8      	b.n	8005082 <prvResetNextTaskUnblockTime+0xe>
 8005090:	200008e0 	.word	0x200008e0
 8005094:	200009b0 	.word	0x200009b0

08005098 <prvDeleteTCB>:
 8005098:	b510      	push	{r4, lr}
 800509a:	f890 3051 	ldrb.w	r3, [r0, #81]	; 0x51
 800509e:	4604      	mov	r4, r0
 80050a0:	b93b      	cbnz	r3, 80050b2 <prvDeleteTCB+0x1a>
 80050a2:	6b00      	ldr	r0, [r0, #48]	; 0x30
 80050a4:	f000 fcda 	bl	8005a5c <vPortFree>
 80050a8:	4620      	mov	r0, r4
 80050aa:	e8bd 4010 	ldmia.w	sp!, {r4, lr}
 80050ae:	f000 bcd5 	b.w	8005a5c <vPortFree>
 80050b2:	2b01      	cmp	r3, #1
 80050b4:	d0f9      	beq.n	80050aa <prvDeleteTCB+0x12>
 80050b6:	2b02      	cmp	r3, #2
 80050b8:	d008      	beq.n	80050cc <prvDeleteTCB+0x34>
 80050ba:	f04f 0350 	mov.w	r3, #80	; 0x50
 80050be:	f383 8811 	msr	BASEPRI, r3
 80050c2:	f3bf 8f6f 	isb	sy
 80050c6:	f3bf 8f4f 	dsb	sy
 80050ca:	e7fe      	b.n	80050ca <prvDeleteTCB+0x32>
 80050cc:	bd10      	pop	{r4, pc}
	...

080050d0 <prvIdleTask>:
 80050d0:	b580      	push	{r7, lr}
 80050d2:	4c13      	ldr	r4, [pc, #76]	; (8005120 <prvIdleTask+0x50>)
 80050d4:	4f13      	ldr	r7, [pc, #76]	; (8005124 <prvIdleTask+0x54>)
 80050d6:	4d14      	ldr	r5, [pc, #80]	; (8005128 <prvIdleTask+0x58>)
 80050d8:	6823      	ldr	r3, [r4, #0]
 80050da:	b973      	cbnz	r3, 80050fa <prvIdleTask+0x2a>
 80050dc:	4b13      	ldr	r3, [pc, #76]	; (800512c <prvIdleTask+0x5c>)
 80050de:	681b      	ldr	r3, [r3, #0]
 80050e0:	2b01      	cmp	r3, #1
 80050e2:	d9f8      	bls.n	80050d6 <prvIdleTask+0x6>
 80050e4:	f04f 23e0 	mov.w	r3, #3758153728	; 0xe000e000
 80050e8:	f04f 5280 	mov.w	r2, #268435456	; 0x10000000
 80050ec:	f8c3 2d04 	str.w	r2, [r3, #3332]	; 0xd04
 80050f0:	f3bf 8f4f 	dsb	sy
 80050f4:	f3bf 8f6f 	isb	sy
 80050f8:	e7ed      	b.n	80050d6 <prvIdleTask+0x6>
 80050fa:	f000 fadb 	bl	80056b4 <vPortEnterCritical>
 80050fe:	68fb      	ldr	r3, [r7, #12]
 8005100:	68de      	ldr	r6, [r3, #12]
 8005102:	1d30      	adds	r0, r6, #4
 8005104:	f7ff fee3 	bl	8004ece <uxListRemove>
 8005108:	682b      	ldr	r3, [r5, #0]
 800510a:	3b01      	subs	r3, #1
 800510c:	602b      	str	r3, [r5, #0]
 800510e:	6823      	ldr	r3, [r4, #0]
 8005110:	3b01      	subs	r3, #1
 8005112:	6023      	str	r3, [r4, #0]
 8005114:	f000 faee 	bl	80056f4 <vPortExitCritical>
 8005118:	4630      	mov	r0, r6
 800511a:	f7ff ffbd 	bl	8005098 <prvDeleteTCB>
 800511e:	e7db      	b.n	80050d8 <prvIdleTask+0x8>
 8005120:	20000978 	.word	0x20000978
 8005124:	200009e8 	.word	0x200009e8
 8005128:	20000974 	.word	0x20000974
 800512c:	200008e8 	.word	0x200008e8

08005130 <prvInitialiseNewTask.constprop.0>:
 8005130:	e92d 47f0 	stmdb	sp!, {r4, r5, r6, r7, r8, r9, sl, lr}
 8005134:	e9dd 7409 	ldrd	r7, r4, [sp, #36]	; 0x24
 8005138:	4699      	mov	r9, r3
 800513a:	f102 4280 	add.w	r2, r2, #1073741824	; 0x40000000
 800513e:	6b23      	ldr	r3, [r4, #48]	; 0x30
 8005140:	3a01      	subs	r2, #1
 8005142:	eb03 0382 	add.w	r3, r3, r2, lsl #2
 8005146:	4606      	mov	r6, r0
 8005148:	f023 0807 	bic.w	r8, r3, #7
 800514c:	b391      	cbz	r1, 80051b4 <prvInitialiseNewTask.constprop.0+0x84>
 800514e:	1e4b      	subs	r3, r1, #1
 8005150:	f104 0233 	add.w	r2, r4, #51	; 0x33
 8005154:	f101 050f 	add.w	r5, r1, #15
 8005158:	f813 1f01 	ldrb.w	r1, [r3, #1]!
 800515c:	f802 1f01 	strb.w	r1, [r2, #1]!
 8005160:	b109      	cbz	r1, 8005166 <prvInitialiseNewTask.constprop.0+0x36>
 8005162:	42ab      	cmp	r3, r5
 8005164:	d1f8      	bne.n	8005158 <prvInitialiseNewTask.constprop.0+0x28>
 8005166:	2300      	movs	r3, #0
 8005168:	f884 3043 	strb.w	r3, [r4, #67]	; 0x43
 800516c:	9d08      	ldr	r5, [sp, #32]
 800516e:	2d06      	cmp	r5, #6
 8005170:	bf28      	it	cs
 8005172:	2506      	movcs	r5, #6
 8005174:	f04f 0a00 	mov.w	sl, #0
 8005178:	62e5      	str	r5, [r4, #44]	; 0x2c
 800517a:	6465      	str	r5, [r4, #68]	; 0x44
 800517c:	1d20      	adds	r0, r4, #4
 800517e:	f8c4 a048 	str.w	sl, [r4, #72]	; 0x48
 8005182:	f7ff fe7e 	bl	8004e82 <vListInitialiseItem>
 8005186:	f1c5 0507 	rsb	r5, r5, #7
 800518a:	f104 0018 	add.w	r0, r4, #24
 800518e:	f7ff fe78 	bl	8004e82 <vListInitialiseItem>
 8005192:	f8c4 a04c 	str.w	sl, [r4, #76]	; 0x4c
 8005196:	6124      	str	r4, [r4, #16]
 8005198:	61a5      	str	r5, [r4, #24]
 800519a:	6264      	str	r4, [r4, #36]	; 0x24
 800519c:	f884 a050 	strb.w	sl, [r4, #80]	; 0x50
 80051a0:	464a      	mov	r2, r9
 80051a2:	4631      	mov	r1, r6
 80051a4:	4640      	mov	r0, r8
 80051a6:	f000 fa59 	bl	800565c <pxPortInitialiseStack>
 80051aa:	6020      	str	r0, [r4, #0]
 80051ac:	b107      	cbz	r7, 80051b0 <prvInitialiseNewTask.constprop.0+0x80>
 80051ae:	603c      	str	r4, [r7, #0]
 80051b0:	e8bd 87f0 	ldmia.w	sp!, {r4, r5, r6, r7, r8, r9, sl, pc}
 80051b4:	f884 1034 	strb.w	r1, [r4, #52]	; 0x34
 80051b8:	e7d8      	b.n	800516c <prvInitialiseNewTask.constprop.0+0x3c>

080051ba <xTaskCreateStatic>:
 80051ba:	b570      	push	{r4, r5, r6, lr}
 80051bc:	b086      	sub	sp, #24
 80051be:	e9dd 540b 	ldrd	r5, r4, [sp, #44]	; 0x2c
 80051c2:	b945      	cbnz	r5, 80051d6 <xTaskCreateStatic+0x1c>
 80051c4:	f04f 0350 	mov.w	r3, #80	; 0x50
 80051c8:	f383 8811 	msr	BASEPRI, r3
 80051cc:	f3bf 8f6f 	isb	sy
 80051d0:	f3bf 8f4f 	dsb	sy
 80051d4:	e7fe      	b.n	80051d4 <xTaskCreateStatic+0x1a>
 80051d6:	b944      	cbnz	r4, 80051ea <xTaskCreateStatic+0x30>
 80051d8:	f04f 0350 	mov.w	r3, #80	; 0x50
 80051dc:	f383 8811 	msr	BASEPRI, r3
 80051e0:	f3bf 8f6f 	isb	sy
 80051e4:	f3bf 8f4f 	dsb	sy
 80051e8:	e7fe      	b.n	80051e8 <xTaskCreateStatic+0x2e>
 80051ea:	2654      	movs	r6, #84	; 0x54
 80051ec:	9605      	str	r6, [sp, #20]
 80051ee:	9e05      	ldr	r6, [sp, #20]
 80051f0:	2e54      	cmp	r6, #84	; 0x54
 80051f2:	d008      	beq.n	8005206 <xTaskCreateStatic+0x4c>
 80051f4:	f04f 0350 	mov.w	r3, #80	; 0x50
 80051f8:	f383 8811 	msr	BASEPRI, r3
 80051fc:	f3bf 8f6f 	isb	sy
 8005200:	f3bf 8f4f 	dsb	sy
 8005204:	e7fe      	b.n	8005204 <xTaskCreateStatic+0x4a>
 8005206:	6325      	str	r5, [r4, #48]	; 0x30
 8005208:	2502      	movs	r5, #2
 800520a:	f884 5051 	strb.w	r5, [r4, #81]	; 0x51
 800520e:	ad04      	add	r5, sp, #16
 8005210:	9501      	str	r5, [sp, #4]
 8005212:	9d0a      	ldr	r5, [sp, #40]	; 0x28
 8005214:	9402      	str	r4, [sp, #8]
 8005216:	9500      	str	r5, [sp, #0]
 8005218:	9e05      	ldr	r6, [sp, #20]
 800521a:	f7ff ff89 	bl	8005130 <prvInitialiseNewTask.constprop.0>
 800521e:	4620      	mov	r0, r4
 8005220:	f7ff fe66 	bl	8004ef0 <prvAddNewTaskToReadyList>
 8005224:	9804      	ldr	r0, [sp, #16]
 8005226:	b006      	add	sp, #24
 8005228:	bd70      	pop	{r4, r5, r6, pc}

0800522a <xTaskCreate>:
 800522a:	e92d 43f0 	stmdb	sp!, {r4, r5, r6, r7, r8, r9, lr}
 800522e:	4607      	mov	r7, r0
 8005230:	b085      	sub	sp, #20
 8005232:	0090      	lsls	r0, r2, #2
 8005234:	4688      	mov	r8, r1
 8005236:	4616      	mov	r6, r2
 8005238:	4699      	mov	r9, r3
 800523a:	f000 fb77 	bl	800592c <pvPortMalloc>
 800523e:	4605      	mov	r5, r0
 8005240:	b1e8      	cbz	r0, 800527e <xTaskCreate+0x54>
 8005242:	2054      	movs	r0, #84	; 0x54
 8005244:	f000 fb72 	bl	800592c <pvPortMalloc>
 8005248:	4604      	mov	r4, r0
 800524a:	b1a8      	cbz	r0, 8005278 <xTaskCreate+0x4e>
 800524c:	2300      	movs	r3, #0
 800524e:	f880 3051 	strb.w	r3, [r0, #81]	; 0x51
 8005252:	9b0d      	ldr	r3, [sp, #52]	; 0x34
 8005254:	6305      	str	r5, [r0, #48]	; 0x30
 8005256:	9301      	str	r3, [sp, #4]
 8005258:	9b0c      	ldr	r3, [sp, #48]	; 0x30
 800525a:	9002      	str	r0, [sp, #8]
 800525c:	9300      	str	r3, [sp, #0]
 800525e:	4632      	mov	r2, r6
 8005260:	464b      	mov	r3, r9
 8005262:	4641      	mov	r1, r8
 8005264:	4638      	mov	r0, r7
 8005266:	f7ff ff63 	bl	8005130 <prvInitialiseNewTask.constprop.0>
 800526a:	4620      	mov	r0, r4
 800526c:	f7ff fe40 	bl	8004ef0 <prvAddNewTaskToReadyList>
 8005270:	2001      	movs	r0, #1
 8005272:	b005      	add	sp, #20
 8005274:	e8bd 83f0 	ldmia.w	sp!, {r4, r5, r6, r7, r8, r9, pc}
 8005278:	4628      	mov	r0, r5
 800527a:	f000 fbef 	bl	8005a5c <vPortFree>
 800527e:	f04f 30ff 	mov.w	r0, #4294967295
 8005282:	e7f6      	b.n	8005272 <xTaskCreate+0x48>

08005284 <vTaskStartScheduler>:
 8005284:	b510      	push	{r4, lr}
 8005286:	b088      	sub	sp, #32
 8005288:	2400      	movs	r4, #0
 800528a:	aa07      	add	r2, sp, #28
 800528c:	a906      	add	r1, sp, #24
 800528e:	a805      	add	r0, sp, #20
 8005290:	e9cd 4405 	strd	r4, r4, [sp, #20]
 8005294:	f7fb fe1e 	bl	8000ed4 <vApplicationGetIdleTaskMemory>
 8005298:	9b05      	ldr	r3, [sp, #20]
 800529a:	9302      	str	r3, [sp, #8]
 800529c:	9b06      	ldr	r3, [sp, #24]
 800529e:	9a07      	ldr	r2, [sp, #28]
 80052a0:	490f      	ldr	r1, [pc, #60]	; (80052e0 <vTaskStartScheduler+0x5c>)
 80052a2:	4810      	ldr	r0, [pc, #64]	; (80052e4 <vTaskStartScheduler+0x60>)
 80052a4:	e9cd 4300 	strd	r4, r3, [sp]
 80052a8:	4623      	mov	r3, r4
 80052aa:	f7ff ff86 	bl	80051ba <xTaskCreateStatic>
 80052ae:	b1a8      	cbz	r0, 80052dc <vTaskStartScheduler+0x58>
 80052b0:	f04f 0350 	mov.w	r3, #80	; 0x50
 80052b4:	f383 8811 	msr	BASEPRI, r3
 80052b8:	f3bf 8f6f 	isb	sy
 80052bc:	f3bf 8f4f 	dsb	sy
 80052c0:	4b09      	ldr	r3, [pc, #36]	; (80052e8 <vTaskStartScheduler+0x64>)
 80052c2:	f04f 32ff 	mov.w	r2, #4294967295
 80052c6:	601a      	str	r2, [r3, #0]
 80052c8:	4b08      	ldr	r3, [pc, #32]	; (80052ec <vTaskStartScheduler+0x68>)
 80052ca:	2201      	movs	r2, #1
 80052cc:	601a      	str	r2, [r3, #0]
 80052ce:	4b08      	ldr	r3, [pc, #32]	; (80052f0 <vTaskStartScheduler+0x6c>)
 80052d0:	601c      	str	r4, [r3, #0]
 80052d2:	b008      	add	sp, #32
 80052d4:	e8bd 4010 	ldmia.w	sp!, {r4, lr}
 80052d8:	f000 ba7c 	b.w	80057d4 <xPortStartScheduler>
 80052dc:	b008      	add	sp, #32
 80052de:	bd10      	pop	{r4, pc}
 80052e0:	080089f0 	.word	0x080089f0
 80052e4:	080050d1 	.word	0x080050d1
 80052e8:	200009b0 	.word	0x200009b0
 80052ec:	200009d0 	.word	0x200009d0
 80052f0:	200009fc 	.word	0x200009fc

080052f4 <vTaskSuspendAll>:
 80052f4:	4a02      	ldr	r2, [pc, #8]	; (8005300 <vTaskSuspendAll+0xc>)
 80052f6:	6813      	ldr	r3, [r2, #0]
 80052f8:	3301      	adds	r3, #1
 80052fa:	6013      	str	r3, [r2, #0]
 80052fc:	4770      	bx	lr
 80052fe:	bf00      	nop
 8005300:	2000097c 	.word	0x2000097c

08005304 <xTaskIncrementTick>:
 8005304:	4b40      	ldr	r3, [pc, #256]	; (8005408 <xTaskIncrementTick+0x104>)
 8005306:	681b      	ldr	r3, [r3, #0]
 8005308:	e92d 4ff7 	stmdb	sp!, {r0, r1, r2, r4, r5, r6, r7, r8, r9, sl, fp, lr}
 800530c:	2b00      	cmp	r3, #0
 800530e:	d174      	bne.n	80053fa <xTaskIncrementTick+0xf6>
 8005310:	4b3e      	ldr	r3, [pc, #248]	; (800540c <xTaskIncrementTick+0x108>)
 8005312:	681d      	ldr	r5, [r3, #0]
 8005314:	3501      	adds	r5, #1
 8005316:	601d      	str	r5, [r3, #0]
 8005318:	b9bd      	cbnz	r5, 800534a <xTaskIncrementTick+0x46>
 800531a:	4b3d      	ldr	r3, [pc, #244]	; (8005410 <xTaskIncrementTick+0x10c>)
 800531c:	681a      	ldr	r2, [r3, #0]
 800531e:	6812      	ldr	r2, [r2, #0]
 8005320:	b142      	cbz	r2, 8005334 <xTaskIncrementTick+0x30>
 8005322:	f04f 0350 	mov.w	r3, #80	; 0x50
 8005326:	f383 8811 	msr	BASEPRI, r3
 800532a:	f3bf 8f6f 	isb	sy
 800532e:	f3bf 8f4f 	dsb	sy
 8005332:	e7fe      	b.n	8005332 <xTaskIncrementTick+0x2e>
 8005334:	4a37      	ldr	r2, [pc, #220]	; (8005414 <xTaskIncrementTick+0x110>)
 8005336:	6819      	ldr	r1, [r3, #0]
 8005338:	6810      	ldr	r0, [r2, #0]
 800533a:	6018      	str	r0, [r3, #0]
 800533c:	6011      	str	r1, [r2, #0]
 800533e:	4a36      	ldr	r2, [pc, #216]	; (8005418 <xTaskIncrementTick+0x114>)
 8005340:	6813      	ldr	r3, [r2, #0]
 8005342:	3301      	adds	r3, #1
 8005344:	6013      	str	r3, [r2, #0]
 8005346:	f7ff fe95 	bl	8005074 <prvResetNextTaskUnblockTime>
 800534a:	4e34      	ldr	r6, [pc, #208]	; (800541c <xTaskIncrementTick+0x118>)
 800534c:	4f34      	ldr	r7, [pc, #208]	; (8005420 <xTaskIncrementTick+0x11c>)
 800534e:	6833      	ldr	r3, [r6, #0]
 8005350:	f8df 80d8 	ldr.w	r8, [pc, #216]	; 800542c <xTaskIncrementTick+0x128>
 8005354:	429d      	cmp	r5, r3
 8005356:	f04f 0400 	mov.w	r4, #0
 800535a:	d211      	bcs.n	8005380 <xTaskIncrementTick+0x7c>
 800535c:	f8d8 3000 	ldr.w	r3, [r8]
 8005360:	6adb      	ldr	r3, [r3, #44]	; 0x2c
 8005362:	2214      	movs	r2, #20
 8005364:	4353      	muls	r3, r2
 8005366:	58fb      	ldr	r3, [r7, r3]
 8005368:	2b02      	cmp	r3, #2
 800536a:	4b2e      	ldr	r3, [pc, #184]	; (8005424 <xTaskIncrementTick+0x120>)
 800536c:	681b      	ldr	r3, [r3, #0]
 800536e:	bf28      	it	cs
 8005370:	2401      	movcs	r4, #1
 8005372:	2b00      	cmp	r3, #0
 8005374:	bf18      	it	ne
 8005376:	2401      	movne	r4, #1
 8005378:	4620      	mov	r0, r4
 800537a:	b003      	add	sp, #12
 800537c:	e8bd 8ff0 	ldmia.w	sp!, {r4, r5, r6, r7, r8, r9, sl, fp, pc}
 8005380:	f8df a08c 	ldr.w	sl, [pc, #140]	; 8005410 <xTaskIncrementTick+0x10c>
 8005384:	f8df 90a8 	ldr.w	r9, [pc, #168]	; 8005430 <xTaskIncrementTick+0x12c>
 8005388:	f8da 3000 	ldr.w	r3, [sl]
 800538c:	681b      	ldr	r3, [r3, #0]
 800538e:	b91b      	cbnz	r3, 8005398 <xTaskIncrementTick+0x94>
 8005390:	f04f 33ff 	mov.w	r3, #4294967295
 8005394:	6033      	str	r3, [r6, #0]
 8005396:	e7e1      	b.n	800535c <xTaskIncrementTick+0x58>
 8005398:	f8da 3000 	ldr.w	r3, [sl]
 800539c:	68db      	ldr	r3, [r3, #12]
 800539e:	f8d3 b00c 	ldr.w	fp, [r3, #12]
 80053a2:	f8db 2004 	ldr.w	r2, [fp, #4]
 80053a6:	4295      	cmp	r5, r2
 80053a8:	d201      	bcs.n	80053ae <xTaskIncrementTick+0xaa>
 80053aa:	6032      	str	r2, [r6, #0]
 80053ac:	e7d6      	b.n	800535c <xTaskIncrementTick+0x58>
 80053ae:	f10b 0104 	add.w	r1, fp, #4
 80053b2:	4608      	mov	r0, r1
 80053b4:	9101      	str	r1, [sp, #4]
 80053b6:	f7ff fd8a 	bl	8004ece <uxListRemove>
 80053ba:	f8db 2028 	ldr.w	r2, [fp, #40]	; 0x28
 80053be:	9901      	ldr	r1, [sp, #4]
 80053c0:	b122      	cbz	r2, 80053cc <xTaskIncrementTick+0xc8>
 80053c2:	f10b 0018 	add.w	r0, fp, #24
 80053c6:	f7ff fd82 	bl	8004ece <uxListRemove>
 80053ca:	9901      	ldr	r1, [sp, #4]
 80053cc:	f8db 002c 	ldr.w	r0, [fp, #44]	; 0x2c
 80053d0:	f8d9 3000 	ldr.w	r3, [r9]
 80053d4:	2201      	movs	r2, #1
 80053d6:	4082      	lsls	r2, r0
 80053d8:	431a      	orrs	r2, r3
 80053da:	f8c9 2000 	str.w	r2, [r9]
 80053de:	2214      	movs	r2, #20
 80053e0:	fb02 7000 	mla	r0, r2, r0, r7
 80053e4:	f7ff fd50 	bl	8004e88 <vListInsertEnd>
 80053e8:	f8d8 1000 	ldr.w	r1, [r8]
 80053ec:	f8db 202c 	ldr.w	r2, [fp, #44]	; 0x2c
 80053f0:	6acb      	ldr	r3, [r1, #44]	; 0x2c
 80053f2:	429a      	cmp	r2, r3
 80053f4:	bf28      	it	cs
 80053f6:	2401      	movcs	r4, #1
 80053f8:	e7c6      	b.n	8005388 <xTaskIncrementTick+0x84>
 80053fa:	4a0b      	ldr	r2, [pc, #44]	; (8005428 <xTaskIncrementTick+0x124>)
 80053fc:	6813      	ldr	r3, [r2, #0]
 80053fe:	3301      	adds	r3, #1
 8005400:	6013      	str	r3, [r2, #0]
 8005402:	2400      	movs	r4, #0
 8005404:	e7b8      	b.n	8005378 <xTaskIncrementTick+0x74>
 8005406:	bf00      	nop
 8005408:	2000097c 	.word	0x2000097c
 800540c:	200009fc 	.word	0x200009fc
 8005410:	200008e0 	.word	0x200008e0
 8005414:	200008e4 	.word	0x200008e4
 8005418:	200009b4 	.word	0x200009b4
 800541c:	200009b0 	.word	0x200009b0
 8005420:	200008e8 	.word	0x200008e8
 8005424:	20000a00 	.word	0x20000a00
 8005428:	200009b8 	.word	0x200009b8
 800542c:	200008dc 	.word	0x200008dc
 8005430:	20000984 	.word	0x20000984

08005434 <xTaskResumeAll>:
 8005434:	e92d 41f3 	stmdb	sp!, {r0, r1, r4, r5, r6, r7, r8, lr}
 8005438:	4c32      	ldr	r4, [pc, #200]	; (8005504 <xTaskResumeAll+0xd0>)
 800543a:	6823      	ldr	r3, [r4, #0]
 800543c:	b943      	cbnz	r3, 8005450 <xTaskResumeAll+0x1c>
 800543e:	f04f 0350 	mov.w	r3, #80	; 0x50
 8005442:	f383 8811 	msr	BASEPRI, r3
 8005446:	f3bf 8f6f 	isb	sy
 800544a:	f3bf 8f4f 	dsb	sy
 800544e:	e7fe      	b.n	800544e <xTaskResumeAll+0x1a>
 8005450:	f000 f930 	bl	80056b4 <vPortEnterCritical>
 8005454:	6823      	ldr	r3, [r4, #0]
 8005456:	3b01      	subs	r3, #1
 8005458:	6023      	str	r3, [r4, #0]
 800545a:	6824      	ldr	r4, [r4, #0]
 800545c:	b134      	cbz	r4, 800546c <xTaskResumeAll+0x38>
 800545e:	2400      	movs	r4, #0
 8005460:	f000 f948 	bl	80056f4 <vPortExitCritical>
 8005464:	4620      	mov	r0, r4
 8005466:	b002      	add	sp, #8
 8005468:	e8bd 81f0 	ldmia.w	sp!, {r4, r5, r6, r7, r8, pc}
 800546c:	4b26      	ldr	r3, [pc, #152]	; (8005508 <xTaskResumeAll+0xd4>)
 800546e:	681b      	ldr	r3, [r3, #0]
 8005470:	2b00      	cmp	r3, #0
 8005472:	d0f4      	beq.n	800545e <xTaskResumeAll+0x2a>
 8005474:	4d25      	ldr	r5, [pc, #148]	; (800550c <xTaskResumeAll+0xd8>)
 8005476:	4e26      	ldr	r6, [pc, #152]	; (8005510 <xTaskResumeAll+0xdc>)
 8005478:	f8df 80a4 	ldr.w	r8, [pc, #164]	; 8005520 <xTaskResumeAll+0xec>
 800547c:	e01f      	b.n	80054be <xTaskResumeAll+0x8a>
 800547e:	68eb      	ldr	r3, [r5, #12]
 8005480:	68dc      	ldr	r4, [r3, #12]
 8005482:	f104 0018 	add.w	r0, r4, #24
 8005486:	f7ff fd22 	bl	8004ece <uxListRemove>
 800548a:	1d21      	adds	r1, r4, #4
 800548c:	4608      	mov	r0, r1
 800548e:	9101      	str	r1, [sp, #4]
 8005490:	f7ff fd1d 	bl	8004ece <uxListRemove>
 8005494:	6ae2      	ldr	r2, [r4, #44]	; 0x2c
 8005496:	6830      	ldr	r0, [r6, #0]
 8005498:	9901      	ldr	r1, [sp, #4]
 800549a:	2701      	movs	r7, #1
 800549c:	fa07 f302 	lsl.w	r3, r7, r2
 80054a0:	4303      	orrs	r3, r0
 80054a2:	2014      	movs	r0, #20
 80054a4:	fb00 8002 	mla	r0, r0, r2, r8
 80054a8:	6033      	str	r3, [r6, #0]
 80054aa:	f7ff fced 	bl	8004e88 <vListInsertEnd>
 80054ae:	4b19      	ldr	r3, [pc, #100]	; (8005514 <xTaskResumeAll+0xe0>)
 80054b0:	6ae2      	ldr	r2, [r4, #44]	; 0x2c
 80054b2:	681b      	ldr	r3, [r3, #0]
 80054b4:	6adb      	ldr	r3, [r3, #44]	; 0x2c
 80054b6:	429a      	cmp	r2, r3
 80054b8:	d301      	bcc.n	80054be <xTaskResumeAll+0x8a>
 80054ba:	4b17      	ldr	r3, [pc, #92]	; (8005518 <xTaskResumeAll+0xe4>)
 80054bc:	601f      	str	r7, [r3, #0]
 80054be:	682b      	ldr	r3, [r5, #0]
 80054c0:	2b00      	cmp	r3, #0
 80054c2:	d1dc      	bne.n	800547e <xTaskResumeAll+0x4a>
 80054c4:	b10c      	cbz	r4, 80054ca <xTaskResumeAll+0x96>
 80054c6:	f7ff fdd5 	bl	8005074 <prvResetNextTaskUnblockTime>
 80054ca:	4d14      	ldr	r5, [pc, #80]	; (800551c <xTaskResumeAll+0xe8>)
 80054cc:	682c      	ldr	r4, [r5, #0]
 80054ce:	b144      	cbz	r4, 80054e2 <xTaskResumeAll+0xae>
 80054d0:	4e11      	ldr	r6, [pc, #68]	; (8005518 <xTaskResumeAll+0xe4>)
 80054d2:	2701      	movs	r7, #1
 80054d4:	f7ff ff16 	bl	8005304 <xTaskIncrementTick>
 80054d8:	b100      	cbz	r0, 80054dc <xTaskResumeAll+0xa8>
 80054da:	6037      	str	r7, [r6, #0]
 80054dc:	3c01      	subs	r4, #1
 80054de:	d1f9      	bne.n	80054d4 <xTaskResumeAll+0xa0>
 80054e0:	602c      	str	r4, [r5, #0]
 80054e2:	4b0d      	ldr	r3, [pc, #52]	; (8005518 <xTaskResumeAll+0xe4>)
 80054e4:	681b      	ldr	r3, [r3, #0]
 80054e6:	2b00      	cmp	r3, #0
 80054e8:	d0b9      	beq.n	800545e <xTaskResumeAll+0x2a>
 80054ea:	f04f 23e0 	mov.w	r3, #3758153728	; 0xe000e000
 80054ee:	f04f 5280 	mov.w	r2, #268435456	; 0x10000000
 80054f2:	f8c3 2d04 	str.w	r2, [r3, #3332]	; 0xd04
 80054f6:	f3bf 8f4f 	dsb	sy
 80054fa:	f3bf 8f6f 	isb	sy
 80054fe:	2401      	movs	r4, #1
 8005500:	e7ae      	b.n	8005460 <xTaskResumeAll+0x2c>
 8005502:	bf00      	nop
 8005504:	2000097c 	.word	0x2000097c
 8005508:	20000974 	.word	0x20000974
 800550c:	200009bc 	.word	0x200009bc
 8005510:	20000984 	.word	0x20000984
 8005514:	200008dc 	.word	0x200008dc
 8005518:	20000a00 	.word	0x20000a00
 800551c:	200009b8 	.word	0x200009b8
 8005520:	200008e8 	.word	0x200008e8

08005524 <vTaskDelay>:
 8005524:	b508      	push	{r3, lr}
 8005526:	b950      	cbnz	r0, 800553e <vTaskDelay+0x1a>
 8005528:	f04f 23e0 	mov.w	r3, #3758153728	; 0xe000e000
 800552c:	f04f 5280 	mov.w	r2, #268435456	; 0x10000000
 8005530:	f8c3 2d04 	str.w	r2, [r3, #3332]	; 0xd04
 8005534:	f3bf 8f4f 	dsb	sy
 8005538:	f3bf 8f6f 	isb	sy
 800553c:	bd08      	pop	{r3, pc}
 800553e:	4b0a      	ldr	r3, [pc, #40]	; (8005568 <vTaskDelay+0x44>)
 8005540:	6819      	ldr	r1, [r3, #0]
 8005542:	b141      	cbz	r1, 8005556 <vTaskDelay+0x32>
 8005544:	f04f 0350 	mov.w	r3, #80	; 0x50
 8005548:	f383 8811 	msr	BASEPRI, r3
 800554c:	f3bf 8f6f 	isb	sy
 8005550:	f3bf 8f4f 	dsb	sy
 8005554:	e7fe      	b.n	8005554 <vTaskDelay+0x30>
 8005556:	f7ff fecd 	bl	80052f4 <vTaskSuspendAll>
 800555a:	f7ff fd47 	bl	8004fec <prvAddCurrentTaskToDelayedList>
 800555e:	f7ff ff69 	bl	8005434 <xTaskResumeAll>
 8005562:	2800      	cmp	r0, #0
 8005564:	d0e0      	beq.n	8005528 <vTaskDelay+0x4>
 8005566:	e7e9      	b.n	800553c <vTaskDelay+0x18>
 8005568:	2000097c 	.word	0x2000097c

0800556c <vTaskSwitchContext>:
 800556c:	4b17      	ldr	r3, [pc, #92]	; (80055cc <vTaskSwitchContext+0x60>)
 800556e:	681a      	ldr	r2, [r3, #0]
 8005570:	4b17      	ldr	r3, [pc, #92]	; (80055d0 <vTaskSwitchContext+0x64>)
 8005572:	b510      	push	{r4, lr}
 8005574:	b112      	cbz	r2, 800557c <vTaskSwitchContext+0x10>
 8005576:	2201      	movs	r2, #1
 8005578:	601a      	str	r2, [r3, #0]
 800557a:	bd10      	pop	{r4, pc}
 800557c:	601a      	str	r2, [r3, #0]
 800557e:	4b15      	ldr	r3, [pc, #84]	; (80055d4 <vTaskSwitchContext+0x68>)
 8005580:	681a      	ldr	r2, [r3, #0]
 8005582:	fab2 f282 	clz	r2, r2
 8005586:	b2d2      	uxtb	r2, r2
 8005588:	f1c2 021f 	rsb	r2, r2, #31
 800558c:	2314      	movs	r3, #20
 800558e:	4912      	ldr	r1, [pc, #72]	; (80055d8 <vTaskSwitchContext+0x6c>)
 8005590:	4353      	muls	r3, r2
 8005592:	18c8      	adds	r0, r1, r3
 8005594:	58cc      	ldr	r4, [r1, r3]
 8005596:	b944      	cbnz	r4, 80055aa <vTaskSwitchContext+0x3e>
 8005598:	f04f 0350 	mov.w	r3, #80	; 0x50
 800559c:	f383 8811 	msr	BASEPRI, r3
 80055a0:	f3bf 8f6f 	isb	sy
 80055a4:	f3bf 8f4f 	dsb	sy
 80055a8:	e7fe      	b.n	80055a8 <vTaskSwitchContext+0x3c>
 80055aa:	6844      	ldr	r4, [r0, #4]
 80055ac:	3308      	adds	r3, #8
 80055ae:	6864      	ldr	r4, [r4, #4]
 80055b0:	6044      	str	r4, [r0, #4]
 80055b2:	440b      	add	r3, r1
 80055b4:	429c      	cmp	r4, r3
 80055b6:	bf04      	itt	eq
 80055b8:	6863      	ldreq	r3, [r4, #4]
 80055ba:	6043      	streq	r3, [r0, #4]
 80055bc:	2314      	movs	r3, #20
 80055be:	fb03 1102 	mla	r1, r3, r2, r1
 80055c2:	684b      	ldr	r3, [r1, #4]
 80055c4:	68da      	ldr	r2, [r3, #12]
 80055c6:	4b05      	ldr	r3, [pc, #20]	; (80055dc <vTaskSwitchContext+0x70>)
 80055c8:	e7d6      	b.n	8005578 <vTaskSwitchContext+0xc>
 80055ca:	bf00      	nop
 80055cc:	2000097c 	.word	0x2000097c
 80055d0:	20000a00 	.word	0x20000a00
 80055d4:	20000984 	.word	0x20000984
 80055d8:	200008e8 	.word	0x200008e8
 80055dc:	200008dc 	.word	0x200008dc

080055e0 <prvPortStartFirstTask>:
 80055e0:	4808      	ldr	r0, [pc, #32]	; (8005604 <prvPortStartFirstTask+0x24>)
 80055e2:	6800      	ldr	r0, [r0, #0]
 80055e4:	6800      	ldr	r0, [r0, #0]
 80055e6:	f380 8808 	msr	MSP, r0
 80055ea:	f04f 0000 	mov.w	r0, #0
 80055ee:	f380 8814 	msr	CONTROL, r0
 80055f2:	b662      	cpsie	i
 80055f4:	b661      	cpsie	f
 80055f6:	f3bf 8f4f 	dsb	sy
 80055fa:	f3bf 8f6f 	isb	sy
 80055fe:	df00      	svc	0
 8005600:	bf00      	nop
 8005602:	0000      	.short	0x0000
 8005604:	e000ed08 	.word	0xe000ed08

08005608 <vPortEnableVFP>:
 8005608:	f8df 000c 	ldr.w	r0, [pc, #12]	; 8005618 <vPortEnableVFP+0x10>
 800560c:	6801      	ldr	r1, [r0, #0]
 800560e:	f441 0170 	orr.w	r1, r1, #15728640	; 0xf00000
 8005612:	6001      	str	r1, [r0, #0]
 8005614:	4770      	bx	lr
 8005616:	0000      	.short	0x0000
 8005618:	e000ed88 	.word	0xe000ed88

0800561c <prvTaskExitError>:
 800561c:	b082      	sub	sp, #8
 800561e:	2300      	movs	r3, #0
 8005620:	9301      	str	r3, [sp, #4]
 8005622:	4b0d      	ldr	r3, [pc, #52]	; (8005658 <prvTaskExitError+0x3c>)
 8005624:	681b      	ldr	r3, [r3, #0]
 8005626:	3301      	adds	r3, #1
 8005628:	d008      	beq.n	800563c <prvTaskExitError+0x20>
 800562a:	f04f 0350 	mov.w	r3, #80	; 0x50
 800562e:	f383 8811 	msr	BASEPRI, r3
 8005632:	f3bf 8f6f 	isb	sy
 8005636:	f3bf 8f4f 	dsb	sy
 800563a:	e7fe      	b.n	800563a <prvTaskExitError+0x1e>
 800563c:	f04f 0350 	mov.w	r3, #80	; 0x50
 8005640:	f383 8811 	msr	BASEPRI, r3
 8005644:	f3bf 8f6f 	isb	sy
 8005648:	f3bf 8f4f 	dsb	sy
 800564c:	9b01      	ldr	r3, [sp, #4]
 800564e:	2b00      	cmp	r3, #0
 8005650:	d0fc      	beq.n	800564c <prvTaskExitError+0x30>
 8005652:	b002      	add	sp, #8
 8005654:	4770      	bx	lr
 8005656:	bf00      	nop
 8005658:	200000a4 	.word	0x200000a4

0800565c <pxPortInitialiseStack>:
 800565c:	f04f 7380 	mov.w	r3, #16777216	; 0x1000000
 8005660:	f840 3c04 	str.w	r3, [r0, #-4]
 8005664:	4b07      	ldr	r3, [pc, #28]	; (8005684 <pxPortInitialiseStack+0x28>)
 8005666:	f840 3c0c 	str.w	r3, [r0, #-12]
 800566a:	f021 0101 	bic.w	r1, r1, #1
 800566e:	f06f 0302 	mvn.w	r3, #2
 8005672:	f840 1c08 	str.w	r1, [r0, #-8]
 8005676:	f840 2c20 	str.w	r2, [r0, #-32]
 800567a:	f840 3c24 	str.w	r3, [r0, #-36]
 800567e:	3844      	subs	r0, #68	; 0x44
 8005680:	4770      	bx	lr
 8005682:	bf00      	nop
 8005684:	0800561d 	.word	0x0800561d
	...

08005690 <SVC_Handler>:
 8005690:	4b07      	ldr	r3, [pc, #28]	; (80056b0 <pxCurrentTCBConst2>)
 8005692:	6819      	ldr	r1, [r3, #0]
 8005694:	6808      	ldr	r0, [r1, #0]
 8005696:	e8b0 4ff0 	ldmia.w	r0!, {r4, r5, r6, r7, r8, r9, sl, fp, lr}
 800569a:	f380 8809 	msr	PSP, r0
 800569e:	f3bf 8f6f 	isb	sy
 80056a2:	f04f 0000 	mov.w	r0, #0
 80056a6:	f380 8811 	msr	BASEPRI, r0
 80056aa:	4770      	bx	lr
 80056ac:	f3af 8000 	nop.w

080056b0 <pxCurrentTCBConst2>:
 80056b0:	200008dc 	.word	0x200008dc

080056b4 <vPortEnterCritical>:
 80056b4:	f04f 0350 	mov.w	r3, #80	; 0x50
 80056b8:	f383 8811 	msr	BASEPRI, r3
 80056bc:	f3bf 8f6f 	isb	sy
 80056c0:	f3bf 8f4f 	dsb	sy
 80056c4:	4a0a      	ldr	r2, [pc, #40]	; (80056f0 <vPortEnterCritical+0x3c>)
 80056c6:	6813      	ldr	r3, [r2, #0]
 80056c8:	3301      	adds	r3, #1
 80056ca:	2b01      	cmp	r3, #1
 80056cc:	6013      	str	r3, [r2, #0]
 80056ce:	d10e      	bne.n	80056ee <vPortEnterCritical+0x3a>
 80056d0:	f04f 23e0 	mov.w	r3, #3758153728	; 0xe000e000
 80056d4:	f8d3 3d04 	ldr.w	r3, [r3, #3332]	; 0xd04
 80056d8:	b2db      	uxtb	r3, r3
 80056da:	b143      	cbz	r3, 80056ee <vPortEnterCritical+0x3a>
 80056dc:	f04f 0350 	mov.w	r3, #80	; 0x50
 80056e0:	f383 8811 	msr	BASEPRI, r3
 80056e4:	f3bf 8f6f 	isb	sy
 80056e8:	f3bf 8f4f 	dsb	sy
 80056ec:	e7fe      	b.n	80056ec <vPortEnterCritical+0x38>
 80056ee:	4770      	bx	lr
 80056f0:	200000a4 	.word	0x200000a4

080056f4 <vPortExitCritical>:
 80056f4:	4a08      	ldr	r2, [pc, #32]	; (8005718 <vPortExitCritical+0x24>)
 80056f6:	6813      	ldr	r3, [r2, #0]
 80056f8:	b943      	cbnz	r3, 800570c <vPortExitCritical+0x18>
 80056fa:	f04f 0350 	mov.w	r3, #80	; 0x50
 80056fe:	f383 8811 	msr	BASEPRI, r3
 8005702:	f3bf 8f6f 	isb	sy
 8005706:	f3bf 8f4f 	dsb	sy
 800570a:	e7fe      	b.n	800570a <vPortExitCritical+0x16>
 800570c:	3b01      	subs	r3, #1
 800570e:	6013      	str	r3, [r2, #0]
 8005710:	b90b      	cbnz	r3, 8005716 <vPortExitCritical+0x22>
 8005712:	f383 8811 	msr	BASEPRI, r3
 8005716:	4770      	bx	lr
 8005718:	200000a4 	.word	0x200000a4
 800571c:	00000000 	.word	0x00000000

08005720 <PendSV_Handler>:
 8005720:	f3ef 8009 	mrs	r0, PSP
 8005724:	f3bf 8f6f 	isb	sy
 8005728:	4b15      	ldr	r3, [pc, #84]	; (8005780 <pxCurrentTCBConst>)
 800572a:	681a      	ldr	r2, [r3, #0]
 800572c:	f01e 0f10 	tst.w	lr, #16
 8005730:	bf08      	it	eq
 8005732:	ed20 8a10 	vstmdbeq	r0!, {s16-s31}
 8005736:	e920 4ff0 	stmdb	r0!, {r4, r5, r6, r7, r8, r9, sl, fp, lr}
 800573a:	6010      	str	r0, [r2, #0]
 800573c:	e92d 0009 	stmdb	sp!, {r0, r3}
 8005740:	f04f 0050 	mov.w	r0, #80	; 0x50
 8005744:	f380 8811 	msr	BASEPRI, r0
 8005748:	f3bf 8f4f 	dsb	sy
 800574c:	f3bf 8f6f 	isb	sy
 8005750:	f7ff ff0c 	bl	800556c <vTaskSwitchContext>
 8005754:	f04f 0000 	mov.w	r0, #0
 8005758:	f380 8811 	msr	BASEPRI, r0
 800575c:	bc09      	pop	{r0, r3}
 800575e:	6819      	ldr	r1, [r3, #0]
 8005760:	6808      	ldr	r0, [r1, #0]
 8005762:	e8b0 4ff0 	ldmia.w	r0!, {r4, r5, r6, r7, r8, r9, sl, fp, lr}
 8005766:	f01e 0f10 	tst.w	lr, #16
 800576a:	bf08      	it	eq
 800576c:	ecb0 8a10 	vldmiaeq	r0!, {s16-s31}
 8005770:	f380 8809 	msr	PSP, r0
 8005774:	f3bf 8f6f 	isb	sy
 8005778:	4770      	bx	lr
 800577a:	bf00      	nop
 800577c:	f3af 8000 	nop.w

08005780 <pxCurrentTCBConst>:
 8005780:	200008dc 	.word	0x200008dc

08005784 <SysTick_Handler>:
 8005784:	b508      	push	{r3, lr}
 8005786:	f04f 0350 	mov.w	r3, #80	; 0x50
 800578a:	f383 8811 	msr	BASEPRI, r3
 800578e:	f3bf 8f6f 	isb	sy
 8005792:	f3bf 8f4f 	dsb	sy
 8005796:	f7ff fdb5 	bl	8005304 <xTaskIncrementTick>
 800579a:	b128      	cbz	r0, 80057a8 <SysTick_Handler+0x24>
 800579c:	f04f 23e0 	mov.w	r3, #3758153728	; 0xe000e000
 80057a0:	f04f 5280 	mov.w	r2, #268435456	; 0x10000000
 80057a4:	f8c3 2d04 	str.w	r2, [r3, #3332]	; 0xd04
 80057a8:	2300      	movs	r3, #0
 80057aa:	f383 8811 	msr	BASEPRI, r3
 80057ae:	bd08      	pop	{r3, pc}

080057b0 <vPortSetupTimerInterrupt>:
 80057b0:	f04f 22e0 	mov.w	r2, #3758153728	; 0xe000e000
 80057b4:	2300      	movs	r3, #0
 80057b6:	6113      	str	r3, [r2, #16]
 80057b8:	6193      	str	r3, [r2, #24]
 80057ba:	4b05      	ldr	r3, [pc, #20]	; (80057d0 <vPortSetupTimerInterrupt+0x20>)
 80057bc:	f44f 717a 	mov.w	r1, #1000	; 0x3e8
 80057c0:	681b      	ldr	r3, [r3, #0]
 80057c2:	fbb3 f3f1 	udiv	r3, r3, r1
 80057c6:	3b01      	subs	r3, #1
 80057c8:	6153      	str	r3, [r2, #20]
 80057ca:	2307      	movs	r3, #7
 80057cc:	6113      	str	r3, [r2, #16]
 80057ce:	4770      	bx	lr
 80057d0:	20000008 	.word	0x20000008

080057d4 <xPortStartScheduler>:
 80057d4:	f04f 23e0 	mov.w	r3, #3758153728	; 0xe000e000
 80057d8:	b537      	push	{r0, r1, r2, r4, r5, lr}
 80057da:	f8d3 1d00 	ldr.w	r1, [r3, #3328]	; 0xd00
 80057de:	4a3a      	ldr	r2, [pc, #232]	; (80058c8 <xPortStartScheduler+0xf4>)
 80057e0:	4291      	cmp	r1, r2
 80057e2:	d108      	bne.n	80057f6 <xPortStartScheduler+0x22>
 80057e4:	f04f 0350 	mov.w	r3, #80	; 0x50
 80057e8:	f383 8811 	msr	BASEPRI, r3
 80057ec:	f3bf 8f6f 	isb	sy
 80057f0:	f3bf 8f4f 	dsb	sy
 80057f4:	e7fe      	b.n	80057f4 <xPortStartScheduler+0x20>
 80057f6:	f8d3 2d00 	ldr.w	r2, [r3, #3328]	; 0xd00
 80057fa:	4b34      	ldr	r3, [pc, #208]	; (80058cc <xPortStartScheduler+0xf8>)
 80057fc:	429a      	cmp	r2, r3
 80057fe:	d108      	bne.n	8005812 <xPortStartScheduler+0x3e>
 8005800:	f04f 0350 	mov.w	r3, #80	; 0x50
 8005804:	f383 8811 	msr	BASEPRI, r3
 8005808:	f3bf 8f6f 	isb	sy
 800580c:	f3bf 8f4f 	dsb	sy
 8005810:	e7fe      	b.n	8005810 <xPortStartScheduler+0x3c>
 8005812:	4b2f      	ldr	r3, [pc, #188]	; (80058d0 <xPortStartScheduler+0xfc>)
 8005814:	781a      	ldrb	r2, [r3, #0]
 8005816:	b2d2      	uxtb	r2, r2
 8005818:	9201      	str	r2, [sp, #4]
 800581a:	22ff      	movs	r2, #255	; 0xff
 800581c:	701a      	strb	r2, [r3, #0]
 800581e:	781b      	ldrb	r3, [r3, #0]
 8005820:	4a2c      	ldr	r2, [pc, #176]	; (80058d4 <xPortStartScheduler+0x100>)
 8005822:	b2db      	uxtb	r3, r3
 8005824:	f88d 3003 	strb.w	r3, [sp, #3]
 8005828:	f89d 3003 	ldrb.w	r3, [sp, #3]
 800582c:	f003 0350 	and.w	r3, r3, #80	; 0x50
 8005830:	7013      	strb	r3, [r2, #0]
 8005832:	4a29      	ldr	r2, [pc, #164]	; (80058d8 <xPortStartScheduler+0x104>)
 8005834:	2307      	movs	r3, #7
 8005836:	6013      	str	r3, [r2, #0]
 8005838:	2100      	movs	r1, #0
 800583a:	f89d 0003 	ldrb.w	r0, [sp, #3]
 800583e:	0600      	lsls	r0, r0, #24
 8005840:	f103 34ff 	add.w	r4, r3, #4294967295
 8005844:	d40c      	bmi.n	8005860 <xPortStartScheduler+0x8c>
 8005846:	b111      	cbz	r1, 800584e <xPortStartScheduler+0x7a>
 8005848:	2b03      	cmp	r3, #3
 800584a:	6013      	str	r3, [r2, #0]
 800584c:	d011      	beq.n	8005872 <xPortStartScheduler+0x9e>
 800584e:	f04f 0350 	mov.w	r3, #80	; 0x50
 8005852:	f383 8811 	msr	BASEPRI, r3
 8005856:	f3bf 8f6f 	isb	sy
 800585a:	f3bf 8f4f 	dsb	sy
 800585e:	e7fe      	b.n	800585e <xPortStartScheduler+0x8a>
 8005860:	f89d 3003 	ldrb.w	r3, [sp, #3]
 8005864:	005b      	lsls	r3, r3, #1
 8005866:	b2db      	uxtb	r3, r3
 8005868:	f88d 3003 	strb.w	r3, [sp, #3]
 800586c:	2101      	movs	r1, #1
 800586e:	4623      	mov	r3, r4
 8005870:	e7e3      	b.n	800583a <xPortStartScheduler+0x66>
 8005872:	f44f 7340 	mov.w	r3, #768	; 0x300
 8005876:	6013      	str	r3, [r2, #0]
 8005878:	9b01      	ldr	r3, [sp, #4]
 800587a:	4a15      	ldr	r2, [pc, #84]	; (80058d0 <xPortStartScheduler+0xfc>)
 800587c:	f04f 24e0 	mov.w	r4, #3758153728	; 0xe000e000
 8005880:	b2db      	uxtb	r3, r3
 8005882:	7013      	strb	r3, [r2, #0]
 8005884:	f8d4 3d20 	ldr.w	r3, [r4, #3360]	; 0xd20
 8005888:	f443 0370 	orr.w	r3, r3, #15728640	; 0xf00000
 800588c:	f8c4 3d20 	str.w	r3, [r4, #3360]	; 0xd20
 8005890:	f8d4 3d20 	ldr.w	r3, [r4, #3360]	; 0xd20
 8005894:	f043 4370 	orr.w	r3, r3, #4026531840	; 0xf0000000
 8005898:	f8c4 3d20 	str.w	r3, [r4, #3360]	; 0xd20
 800589c:	f7ff ff88 	bl	80057b0 <vPortSetupTimerInterrupt>
 80058a0:	4b0e      	ldr	r3, [pc, #56]	; (80058dc <xPortStartScheduler+0x108>)
 80058a2:	2500      	movs	r5, #0
 80058a4:	601d      	str	r5, [r3, #0]
 80058a6:	f7ff feaf 	bl	8005608 <vPortEnableVFP>
 80058aa:	f8d4 3f34 	ldr.w	r3, [r4, #3892]	; 0xf34
 80058ae:	f043 4340 	orr.w	r3, r3, #3221225472	; 0xc0000000
 80058b2:	f8c4 3f34 	str.w	r3, [r4, #3892]	; 0xf34
 80058b6:	f7ff fe93 	bl	80055e0 <prvPortStartFirstTask>
 80058ba:	f7ff fe57 	bl	800556c <vTaskSwitchContext>
 80058be:	f7ff fead 	bl	800561c <prvTaskExitError>
 80058c2:	4628      	mov	r0, r5
 80058c4:	b003      	add	sp, #12
 80058c6:	bd30      	pop	{r4, r5, pc}
 80058c8:	410fc271 	.word	0x410fc271
 80058cc:	410fc270 	.word	0x410fc270
 80058d0:	e000e400 	.word	0xe000e400
 80058d4:	20000a04 	.word	0x20000a04
 80058d8:	20000a08 	.word	0x20000a08
 80058dc:	200000a4 	.word	0x200000a4

080058e0 <prvInsertBlockIntoFreeList>:
 80058e0:	b510      	push	{r4, lr}
 80058e2:	4b10      	ldr	r3, [pc, #64]	; (8005924 <prvInsertBlockIntoFreeList+0x44>)
 80058e4:	461a      	mov	r2, r3
 80058e6:	681b      	ldr	r3, [r3, #0]
 80058e8:	4283      	cmp	r3, r0
 80058ea:	d3fb      	bcc.n	80058e4 <prvInsertBlockIntoFreeList+0x4>
 80058ec:	6854      	ldr	r4, [r2, #4]
 80058ee:	1911      	adds	r1, r2, r4
 80058f0:	4288      	cmp	r0, r1
 80058f2:	bf01      	itttt	eq
 80058f4:	6841      	ldreq	r1, [r0, #4]
 80058f6:	4610      	moveq	r0, r2
 80058f8:	1909      	addeq	r1, r1, r4
 80058fa:	6051      	streq	r1, [r2, #4]
 80058fc:	6844      	ldr	r4, [r0, #4]
 80058fe:	1901      	adds	r1, r0, r4
 8005900:	428b      	cmp	r3, r1
 8005902:	d10c      	bne.n	800591e <prvInsertBlockIntoFreeList+0x3e>
 8005904:	4908      	ldr	r1, [pc, #32]	; (8005928 <prvInsertBlockIntoFreeList+0x48>)
 8005906:	6809      	ldr	r1, [r1, #0]
 8005908:	428b      	cmp	r3, r1
 800590a:	d003      	beq.n	8005914 <prvInsertBlockIntoFreeList+0x34>
 800590c:	6859      	ldr	r1, [r3, #4]
 800590e:	4421      	add	r1, r4
 8005910:	6041      	str	r1, [r0, #4]
 8005912:	6819      	ldr	r1, [r3, #0]
 8005914:	6001      	str	r1, [r0, #0]
 8005916:	4290      	cmp	r0, r2
 8005918:	bf18      	it	ne
 800591a:	6010      	strne	r0, [r2, #0]
 800591c:	bd10      	pop	{r4, pc}
 800591e:	4619      	mov	r1, r3
 8005920:	e7f8      	b.n	8005914 <prvInsertBlockIntoFreeList+0x34>
 8005922:	bf00      	nop
 8005924:	200015dc 	.word	0x200015dc
 8005928:	20000a0c 	.word	0x20000a0c

0800592c <pvPortMalloc>:
 800592c:	e92d 41f0 	stmdb	sp!, {r4, r5, r6, r7, r8, lr}
 8005930:	4604      	mov	r4, r0
 8005932:	f7ff fcdf 	bl	80052f4 <vTaskSuspendAll>
 8005936:	4942      	ldr	r1, [pc, #264]	; (8005a40 <pvPortMalloc+0x114>)
 8005938:	4d42      	ldr	r5, [pc, #264]	; (8005a44 <pvPortMalloc+0x118>)
 800593a:	680b      	ldr	r3, [r1, #0]
 800593c:	bb0b      	cbnz	r3, 8005982 <pvPortMalloc+0x56>
 800593e:	4a42      	ldr	r2, [pc, #264]	; (8005a48 <pvPortMalloc+0x11c>)
 8005940:	0756      	lsls	r6, r2, #29
 8005942:	bf1f      	itttt	ne
 8005944:	1dd0      	addne	r0, r2, #7
 8005946:	f020 0007 	bicne.w	r0, r0, #7
 800594a:	f602 32b8 	addwne	r2, r2, #3000	; 0xbb8
 800594e:	1a13      	subne	r3, r2, r0
 8005950:	bf0c      	ite	eq
 8005952:	f640 33b8 	movweq	r3, #3000	; 0xbb8
 8005956:	4602      	movne	r2, r0
 8005958:	4413      	add	r3, r2
 800595a:	4e3c      	ldr	r6, [pc, #240]	; (8005a4c <pvPortMalloc+0x120>)
 800595c:	3b08      	subs	r3, #8
 800595e:	f023 0307 	bic.w	r3, r3, #7
 8005962:	2000      	movs	r0, #0
 8005964:	6070      	str	r0, [r6, #4]
 8005966:	6032      	str	r2, [r6, #0]
 8005968:	e9c3 0000 	strd	r0, r0, [r3]
 800596c:	1a98      	subs	r0, r3, r2
 800596e:	e9c2 3000 	strd	r3, r0, [r2]
 8005972:	600b      	str	r3, [r1, #0]
 8005974:	4b36      	ldr	r3, [pc, #216]	; (8005a50 <pvPortMalloc+0x124>)
 8005976:	6018      	str	r0, [r3, #0]
 8005978:	4b36      	ldr	r3, [pc, #216]	; (8005a54 <pvPortMalloc+0x128>)
 800597a:	6018      	str	r0, [r3, #0]
 800597c:	f04f 4300 	mov.w	r3, #2147483648	; 0x80000000
 8005980:	602b      	str	r3, [r5, #0]
 8005982:	682e      	ldr	r6, [r5, #0]
 8005984:	4226      	tst	r6, r4
 8005986:	d155      	bne.n	8005a34 <pvPortMalloc+0x108>
 8005988:	2c00      	cmp	r4, #0
 800598a:	d046      	beq.n	8005a1a <pvPortMalloc+0xee>
 800598c:	f104 0308 	add.w	r3, r4, #8
 8005990:	0760      	lsls	r0, r4, #29
 8005992:	bf1c      	itt	ne
 8005994:	f023 0307 	bicne.w	r3, r3, #7
 8005998:	3308      	addne	r3, #8
 800599a:	2b00      	cmp	r3, #0
 800599c:	d04a      	beq.n	8005a34 <pvPortMalloc+0x108>
 800599e:	4f2d      	ldr	r7, [pc, #180]	; (8005a54 <pvPortMalloc+0x128>)
 80059a0:	683c      	ldr	r4, [r7, #0]
 80059a2:	429c      	cmp	r4, r3
 80059a4:	d346      	bcc.n	8005a34 <pvPortMalloc+0x108>
 80059a6:	4a29      	ldr	r2, [pc, #164]	; (8005a4c <pvPortMalloc+0x120>)
 80059a8:	6815      	ldr	r5, [r2, #0]
 80059aa:	6868      	ldr	r0, [r5, #4]
 80059ac:	4298      	cmp	r0, r3
 80059ae:	d204      	bcs.n	80059ba <pvPortMalloc+0x8e>
 80059b0:	f8d5 c000 	ldr.w	ip, [r5]
 80059b4:	f1bc 0f00 	cmp.w	ip, #0
 80059b8:	d115      	bne.n	80059e6 <pvPortMalloc+0xba>
 80059ba:	6809      	ldr	r1, [r1, #0]
 80059bc:	42a9      	cmp	r1, r5
 80059be:	d039      	beq.n	8005a34 <pvPortMalloc+0x108>
 80059c0:	6829      	ldr	r1, [r5, #0]
 80059c2:	f8d2 8000 	ldr.w	r8, [r2]
 80059c6:	6011      	str	r1, [r2, #0]
 80059c8:	1ac2      	subs	r2, r0, r3
 80059ca:	2a10      	cmp	r2, #16
 80059cc:	d912      	bls.n	80059f4 <pvPortMalloc+0xc8>
 80059ce:	18e8      	adds	r0, r5, r3
 80059d0:	0741      	lsls	r1, r0, #29
 80059d2:	d00b      	beq.n	80059ec <pvPortMalloc+0xc0>
 80059d4:	f04f 0350 	mov.w	r3, #80	; 0x50
 80059d8:	f383 8811 	msr	BASEPRI, r3
 80059dc:	f3bf 8f6f 	isb	sy
 80059e0:	f3bf 8f4f 	dsb	sy
 80059e4:	e7fe      	b.n	80059e4 <pvPortMalloc+0xb8>
 80059e6:	462a      	mov	r2, r5
 80059e8:	4665      	mov	r5, ip
 80059ea:	e7de      	b.n	80059aa <pvPortMalloc+0x7e>
 80059ec:	6042      	str	r2, [r0, #4]
 80059ee:	606b      	str	r3, [r5, #4]
 80059f0:	f7ff ff76 	bl	80058e0 <prvInsertBlockIntoFreeList>
 80059f4:	686a      	ldr	r2, [r5, #4]
 80059f6:	4916      	ldr	r1, [pc, #88]	; (8005a50 <pvPortMalloc+0x124>)
 80059f8:	1aa4      	subs	r4, r4, r2
 80059fa:	4316      	orrs	r6, r2
 80059fc:	4a16      	ldr	r2, [pc, #88]	; (8005a58 <pvPortMalloc+0x12c>)
 80059fe:	6808      	ldr	r0, [r1, #0]
 8005a00:	603c      	str	r4, [r7, #0]
 8005a02:	2300      	movs	r3, #0
 8005a04:	602b      	str	r3, [r5, #0]
 8005a06:	6813      	ldr	r3, [r2, #0]
 8005a08:	606e      	str	r6, [r5, #4]
 8005a0a:	4284      	cmp	r4, r0
 8005a0c:	f103 0301 	add.w	r3, r3, #1
 8005a10:	bf38      	it	cc
 8005a12:	600c      	strcc	r4, [r1, #0]
 8005a14:	6013      	str	r3, [r2, #0]
 8005a16:	f108 0408 	add.w	r4, r8, #8
 8005a1a:	f7ff fd0b 	bl	8005434 <xTaskResumeAll>
 8005a1e:	0763      	lsls	r3, r4, #29
 8005a20:	d00a      	beq.n	8005a38 <pvPortMalloc+0x10c>
 8005a22:	f04f 0350 	mov.w	r3, #80	; 0x50
 8005a26:	f383 8811 	msr	BASEPRI, r3
 8005a2a:	f3bf 8f6f 	isb	sy
 8005a2e:	f3bf 8f4f 	dsb	sy
 8005a32:	e7fe      	b.n	8005a32 <pvPortMalloc+0x106>
 8005a34:	2400      	movs	r4, #0
 8005a36:	e7f0      	b.n	8005a1a <pvPortMalloc+0xee>
 8005a38:	4620      	mov	r0, r4
 8005a3a:	e8bd 81f0 	ldmia.w	sp!, {r4, r5, r6, r7, r8, pc}
 8005a3e:	bf00      	nop
 8005a40:	20000a0c 	.word	0x20000a0c
 8005a44:	200015c8 	.word	0x200015c8
 8005a48:	20000a10 	.word	0x20000a10
 8005a4c:	200015dc 	.word	0x200015dc
 8005a50:	200015d0 	.word	0x200015d0
 8005a54:	200015cc 	.word	0x200015cc
 8005a58:	200015d4 	.word	0x200015d4

08005a5c <vPortFree>:
 8005a5c:	b510      	push	{r4, lr}
 8005a5e:	4604      	mov	r4, r0
 8005a60:	b390      	cbz	r0, 8005ac8 <vPortFree+0x6c>
 8005a62:	4a1a      	ldr	r2, [pc, #104]	; (8005acc <vPortFree+0x70>)
 8005a64:	f850 3c04 	ldr.w	r3, [r0, #-4]
 8005a68:	6812      	ldr	r2, [r2, #0]
 8005a6a:	4213      	tst	r3, r2
 8005a6c:	d108      	bne.n	8005a80 <vPortFree+0x24>
 8005a6e:	f04f 0350 	mov.w	r3, #80	; 0x50
 8005a72:	f383 8811 	msr	BASEPRI, r3
 8005a76:	f3bf 8f6f 	isb	sy
 8005a7a:	f3bf 8f4f 	dsb	sy
 8005a7e:	e7fe      	b.n	8005a7e <vPortFree+0x22>
 8005a80:	f850 1c08 	ldr.w	r1, [r0, #-8]
 8005a84:	b141      	cbz	r1, 8005a98 <vPortFree+0x3c>
 8005a86:	f04f 0350 	mov.w	r3, #80	; 0x50
 8005a8a:	f383 8811 	msr	BASEPRI, r3
 8005a8e:	f3bf 8f6f 	isb	sy
 8005a92:	f3bf 8f4f 	dsb	sy
 8005a96:	e7fe      	b.n	8005a96 <vPortFree+0x3a>
 8005a98:	ea23 0302 	bic.w	r3, r3, r2
 8005a9c:	f840 3c04 	str.w	r3, [r0, #-4]
 8005aa0:	f7ff fc28 	bl	80052f4 <vTaskSuspendAll>
 8005aa4:	4a0a      	ldr	r2, [pc, #40]	; (8005ad0 <vPortFree+0x74>)
 8005aa6:	f854 3c04 	ldr.w	r3, [r4, #-4]
 8005aaa:	6811      	ldr	r1, [r2, #0]
 8005aac:	f1a4 0008 	sub.w	r0, r4, #8
 8005ab0:	440b      	add	r3, r1
 8005ab2:	6013      	str	r3, [r2, #0]
 8005ab4:	f7ff ff14 	bl	80058e0 <prvInsertBlockIntoFreeList>
 8005ab8:	4a06      	ldr	r2, [pc, #24]	; (8005ad4 <vPortFree+0x78>)
 8005aba:	6813      	ldr	r3, [r2, #0]
 8005abc:	e8bd 4010 	ldmia.w	sp!, {r4, lr}
 8005ac0:	3301      	adds	r3, #1
 8005ac2:	6013      	str	r3, [r2, #0]
 8005ac4:	f7ff bcb6 	b.w	8005434 <xTaskResumeAll>
 8005ac8:	bd10      	pop	{r4, pc}
 8005aca:	bf00      	nop
 8005acc:	200015c8 	.word	0x200015c8
 8005ad0:	200015cc 	.word	0x200015cc
 8005ad4:	200015d8 	.word	0x200015d8

08005ad8 <calloc>:
 8005ad8:	4b02      	ldr	r3, [pc, #8]	; (8005ae4 <calloc+0xc>)
 8005ada:	460a      	mov	r2, r1
 8005adc:	4601      	mov	r1, r0
 8005ade:	6818      	ldr	r0, [r3, #0]
 8005ae0:	f000 b802 	b.w	8005ae8 <_calloc_r>
 8005ae4:	20000100 	.word	0x20000100

08005ae8 <_calloc_r>:
 8005ae8:	b537      	push	{r0, r1, r2, r4, r5, lr}
 8005aea:	fba1 2402 	umull	r2, r4, r1, r2
 8005aee:	b94c      	cbnz	r4, 8005b04 <_calloc_r+0x1c>
 8005af0:	4611      	mov	r1, r2
 8005af2:	9201      	str	r2, [sp, #4]
 8005af4:	f000 f82e 	bl	8005b54 <_malloc_r>
 8005af8:	9a01      	ldr	r2, [sp, #4]
 8005afa:	4605      	mov	r5, r0
 8005afc:	b930      	cbnz	r0, 8005b0c <_calloc_r+0x24>
 8005afe:	4628      	mov	r0, r5
 8005b00:	b003      	add	sp, #12
 8005b02:	bd30      	pop	{r4, r5, pc}
 8005b04:	220c      	movs	r2, #12
 8005b06:	6002      	str	r2, [r0, #0]
 8005b08:	2500      	movs	r5, #0
 8005b0a:	e7f8      	b.n	8005afe <_calloc_r+0x16>
 8005b0c:	4621      	mov	r1, r4
 8005b0e:	f000 fe38 	bl	8006782 <memset>
 8005b12:	e7f4      	b.n	8005afe <_calloc_r+0x16>

08005b14 <sbrk_aligned>:
 8005b14:	b570      	push	{r4, r5, r6, lr}
 8005b16:	4e0e      	ldr	r6, [pc, #56]	; (8005b50 <sbrk_aligned+0x3c>)
 8005b18:	460c      	mov	r4, r1
 8005b1a:	6831      	ldr	r1, [r6, #0]
 8005b1c:	4605      	mov	r5, r0
 8005b1e:	b911      	cbnz	r1, 8005b26 <sbrk_aligned+0x12>
 8005b20:	f000 fe70 	bl	8006804 <_sbrk_r>
 8005b24:	6030      	str	r0, [r6, #0]
 8005b26:	4621      	mov	r1, r4
 8005b28:	4628      	mov	r0, r5
 8005b2a:	f000 fe6b 	bl	8006804 <_sbrk_r>
 8005b2e:	1c43      	adds	r3, r0, #1
 8005b30:	d00a      	beq.n	8005b48 <sbrk_aligned+0x34>
 8005b32:	1cc4      	adds	r4, r0, #3
 8005b34:	f024 0403 	bic.w	r4, r4, #3
 8005b38:	42a0      	cmp	r0, r4
 8005b3a:	d007      	beq.n	8005b4c <sbrk_aligned+0x38>
 8005b3c:	1a21      	subs	r1, r4, r0
 8005b3e:	4628      	mov	r0, r5
 8005b40:	f000 fe60 	bl	8006804 <_sbrk_r>
 8005b44:	3001      	adds	r0, #1
 8005b46:	d101      	bne.n	8005b4c <sbrk_aligned+0x38>
 8005b48:	f04f 34ff 	mov.w	r4, #4294967295
 8005b4c:	4620      	mov	r0, r4
 8005b4e:	bd70      	pop	{r4, r5, r6, pc}
 8005b50:	200015e8 	.word	0x200015e8

08005b54 <_malloc_r>:
 8005b54:	e92d 43f8 	stmdb	sp!, {r3, r4, r5, r6, r7, r8, r9, lr}
 8005b58:	1ccd      	adds	r5, r1, #3
 8005b5a:	f025 0503 	bic.w	r5, r5, #3
 8005b5e:	3508      	adds	r5, #8
 8005b60:	2d0c      	cmp	r5, #12
 8005b62:	bf38      	it	cc
 8005b64:	250c      	movcc	r5, #12
 8005b66:	2d00      	cmp	r5, #0
 8005b68:	4607      	mov	r7, r0
 8005b6a:	db01      	blt.n	8005b70 <_malloc_r+0x1c>
 8005b6c:	42a9      	cmp	r1, r5
 8005b6e:	d905      	bls.n	8005b7c <_malloc_r+0x28>
 8005b70:	230c      	movs	r3, #12
 8005b72:	603b      	str	r3, [r7, #0]
 8005b74:	2600      	movs	r6, #0
 8005b76:	4630      	mov	r0, r6
 8005b78:	e8bd 83f8 	ldmia.w	sp!, {r3, r4, r5, r6, r7, r8, r9, pc}
 8005b7c:	f8df 80d0 	ldr.w	r8, [pc, #208]	; 8005c50 <_malloc_r+0xfc>
 8005b80:	f000 f868 	bl	8005c54 <__malloc_lock>
 8005b84:	f8d8 3000 	ldr.w	r3, [r8]
 8005b88:	461c      	mov	r4, r3
 8005b8a:	bb5c      	cbnz	r4, 8005be4 <_malloc_r+0x90>
 8005b8c:	4629      	mov	r1, r5
 8005b8e:	4638      	mov	r0, r7
 8005b90:	f7ff ffc0 	bl	8005b14 <sbrk_aligned>
 8005b94:	1c43      	adds	r3, r0, #1
 8005b96:	4604      	mov	r4, r0
 8005b98:	d155      	bne.n	8005c46 <_malloc_r+0xf2>
 8005b9a:	f8d8 4000 	ldr.w	r4, [r8]
 8005b9e:	4626      	mov	r6, r4
 8005ba0:	2e00      	cmp	r6, #0
 8005ba2:	d145      	bne.n	8005c30 <_malloc_r+0xdc>
 8005ba4:	2c00      	cmp	r4, #0
 8005ba6:	d048      	beq.n	8005c3a <_malloc_r+0xe6>
 8005ba8:	6823      	ldr	r3, [r4, #0]
 8005baa:	4631      	mov	r1, r6
 8005bac:	4638      	mov	r0, r7
 8005bae:	eb04 0903 	add.w	r9, r4, r3
 8005bb2:	f000 fe27 	bl	8006804 <_sbrk_r>
 8005bb6:	4581      	cmp	r9, r0
 8005bb8:	d13f      	bne.n	8005c3a <_malloc_r+0xe6>
 8005bba:	6821      	ldr	r1, [r4, #0]
 8005bbc:	1a6d      	subs	r5, r5, r1
 8005bbe:	4629      	mov	r1, r5
 8005bc0:	4638      	mov	r0, r7
 8005bc2:	f7ff ffa7 	bl	8005b14 <sbrk_aligned>
 8005bc6:	3001      	adds	r0, #1
 8005bc8:	d037      	beq.n	8005c3a <_malloc_r+0xe6>
 8005bca:	6823      	ldr	r3, [r4, #0]
 8005bcc:	442b      	add	r3, r5
 8005bce:	6023      	str	r3, [r4, #0]
 8005bd0:	f8d8 3000 	ldr.w	r3, [r8]
 8005bd4:	2b00      	cmp	r3, #0
 8005bd6:	d038      	beq.n	8005c4a <_malloc_r+0xf6>
 8005bd8:	685a      	ldr	r2, [r3, #4]
 8005bda:	42a2      	cmp	r2, r4
 8005bdc:	d12b      	bne.n	8005c36 <_malloc_r+0xe2>
 8005bde:	2200      	movs	r2, #0
 8005be0:	605a      	str	r2, [r3, #4]
 8005be2:	e00f      	b.n	8005c04 <_malloc_r+0xb0>
 8005be4:	6822      	ldr	r2, [r4, #0]
 8005be6:	1b52      	subs	r2, r2, r5
 8005be8:	d41f      	bmi.n	8005c2a <_malloc_r+0xd6>
 8005bea:	2a0b      	cmp	r2, #11
 8005bec:	d917      	bls.n	8005c1e <_malloc_r+0xca>
 8005bee:	1961      	adds	r1, r4, r5
 8005bf0:	42a3      	cmp	r3, r4
 8005bf2:	6025      	str	r5, [r4, #0]
 8005bf4:	bf18      	it	ne
 8005bf6:	6059      	strne	r1, [r3, #4]
 8005bf8:	6863      	ldr	r3, [r4, #4]
 8005bfa:	bf08      	it	eq
 8005bfc:	f8c8 1000 	streq.w	r1, [r8]
 8005c00:	5162      	str	r2, [r4, r5]
 8005c02:	604b      	str	r3, [r1, #4]
 8005c04:	4638      	mov	r0, r7
 8005c06:	f104 060b 	add.w	r6, r4, #11
 8005c0a:	f000 f829 	bl	8005c60 <__malloc_unlock>
 8005c0e:	f026 0607 	bic.w	r6, r6, #7
 8005c12:	1d23      	adds	r3, r4, #4
 8005c14:	1af2      	subs	r2, r6, r3
 8005c16:	d0ae      	beq.n	8005b76 <_malloc_r+0x22>
 8005c18:	1b9b      	subs	r3, r3, r6
 8005c1a:	50a3      	str	r3, [r4, r2]
 8005c1c:	e7ab      	b.n	8005b76 <_malloc_r+0x22>
 8005c1e:	42a3      	cmp	r3, r4
 8005c20:	6862      	ldr	r2, [r4, #4]
 8005c22:	d1dd      	bne.n	8005be0 <_malloc_r+0x8c>
 8005c24:	f8c8 2000 	str.w	r2, [r8]
 8005c28:	e7ec      	b.n	8005c04 <_malloc_r+0xb0>
 8005c2a:	4623      	mov	r3, r4
 8005c2c:	6864      	ldr	r4, [r4, #4]
 8005c2e:	e7ac      	b.n	8005b8a <_malloc_r+0x36>
 8005c30:	4634      	mov	r4, r6
 8005c32:	6876      	ldr	r6, [r6, #4]
 8005c34:	e7b4      	b.n	8005ba0 <_malloc_r+0x4c>
 8005c36:	4613      	mov	r3, r2
 8005c38:	e7cc      	b.n	8005bd4 <_malloc_r+0x80>
 8005c3a:	230c      	movs	r3, #12
 8005c3c:	603b      	str	r3, [r7, #0]
 8005c3e:	4638      	mov	r0, r7
 8005c40:	f000 f80e 	bl	8005c60 <__malloc_unlock>
 8005c44:	e797      	b.n	8005b76 <_malloc_r+0x22>
 8005c46:	6025      	str	r5, [r4, #0]
 8005c48:	e7dc      	b.n	8005c04 <_malloc_r+0xb0>
 8005c4a:	605b      	str	r3, [r3, #4]
 8005c4c:	deff      	udf	#255	; 0xff
 8005c4e:	bf00      	nop
 8005c50:	200015e4 	.word	0x200015e4

08005c54 <__malloc_lock>:
 8005c54:	4801      	ldr	r0, [pc, #4]	; (8005c5c <__malloc_lock+0x8>)
 8005c56:	f000 be22 	b.w	800689e <__retarget_lock_acquire_recursive>
 8005c5a:	bf00      	nop
 8005c5c:	2000172c 	.word	0x2000172c

08005c60 <__malloc_unlock>:
 8005c60:	4801      	ldr	r0, [pc, #4]	; (8005c68 <__malloc_unlock+0x8>)
 8005c62:	f000 be1d 	b.w	80068a0 <__retarget_lock_release_recursive>
 8005c66:	bf00      	nop
 8005c68:	2000172c 	.word	0x2000172c

08005c6c <__cvt>:
 8005c6c:	e92d 47ff 	stmdb	sp!, {r0, r1, r2, r3, r4, r5, r6, r7, r8, r9, sl, lr}
 8005c70:	ec55 4b10 	vmov	r4, r5, d0
 8005c74:	2d00      	cmp	r5, #0
 8005c76:	460e      	mov	r6, r1
 8005c78:	4619      	mov	r1, r3
 8005c7a:	462b      	mov	r3, r5
 8005c7c:	bfbb      	ittet	lt
 8005c7e:	f105 4300 	addlt.w	r3, r5, #2147483648	; 0x80000000
 8005c82:	461d      	movlt	r5, r3
 8005c84:	2300      	movge	r3, #0
 8005c86:	232d      	movlt	r3, #45	; 0x2d
 8005c88:	700b      	strb	r3, [r1, #0]
 8005c8a:	9b0d      	ldr	r3, [sp, #52]	; 0x34
 8005c8c:	f8dd a030 	ldr.w	sl, [sp, #48]	; 0x30
 8005c90:	4691      	mov	r9, r2
 8005c92:	f023 0820 	bic.w	r8, r3, #32
 8005c96:	bfbc      	itt	lt
 8005c98:	4622      	movlt	r2, r4
 8005c9a:	4614      	movlt	r4, r2
 8005c9c:	f1b8 0f46 	cmp.w	r8, #70	; 0x46
 8005ca0:	d005      	beq.n	8005cae <__cvt+0x42>
 8005ca2:	f1b8 0f45 	cmp.w	r8, #69	; 0x45
 8005ca6:	d100      	bne.n	8005caa <__cvt+0x3e>
 8005ca8:	3601      	adds	r6, #1
 8005caa:	2102      	movs	r1, #2
 8005cac:	e000      	b.n	8005cb0 <__cvt+0x44>
 8005cae:	2103      	movs	r1, #3
 8005cb0:	ab03      	add	r3, sp, #12
 8005cb2:	9301      	str	r3, [sp, #4]
 8005cb4:	ab02      	add	r3, sp, #8
 8005cb6:	9300      	str	r3, [sp, #0]
 8005cb8:	ec45 4b10 	vmov	d0, r4, r5
 8005cbc:	4653      	mov	r3, sl
 8005cbe:	4632      	mov	r2, r6
 8005cc0:	f000 fe8e 	bl	80069e0 <_dtoa_r>
 8005cc4:	f1b8 0f47 	cmp.w	r8, #71	; 0x47
 8005cc8:	4607      	mov	r7, r0
 8005cca:	d102      	bne.n	8005cd2 <__cvt+0x66>
 8005ccc:	f019 0f01 	tst.w	r9, #1
 8005cd0:	d022      	beq.n	8005d18 <__cvt+0xac>
 8005cd2:	f1b8 0f46 	cmp.w	r8, #70	; 0x46
 8005cd6:	eb07 0906 	add.w	r9, r7, r6
 8005cda:	d110      	bne.n	8005cfe <__cvt+0x92>
 8005cdc:	783b      	ldrb	r3, [r7, #0]
 8005cde:	2b30      	cmp	r3, #48	; 0x30
 8005ce0:	d10a      	bne.n	8005cf8 <__cvt+0x8c>
 8005ce2:	2200      	movs	r2, #0
 8005ce4:	2300      	movs	r3, #0
 8005ce6:	4620      	mov	r0, r4
 8005ce8:	4629      	mov	r1, r5
 8005cea:	f7fa ff05 	bl	8000af8 <__aeabi_dcmpeq>
 8005cee:	b918      	cbnz	r0, 8005cf8 <__cvt+0x8c>
 8005cf0:	f1c6 0601 	rsb	r6, r6, #1
 8005cf4:	f8ca 6000 	str.w	r6, [sl]
 8005cf8:	f8da 3000 	ldr.w	r3, [sl]
 8005cfc:	4499      	add	r9, r3
 8005cfe:	2200      	movs	r2, #0
 8005d00:	2300      	movs	r3, #0
 8005d02:	4620      	mov	r0, r4
 8005d04:	4629      	mov	r1, r5
 8005d06:	f7fa fef7 	bl	8000af8 <__aeabi_dcmpeq>
 8005d0a:	b108      	cbz	r0, 8005d10 <__cvt+0xa4>
 8005d0c:	f8cd 900c 	str.w	r9, [sp, #12]
 8005d10:	2230      	movs	r2, #48	; 0x30
 8005d12:	9b03      	ldr	r3, [sp, #12]
 8005d14:	454b      	cmp	r3, r9
 8005d16:	d307      	bcc.n	8005d28 <__cvt+0xbc>
 8005d18:	9b03      	ldr	r3, [sp, #12]
 8005d1a:	9a0e      	ldr	r2, [sp, #56]	; 0x38
 8005d1c:	1bdb      	subs	r3, r3, r7
 8005d1e:	4638      	mov	r0, r7
 8005d20:	6013      	str	r3, [r2, #0]
 8005d22:	b004      	add	sp, #16
 8005d24:	e8bd 87f0 	ldmia.w	sp!, {r4, r5, r6, r7, r8, r9, sl, pc}
 8005d28:	1c59      	adds	r1, r3, #1
 8005d2a:	9103      	str	r1, [sp, #12]
 8005d2c:	701a      	strb	r2, [r3, #0]
 8005d2e:	e7f0      	b.n	8005d12 <__cvt+0xa6>

08005d30 <__exponent>:
 8005d30:	b5f7      	push	{r0, r1, r2, r4, r5, r6, r7, lr}
 8005d32:	4603      	mov	r3, r0
 8005d34:	2900      	cmp	r1, #0
 8005d36:	bfb8      	it	lt
 8005d38:	4249      	neglt	r1, r1
 8005d3a:	f803 2b02 	strb.w	r2, [r3], #2
 8005d3e:	bfb4      	ite	lt
 8005d40:	222d      	movlt	r2, #45	; 0x2d
 8005d42:	222b      	movge	r2, #43	; 0x2b
 8005d44:	2909      	cmp	r1, #9
 8005d46:	7042      	strb	r2, [r0, #1]
 8005d48:	dd2a      	ble.n	8005da0 <__exponent+0x70>
 8005d4a:	f10d 0207 	add.w	r2, sp, #7
 8005d4e:	4617      	mov	r7, r2
 8005d50:	260a      	movs	r6, #10
 8005d52:	4694      	mov	ip, r2
 8005d54:	fb91 f5f6 	sdiv	r5, r1, r6
 8005d58:	fb06 1415 	mls	r4, r6, r5, r1
 8005d5c:	3430      	adds	r4, #48	; 0x30
 8005d5e:	f80c 4c01 	strb.w	r4, [ip, #-1]
 8005d62:	460c      	mov	r4, r1
 8005d64:	2c63      	cmp	r4, #99	; 0x63
 8005d66:	f102 32ff 	add.w	r2, r2, #4294967295
 8005d6a:	4629      	mov	r1, r5
 8005d6c:	dcf1      	bgt.n	8005d52 <__exponent+0x22>
 8005d6e:	3130      	adds	r1, #48	; 0x30
 8005d70:	f1ac 0402 	sub.w	r4, ip, #2
 8005d74:	f802 1c01 	strb.w	r1, [r2, #-1]
 8005d78:	1c41      	adds	r1, r0, #1
 8005d7a:	4622      	mov	r2, r4
 8005d7c:	42ba      	cmp	r2, r7
 8005d7e:	d30a      	bcc.n	8005d96 <__exponent+0x66>
 8005d80:	f10d 0209 	add.w	r2, sp, #9
 8005d84:	eba2 020c 	sub.w	r2, r2, ip
 8005d88:	42bc      	cmp	r4, r7
 8005d8a:	bf88      	it	hi
 8005d8c:	2200      	movhi	r2, #0
 8005d8e:	4413      	add	r3, r2
 8005d90:	1a18      	subs	r0, r3, r0
 8005d92:	b003      	add	sp, #12
 8005d94:	bdf0      	pop	{r4, r5, r6, r7, pc}
 8005d96:	f812 5b01 	ldrb.w	r5, [r2], #1
 8005d9a:	f801 5f01 	strb.w	r5, [r1, #1]!
 8005d9e:	e7ed      	b.n	8005d7c <__exponent+0x4c>
 8005da0:	2330      	movs	r3, #48	; 0x30
 8005da2:	3130      	adds	r1, #48	; 0x30
 8005da4:	7083      	strb	r3, [r0, #2]
 8005da6:	70c1      	strb	r1, [r0, #3]
 8005da8:	1d03      	adds	r3, r0, #4
 8005daa:	e7f1      	b.n	8005d90 <__exponent+0x60>

08005dac <_printf_float>:
 8005dac:	e92d 4ff0 	stmdb	sp!, {r4, r5, r6, r7, r8, r9, sl, fp, lr}
 8005db0:	ed2d 8b02 	vpush	{d8}
 8005db4:	b08d      	sub	sp, #52	; 0x34
 8005db6:	460c      	mov	r4, r1
 8005db8:	f8dd 8060 	ldr.w	r8, [sp, #96]	; 0x60
 8005dbc:	4616      	mov	r6, r2
 8005dbe:	461f      	mov	r7, r3
 8005dc0:	4605      	mov	r5, r0
 8005dc2:	f000 fce7 	bl	8006794 <_localeconv_r>
 8005dc6:	f8d0 a000 	ldr.w	sl, [r0]
 8005dca:	4650      	mov	r0, sl
 8005dcc:	f7fa fa68 	bl	80002a0 <strlen>
 8005dd0:	2300      	movs	r3, #0
 8005dd2:	930a      	str	r3, [sp, #40]	; 0x28
 8005dd4:	6823      	ldr	r3, [r4, #0]
 8005dd6:	9305      	str	r3, [sp, #20]
 8005dd8:	f8d8 3000 	ldr.w	r3, [r8]
 8005ddc:	f894 b018 	ldrb.w	fp, [r4, #24]
 8005de0:	3307      	adds	r3, #7
 8005de2:	f023 0307 	bic.w	r3, r3, #7
 8005de6:	f103 0208 	add.w	r2, r3, #8
 8005dea:	f8c8 2000 	str.w	r2, [r8]
 8005dee:	e9d3 8900 	ldrd	r8, r9, [r3]
 8005df2:	f029 4300 	bic.w	r3, r9, #2147483648	; 0x80000000
 8005df6:	9307      	str	r3, [sp, #28]
 8005df8:	f8cd 8018 	str.w	r8, [sp, #24]
 8005dfc:	ee08 0a10 	vmov	s16, r0
 8005e00:	e9c4 8912 	strd	r8, r9, [r4, #72]	; 0x48
 8005e04:	e9dd 0106 	ldrd	r0, r1, [sp, #24]
 8005e08:	4b9e      	ldr	r3, [pc, #632]	; (8006084 <_printf_float+0x2d8>)
 8005e0a:	f04f 32ff 	mov.w	r2, #4294967295
 8005e0e:	f7fa fea5 	bl	8000b5c <__aeabi_dcmpun>
 8005e12:	bb88      	cbnz	r0, 8005e78 <_printf_float+0xcc>
 8005e14:	e9dd 0106 	ldrd	r0, r1, [sp, #24]
 8005e18:	4b9a      	ldr	r3, [pc, #616]	; (8006084 <_printf_float+0x2d8>)
 8005e1a:	f04f 32ff 	mov.w	r2, #4294967295
 8005e1e:	f7fa fe7f 	bl	8000b20 <__aeabi_dcmple>
 8005e22:	bb48      	cbnz	r0, 8005e78 <_printf_float+0xcc>
 8005e24:	2200      	movs	r2, #0
 8005e26:	2300      	movs	r3, #0
 8005e28:	4640      	mov	r0, r8
 8005e2a:	4649      	mov	r1, r9
 8005e2c:	f7fa fe6e 	bl	8000b0c <__aeabi_dcmplt>
 8005e30:	b110      	cbz	r0, 8005e38 <_printf_float+0x8c>
 8005e32:	232d      	movs	r3, #45	; 0x2d
 8005e34:	f884 3043 	strb.w	r3, [r4, #67]	; 0x43
 8005e38:	4a93      	ldr	r2, [pc, #588]	; (8006088 <_printf_float+0x2dc>)
 8005e3a:	4b94      	ldr	r3, [pc, #592]	; (800608c <_printf_float+0x2e0>)
 8005e3c:	f1bb 0f47 	cmp.w	fp, #71	; 0x47
 8005e40:	bf94      	ite	ls
 8005e42:	4690      	movls	r8, r2
 8005e44:	4698      	movhi	r8, r3
 8005e46:	2303      	movs	r3, #3
 8005e48:	6123      	str	r3, [r4, #16]
 8005e4a:	9b05      	ldr	r3, [sp, #20]
 8005e4c:	f023 0304 	bic.w	r3, r3, #4
 8005e50:	6023      	str	r3, [r4, #0]
 8005e52:	f04f 0900 	mov.w	r9, #0
 8005e56:	9700      	str	r7, [sp, #0]
 8005e58:	4633      	mov	r3, r6
 8005e5a:	aa0b      	add	r2, sp, #44	; 0x2c
 8005e5c:	4621      	mov	r1, r4
 8005e5e:	4628      	mov	r0, r5
 8005e60:	f000 f9da 	bl	8006218 <_printf_common>
 8005e64:	3001      	adds	r0, #1
 8005e66:	f040 8090 	bne.w	8005f8a <_printf_float+0x1de>
 8005e6a:	f04f 30ff 	mov.w	r0, #4294967295
 8005e6e:	b00d      	add	sp, #52	; 0x34
 8005e70:	ecbd 8b02 	vpop	{d8}
 8005e74:	e8bd 8ff0 	ldmia.w	sp!, {r4, r5, r6, r7, r8, r9, sl, fp, pc}
 8005e78:	4642      	mov	r2, r8
 8005e7a:	464b      	mov	r3, r9
 8005e7c:	4640      	mov	r0, r8
 8005e7e:	4649      	mov	r1, r9
 8005e80:	f7fa fe6c 	bl	8000b5c <__aeabi_dcmpun>
 8005e84:	b140      	cbz	r0, 8005e98 <_printf_float+0xec>
 8005e86:	464b      	mov	r3, r9
 8005e88:	2b00      	cmp	r3, #0
 8005e8a:	bfbc      	itt	lt
 8005e8c:	232d      	movlt	r3, #45	; 0x2d
 8005e8e:	f884 3043 	strblt.w	r3, [r4, #67]	; 0x43
 8005e92:	4a7f      	ldr	r2, [pc, #508]	; (8006090 <_printf_float+0x2e4>)
 8005e94:	4b7f      	ldr	r3, [pc, #508]	; (8006094 <_printf_float+0x2e8>)
 8005e96:	e7d1      	b.n	8005e3c <_printf_float+0x90>
 8005e98:	6863      	ldr	r3, [r4, #4]
 8005e9a:	f00b 02df 	and.w	r2, fp, #223	; 0xdf
 8005e9e:	9206      	str	r2, [sp, #24]
 8005ea0:	1c5a      	adds	r2, r3, #1
 8005ea2:	d13f      	bne.n	8005f24 <_printf_float+0x178>
 8005ea4:	2306      	movs	r3, #6
 8005ea6:	6063      	str	r3, [r4, #4]
 8005ea8:	9b05      	ldr	r3, [sp, #20]
 8005eaa:	6861      	ldr	r1, [r4, #4]
 8005eac:	f443 6280 	orr.w	r2, r3, #1024	; 0x400
 8005eb0:	2300      	movs	r3, #0
 8005eb2:	9303      	str	r3, [sp, #12]
 8005eb4:	ab0a      	add	r3, sp, #40	; 0x28
 8005eb6:	e9cd b301 	strd	fp, r3, [sp, #4]
 8005eba:	ab09      	add	r3, sp, #36	; 0x24
 8005ebc:	ec49 8b10 	vmov	d0, r8, r9
 8005ec0:	9300      	str	r3, [sp, #0]
 8005ec2:	6022      	str	r2, [r4, #0]
 8005ec4:	f10d 0323 	add.w	r3, sp, #35	; 0x23
 8005ec8:	4628      	mov	r0, r5
 8005eca:	f7ff fecf 	bl	8005c6c <__cvt>
 8005ece:	9b06      	ldr	r3, [sp, #24]
 8005ed0:	9909      	ldr	r1, [sp, #36]	; 0x24
 8005ed2:	2b47      	cmp	r3, #71	; 0x47
 8005ed4:	4680      	mov	r8, r0
 8005ed6:	d108      	bne.n	8005eea <_printf_float+0x13e>
 8005ed8:	1cc8      	adds	r0, r1, #3
 8005eda:	db02      	blt.n	8005ee2 <_printf_float+0x136>
 8005edc:	6863      	ldr	r3, [r4, #4]
 8005ede:	4299      	cmp	r1, r3
 8005ee0:	dd41      	ble.n	8005f66 <_printf_float+0x1ba>
 8005ee2:	f1ab 0302 	sub.w	r3, fp, #2
 8005ee6:	fa5f fb83 	uxtb.w	fp, r3
 8005eea:	f1bb 0f65 	cmp.w	fp, #101	; 0x65
 8005eee:	d820      	bhi.n	8005f32 <_printf_float+0x186>
 8005ef0:	3901      	subs	r1, #1
 8005ef2:	465a      	mov	r2, fp
 8005ef4:	f104 0050 	add.w	r0, r4, #80	; 0x50
 8005ef8:	9109      	str	r1, [sp, #36]	; 0x24
 8005efa:	f7ff ff19 	bl	8005d30 <__exponent>
 8005efe:	9a0a      	ldr	r2, [sp, #40]	; 0x28
 8005f00:	1813      	adds	r3, r2, r0
 8005f02:	2a01      	cmp	r2, #1
 8005f04:	4681      	mov	r9, r0
 8005f06:	6123      	str	r3, [r4, #16]
 8005f08:	dc02      	bgt.n	8005f10 <_printf_float+0x164>
 8005f0a:	6822      	ldr	r2, [r4, #0]
 8005f0c:	07d2      	lsls	r2, r2, #31
 8005f0e:	d501      	bpl.n	8005f14 <_printf_float+0x168>
 8005f10:	3301      	adds	r3, #1
 8005f12:	6123      	str	r3, [r4, #16]
 8005f14:	f89d 3023 	ldrb.w	r3, [sp, #35]	; 0x23
 8005f18:	2b00      	cmp	r3, #0
 8005f1a:	d09c      	beq.n	8005e56 <_printf_float+0xaa>
 8005f1c:	232d      	movs	r3, #45	; 0x2d
 8005f1e:	f884 3043 	strb.w	r3, [r4, #67]	; 0x43
 8005f22:	e798      	b.n	8005e56 <_printf_float+0xaa>
 8005f24:	9a06      	ldr	r2, [sp, #24]
 8005f26:	2a47      	cmp	r2, #71	; 0x47
 8005f28:	d1be      	bne.n	8005ea8 <_printf_float+0xfc>
 8005f2a:	2b00      	cmp	r3, #0
 8005f2c:	d1bc      	bne.n	8005ea8 <_printf_float+0xfc>
 8005f2e:	2301      	movs	r3, #1
 8005f30:	e7b9      	b.n	8005ea6 <_printf_float+0xfa>
 8005f32:	f1bb 0f66 	cmp.w	fp, #102	; 0x66
 8005f36:	d118      	bne.n	8005f6a <_printf_float+0x1be>
 8005f38:	2900      	cmp	r1, #0
 8005f3a:	6863      	ldr	r3, [r4, #4]
 8005f3c:	dd0b      	ble.n	8005f56 <_printf_float+0x1aa>
 8005f3e:	6121      	str	r1, [r4, #16]
 8005f40:	b913      	cbnz	r3, 8005f48 <_printf_float+0x19c>
 8005f42:	6822      	ldr	r2, [r4, #0]
 8005f44:	07d0      	lsls	r0, r2, #31
 8005f46:	d502      	bpl.n	8005f4e <_printf_float+0x1a2>
 8005f48:	3301      	adds	r3, #1
 8005f4a:	440b      	add	r3, r1
 8005f4c:	6123      	str	r3, [r4, #16]
 8005f4e:	65a1      	str	r1, [r4, #88]	; 0x58
 8005f50:	f04f 0900 	mov.w	r9, #0
 8005f54:	e7de      	b.n	8005f14 <_printf_float+0x168>
 8005f56:	b913      	cbnz	r3, 8005f5e <_printf_float+0x1b2>
 8005f58:	6822      	ldr	r2, [r4, #0]
 8005f5a:	07d2      	lsls	r2, r2, #31
 8005f5c:	d501      	bpl.n	8005f62 <_printf_float+0x1b6>
 8005f5e:	3302      	adds	r3, #2
 8005f60:	e7f4      	b.n	8005f4c <_printf_float+0x1a0>
 8005f62:	2301      	movs	r3, #1
 8005f64:	e7f2      	b.n	8005f4c <_printf_float+0x1a0>
 8005f66:	f04f 0b67 	mov.w	fp, #103	; 0x67
 8005f6a:	9b0a      	ldr	r3, [sp, #40]	; 0x28
 8005f6c:	4299      	cmp	r1, r3
 8005f6e:	db05      	blt.n	8005f7c <_printf_float+0x1d0>
 8005f70:	6823      	ldr	r3, [r4, #0]
 8005f72:	6121      	str	r1, [r4, #16]
 8005f74:	07d8      	lsls	r0, r3, #31
 8005f76:	d5ea      	bpl.n	8005f4e <_printf_float+0x1a2>
 8005f78:	1c4b      	adds	r3, r1, #1
 8005f7a:	e7e7      	b.n	8005f4c <_printf_float+0x1a0>
 8005f7c:	2900      	cmp	r1, #0
 8005f7e:	bfd4      	ite	le
 8005f80:	f1c1 0202 	rsble	r2, r1, #2
 8005f84:	2201      	movgt	r2, #1
 8005f86:	4413      	add	r3, r2
 8005f88:	e7e0      	b.n	8005f4c <_printf_float+0x1a0>
 8005f8a:	6823      	ldr	r3, [r4, #0]
 8005f8c:	055a      	lsls	r2, r3, #21
 8005f8e:	d407      	bmi.n	8005fa0 <_printf_float+0x1f4>
 8005f90:	6923      	ldr	r3, [r4, #16]
 8005f92:	4642      	mov	r2, r8
 8005f94:	4631      	mov	r1, r6
 8005f96:	4628      	mov	r0, r5
 8005f98:	47b8      	blx	r7
 8005f9a:	3001      	adds	r0, #1
 8005f9c:	d12c      	bne.n	8005ff8 <_printf_float+0x24c>
 8005f9e:	e764      	b.n	8005e6a <_printf_float+0xbe>
 8005fa0:	f1bb 0f65 	cmp.w	fp, #101	; 0x65
 8005fa4:	f240 80e0 	bls.w	8006168 <_printf_float+0x3bc>
 8005fa8:	e9d4 0112 	ldrd	r0, r1, [r4, #72]	; 0x48
 8005fac:	2200      	movs	r2, #0
 8005fae:	2300      	movs	r3, #0
 8005fb0:	f7fa fda2 	bl	8000af8 <__aeabi_dcmpeq>
 8005fb4:	2800      	cmp	r0, #0
 8005fb6:	d034      	beq.n	8006022 <_printf_float+0x276>
 8005fb8:	4a37      	ldr	r2, [pc, #220]	; (8006098 <_printf_float+0x2ec>)
 8005fba:	2301      	movs	r3, #1
 8005fbc:	4631      	mov	r1, r6
 8005fbe:	4628      	mov	r0, r5
 8005fc0:	47b8      	blx	r7
 8005fc2:	3001      	adds	r0, #1
 8005fc4:	f43f af51 	beq.w	8005e6a <_printf_float+0xbe>
 8005fc8:	e9dd 2309 	ldrd	r2, r3, [sp, #36]	; 0x24
 8005fcc:	429a      	cmp	r2, r3
 8005fce:	db02      	blt.n	8005fd6 <_printf_float+0x22a>
 8005fd0:	6823      	ldr	r3, [r4, #0]
 8005fd2:	07d8      	lsls	r0, r3, #31
 8005fd4:	d510      	bpl.n	8005ff8 <_printf_float+0x24c>
 8005fd6:	ee18 3a10 	vmov	r3, s16
 8005fda:	4652      	mov	r2, sl
 8005fdc:	4631      	mov	r1, r6
 8005fde:	4628      	mov	r0, r5
 8005fe0:	47b8      	blx	r7
 8005fe2:	3001      	adds	r0, #1
 8005fe4:	f43f af41 	beq.w	8005e6a <_printf_float+0xbe>
 8005fe8:	f04f 0800 	mov.w	r8, #0
 8005fec:	f104 091a 	add.w	r9, r4, #26
 8005ff0:	9b0a      	ldr	r3, [sp, #40]	; 0x28
 8005ff2:	3b01      	subs	r3, #1
 8005ff4:	4543      	cmp	r3, r8
 8005ff6:	dc09      	bgt.n	800600c <_printf_float+0x260>
 8005ff8:	6823      	ldr	r3, [r4, #0]
 8005ffa:	079b      	lsls	r3, r3, #30
 8005ffc:	f100 8107 	bmi.w	800620e <_printf_float+0x462>
 8006000:	68e0      	ldr	r0, [r4, #12]
 8006002:	9b0b      	ldr	r3, [sp, #44]	; 0x2c
 8006004:	4298      	cmp	r0, r3
 8006006:	bfb8      	it	lt
 8006008:	4618      	movlt	r0, r3
 800600a:	e730      	b.n	8005e6e <_printf_float+0xc2>
 800600c:	2301      	movs	r3, #1
 800600e:	464a      	mov	r2, r9
 8006010:	4631      	mov	r1, r6
 8006012:	4628      	mov	r0, r5
 8006014:	47b8      	blx	r7
 8006016:	3001      	adds	r0, #1
 8006018:	f43f af27 	beq.w	8005e6a <_printf_float+0xbe>
 800601c:	f108 0801 	add.w	r8, r8, #1
 8006020:	e7e6      	b.n	8005ff0 <_printf_float+0x244>
 8006022:	9b09      	ldr	r3, [sp, #36]	; 0x24
 8006024:	2b00      	cmp	r3, #0
 8006026:	dc39      	bgt.n	800609c <_printf_float+0x2f0>
 8006028:	4a1b      	ldr	r2, [pc, #108]	; (8006098 <_printf_float+0x2ec>)
 800602a:	2301      	movs	r3, #1
 800602c:	4631      	mov	r1, r6
 800602e:	4628      	mov	r0, r5
 8006030:	47b8      	blx	r7
 8006032:	3001      	adds	r0, #1
 8006034:	f43f af19 	beq.w	8005e6a <_printf_float+0xbe>
 8006038:	e9dd 3209 	ldrd	r3, r2, [sp, #36]	; 0x24
 800603c:	4313      	orrs	r3, r2
 800603e:	d102      	bne.n	8006046 <_printf_float+0x29a>
 8006040:	6823      	ldr	r3, [r4, #0]
 8006042:	07d9      	lsls	r1, r3, #31
 8006044:	d5d8      	bpl.n	8005ff8 <_printf_float+0x24c>
 8006046:	ee18 3a10 	vmov	r3, s16
 800604a:	4652      	mov	r2, sl
 800604c:	4631      	mov	r1, r6
 800604e:	4628      	mov	r0, r5
 8006050:	47b8      	blx	r7
 8006052:	3001      	adds	r0, #1
 8006054:	f43f af09 	beq.w	8005e6a <_printf_float+0xbe>
 8006058:	f04f 0900 	mov.w	r9, #0
 800605c:	f104 0a1a 	add.w	sl, r4, #26
 8006060:	9b09      	ldr	r3, [sp, #36]	; 0x24
 8006062:	425b      	negs	r3, r3
 8006064:	454b      	cmp	r3, r9
 8006066:	dc01      	bgt.n	800606c <_printf_float+0x2c0>
 8006068:	9b0a      	ldr	r3, [sp, #40]	; 0x28
 800606a:	e792      	b.n	8005f92 <_printf_float+0x1e6>
 800606c:	2301      	movs	r3, #1
 800606e:	4652      	mov	r2, sl
 8006070:	4631      	mov	r1, r6
 8006072:	4628      	mov	r0, r5
 8006074:	47b8      	blx	r7
 8006076:	3001      	adds	r0, #1
 8006078:	f43f aef7 	beq.w	8005e6a <_printf_float+0xbe>
 800607c:	f109 0901 	add.w	r9, r9, #1
 8006080:	e7ee      	b.n	8006060 <_printf_float+0x2b4>
 8006082:	bf00      	nop
 8006084:	7fefffff 	.word	0x7fefffff
 8006088:	080089f5 	.word	0x080089f5
 800608c:	080089f9 	.word	0x080089f9
 8006090:	080089fd 	.word	0x080089fd
 8006094:	08008a01 	.word	0x08008a01
 8006098:	08008a05 	.word	0x08008a05
 800609c:	9a0a      	ldr	r2, [sp, #40]	; 0x28
 800609e:	6da3      	ldr	r3, [r4, #88]	; 0x58
 80060a0:	429a      	cmp	r2, r3
 80060a2:	bfa8      	it	ge
 80060a4:	461a      	movge	r2, r3
 80060a6:	2a00      	cmp	r2, #0
 80060a8:	4691      	mov	r9, r2
 80060aa:	dc37      	bgt.n	800611c <_printf_float+0x370>
 80060ac:	f04f 0b00 	mov.w	fp, #0
 80060b0:	ea29 79e9 	bic.w	r9, r9, r9, asr #31
 80060b4:	f104 021a 	add.w	r2, r4, #26
 80060b8:	6da3      	ldr	r3, [r4, #88]	; 0x58
 80060ba:	9305      	str	r3, [sp, #20]
 80060bc:	eba3 0309 	sub.w	r3, r3, r9
 80060c0:	455b      	cmp	r3, fp
 80060c2:	dc33      	bgt.n	800612c <_printf_float+0x380>
 80060c4:	e9dd 2309 	ldrd	r2, r3, [sp, #36]	; 0x24
 80060c8:	429a      	cmp	r2, r3
 80060ca:	db3b      	blt.n	8006144 <_printf_float+0x398>
 80060cc:	6823      	ldr	r3, [r4, #0]
 80060ce:	07da      	lsls	r2, r3, #31
 80060d0:	d438      	bmi.n	8006144 <_printf_float+0x398>
 80060d2:	e9dd 3209 	ldrd	r3, r2, [sp, #36]	; 0x24
 80060d6:	eba2 0903 	sub.w	r9, r2, r3
 80060da:	9b05      	ldr	r3, [sp, #20]
 80060dc:	1ad2      	subs	r2, r2, r3
 80060de:	4591      	cmp	r9, r2
 80060e0:	bfa8      	it	ge
 80060e2:	4691      	movge	r9, r2
 80060e4:	f1b9 0f00 	cmp.w	r9, #0
 80060e8:	dc35      	bgt.n	8006156 <_printf_float+0x3aa>
 80060ea:	f04f 0800 	mov.w	r8, #0
 80060ee:	ea29 79e9 	bic.w	r9, r9, r9, asr #31
 80060f2:	f104 0a1a 	add.w	sl, r4, #26
 80060f6:	e9dd 2309 	ldrd	r2, r3, [sp, #36]	; 0x24
 80060fa:	1a9b      	subs	r3, r3, r2
 80060fc:	eba3 0309 	sub.w	r3, r3, r9
 8006100:	4543      	cmp	r3, r8
 8006102:	f77f af79 	ble.w	8005ff8 <_printf_float+0x24c>
 8006106:	2301      	movs	r3, #1
 8006108:	4652      	mov	r2, sl
 800610a:	4631      	mov	r1, r6
 800610c:	4628      	mov	r0, r5
 800610e:	47b8      	blx	r7
 8006110:	3001      	adds	r0, #1
 8006112:	f43f aeaa 	beq.w	8005e6a <_printf_float+0xbe>
 8006116:	f108 0801 	add.w	r8, r8, #1
 800611a:	e7ec      	b.n	80060f6 <_printf_float+0x34a>
 800611c:	4613      	mov	r3, r2
 800611e:	4631      	mov	r1, r6
 8006120:	4642      	mov	r2, r8
 8006122:	4628      	mov	r0, r5
 8006124:	47b8      	blx	r7
 8006126:	3001      	adds	r0, #1
 8006128:	d1c0      	bne.n	80060ac <_printf_float+0x300>
 800612a:	e69e      	b.n	8005e6a <_printf_float+0xbe>
 800612c:	2301      	movs	r3, #1
 800612e:	4631      	mov	r1, r6
 8006130:	4628      	mov	r0, r5
 8006132:	9205      	str	r2, [sp, #20]
 8006134:	47b8      	blx	r7
 8006136:	3001      	adds	r0, #1
 8006138:	f43f ae97 	beq.w	8005e6a <_printf_float+0xbe>
 800613c:	9a05      	ldr	r2, [sp, #20]
 800613e:	f10b 0b01 	add.w	fp, fp, #1
 8006142:	e7b9      	b.n	80060b8 <_printf_float+0x30c>
 8006144:	ee18 3a10 	vmov	r3, s16
 8006148:	4652      	mov	r2, sl
 800614a:	4631      	mov	r1, r6
 800614c:	4628      	mov	r0, r5
 800614e:	47b8      	blx	r7
 8006150:	3001      	adds	r0, #1
 8006152:	d1be      	bne.n	80060d2 <_printf_float+0x326>
 8006154:	e689      	b.n	8005e6a <_printf_float+0xbe>
 8006156:	9a05      	ldr	r2, [sp, #20]
 8006158:	464b      	mov	r3, r9
 800615a:	4442      	add	r2, r8
 800615c:	4631      	mov	r1, r6
 800615e:	4628      	mov	r0, r5
 8006160:	47b8      	blx	r7
 8006162:	3001      	adds	r0, #1
 8006164:	d1c1      	bne.n	80060ea <_printf_float+0x33e>
 8006166:	e680      	b.n	8005e6a <_printf_float+0xbe>
 8006168:	9a0a      	ldr	r2, [sp, #40]	; 0x28
 800616a:	2a01      	cmp	r2, #1
 800616c:	dc01      	bgt.n	8006172 <_printf_float+0x3c6>
 800616e:	07db      	lsls	r3, r3, #31
 8006170:	d53a      	bpl.n	80061e8 <_printf_float+0x43c>
 8006172:	2301      	movs	r3, #1
 8006174:	4642      	mov	r2, r8
 8006176:	4631      	mov	r1, r6
 8006178:	4628      	mov	r0, r5
 800617a:	47b8      	blx	r7
 800617c:	3001      	adds	r0, #1
 800617e:	f43f ae74 	beq.w	8005e6a <_printf_float+0xbe>
 8006182:	ee18 3a10 	vmov	r3, s16
 8006186:	4652      	mov	r2, sl
 8006188:	4631      	mov	r1, r6
 800618a:	4628      	mov	r0, r5
 800618c:	47b8      	blx	r7
 800618e:	3001      	adds	r0, #1
 8006190:	f43f ae6b 	beq.w	8005e6a <_printf_float+0xbe>
 8006194:	e9d4 0112 	ldrd	r0, r1, [r4, #72]	; 0x48
 8006198:	2200      	movs	r2, #0
 800619a:	2300      	movs	r3, #0
 800619c:	f8dd a028 	ldr.w	sl, [sp, #40]	; 0x28
 80061a0:	f7fa fcaa 	bl	8000af8 <__aeabi_dcmpeq>
 80061a4:	b9d8      	cbnz	r0, 80061de <_printf_float+0x432>
 80061a6:	f10a 33ff 	add.w	r3, sl, #4294967295
 80061aa:	f108 0201 	add.w	r2, r8, #1
 80061ae:	4631      	mov	r1, r6
 80061b0:	4628      	mov	r0, r5
 80061b2:	47b8      	blx	r7
 80061b4:	3001      	adds	r0, #1
 80061b6:	d10e      	bne.n	80061d6 <_printf_float+0x42a>
 80061b8:	e657      	b.n	8005e6a <_printf_float+0xbe>
 80061ba:	2301      	movs	r3, #1
 80061bc:	4652      	mov	r2, sl
 80061be:	4631      	mov	r1, r6
 80061c0:	4628      	mov	r0, r5
 80061c2:	47b8      	blx	r7
 80061c4:	3001      	adds	r0, #1
 80061c6:	f43f ae50 	beq.w	8005e6a <_printf_float+0xbe>
 80061ca:	f108 0801 	add.w	r8, r8, #1
 80061ce:	9b0a      	ldr	r3, [sp, #40]	; 0x28
 80061d0:	3b01      	subs	r3, #1
 80061d2:	4543      	cmp	r3, r8
 80061d4:	dcf1      	bgt.n	80061ba <_printf_float+0x40e>
 80061d6:	464b      	mov	r3, r9
 80061d8:	f104 0250 	add.w	r2, r4, #80	; 0x50
 80061dc:	e6da      	b.n	8005f94 <_printf_float+0x1e8>
 80061de:	f04f 0800 	mov.w	r8, #0
 80061e2:	f104 0a1a 	add.w	sl, r4, #26
 80061e6:	e7f2      	b.n	80061ce <_printf_float+0x422>
 80061e8:	2301      	movs	r3, #1
 80061ea:	4642      	mov	r2, r8
 80061ec:	e7df      	b.n	80061ae <_printf_float+0x402>
 80061ee:	2301      	movs	r3, #1
 80061f0:	464a      	mov	r2, r9
 80061f2:	4631      	mov	r1, r6
 80061f4:	4628      	mov	r0, r5
 80061f6:	47b8      	blx	r7
 80061f8:	3001      	adds	r0, #1
 80061fa:	f43f ae36 	beq.w	8005e6a <_printf_float+0xbe>
 80061fe:	f108 0801 	add.w	r8, r8, #1
 8006202:	68e3      	ldr	r3, [r4, #12]
 8006204:	990b      	ldr	r1, [sp, #44]	; 0x2c
 8006206:	1a5b      	subs	r3, r3, r1
 8006208:	4543      	cmp	r3, r8
 800620a:	dcf0      	bgt.n	80061ee <_printf_float+0x442>
 800620c:	e6f8      	b.n	8006000 <_printf_float+0x254>
 800620e:	f04f 0800 	mov.w	r8, #0
 8006212:	f104 0919 	add.w	r9, r4, #25
 8006216:	e7f4      	b.n	8006202 <_printf_float+0x456>

08006218 <_printf_common>:
 8006218:	e92d 47f0 	stmdb	sp!, {r4, r5, r6, r7, r8, r9, sl, lr}
 800621c:	4616      	mov	r6, r2
 800621e:	4699      	mov	r9, r3
 8006220:	688a      	ldr	r2, [r1, #8]
 8006222:	690b      	ldr	r3, [r1, #16]
 8006224:	f8dd 8020 	ldr.w	r8, [sp, #32]
 8006228:	4293      	cmp	r3, r2
 800622a:	bfb8      	it	lt
 800622c:	4613      	movlt	r3, r2
 800622e:	6033      	str	r3, [r6, #0]
 8006230:	f891 2043 	ldrb.w	r2, [r1, #67]	; 0x43
 8006234:	4607      	mov	r7, r0
 8006236:	460c      	mov	r4, r1
 8006238:	b10a      	cbz	r2, 800623e <_printf_common+0x26>
 800623a:	3301      	adds	r3, #1
 800623c:	6033      	str	r3, [r6, #0]
 800623e:	6823      	ldr	r3, [r4, #0]
 8006240:	0699      	lsls	r1, r3, #26
 8006242:	bf42      	ittt	mi
 8006244:	6833      	ldrmi	r3, [r6, #0]
 8006246:	3302      	addmi	r3, #2
 8006248:	6033      	strmi	r3, [r6, #0]
 800624a:	6825      	ldr	r5, [r4, #0]
 800624c:	f015 0506 	ands.w	r5, r5, #6
 8006250:	d106      	bne.n	8006260 <_printf_common+0x48>
 8006252:	f104 0a19 	add.w	sl, r4, #25
 8006256:	68e3      	ldr	r3, [r4, #12]
 8006258:	6832      	ldr	r2, [r6, #0]
 800625a:	1a9b      	subs	r3, r3, r2
 800625c:	42ab      	cmp	r3, r5
 800625e:	dc26      	bgt.n	80062ae <_printf_common+0x96>
 8006260:	f894 2043 	ldrb.w	r2, [r4, #67]	; 0x43
 8006264:	1e13      	subs	r3, r2, #0
 8006266:	6822      	ldr	r2, [r4, #0]
 8006268:	bf18      	it	ne
 800626a:	2301      	movne	r3, #1
 800626c:	0692      	lsls	r2, r2, #26
 800626e:	d42b      	bmi.n	80062c8 <_printf_common+0xb0>
 8006270:	f104 0243 	add.w	r2, r4, #67	; 0x43
 8006274:	4649      	mov	r1, r9
 8006276:	4638      	mov	r0, r7
 8006278:	47c0      	blx	r8
 800627a:	3001      	adds	r0, #1
 800627c:	d01e      	beq.n	80062bc <_printf_common+0xa4>
 800627e:	6823      	ldr	r3, [r4, #0]
 8006280:	6922      	ldr	r2, [r4, #16]
 8006282:	f003 0306 	and.w	r3, r3, #6
 8006286:	2b04      	cmp	r3, #4
 8006288:	bf02      	ittt	eq
 800628a:	68e5      	ldreq	r5, [r4, #12]
 800628c:	6833      	ldreq	r3, [r6, #0]
 800628e:	1aed      	subeq	r5, r5, r3
 8006290:	68a3      	ldr	r3, [r4, #8]
 8006292:	bf0c      	ite	eq
 8006294:	ea25 75e5 	biceq.w	r5, r5, r5, asr #31
 8006298:	2500      	movne	r5, #0
 800629a:	4293      	cmp	r3, r2
 800629c:	bfc4      	itt	gt
 800629e:	1a9b      	subgt	r3, r3, r2
 80062a0:	18ed      	addgt	r5, r5, r3
 80062a2:	2600      	movs	r6, #0
 80062a4:	341a      	adds	r4, #26
 80062a6:	42b5      	cmp	r5, r6
 80062a8:	d11a      	bne.n	80062e0 <_printf_common+0xc8>
 80062aa:	2000      	movs	r0, #0
 80062ac:	e008      	b.n	80062c0 <_printf_common+0xa8>
 80062ae:	2301      	movs	r3, #1
 80062b0:	4652      	mov	r2, sl
 80062b2:	4649      	mov	r1, r9
 80062b4:	4638      	mov	r0, r7
 80062b6:	47c0      	blx	r8
 80062b8:	3001      	adds	r0, #1
 80062ba:	d103      	bne.n	80062c4 <_printf_common+0xac>
 80062bc:	f04f 30ff 	mov.w	r0, #4294967295
 80062c0:	e8bd 87f0 	ldmia.w	sp!, {r4, r5, r6, r7, r8, r9, sl, pc}
 80062c4:	3501      	adds	r5, #1
 80062c6:	e7c6      	b.n	8006256 <_printf_common+0x3e>
 80062c8:	18e1      	adds	r1, r4, r3
 80062ca:	1c5a      	adds	r2, r3, #1
 80062cc:	2030      	movs	r0, #48	; 0x30
 80062ce:	f881 0043 	strb.w	r0, [r1, #67]	; 0x43
 80062d2:	4422      	add	r2, r4
 80062d4:	f894 1045 	ldrb.w	r1, [r4, #69]	; 0x45
 80062d8:	f882 1043 	strb.w	r1, [r2, #67]	; 0x43
 80062dc:	3302      	adds	r3, #2
 80062de:	e7c7      	b.n	8006270 <_printf_common+0x58>
 80062e0:	2301      	movs	r3, #1
 80062e2:	4622      	mov	r2, r4
 80062e4:	4649      	mov	r1, r9
 80062e6:	4638      	mov	r0, r7
 80062e8:	47c0      	blx	r8
 80062ea:	3001      	adds	r0, #1
 80062ec:	d0e6      	beq.n	80062bc <_printf_common+0xa4>
 80062ee:	3601      	adds	r6, #1
 80062f0:	e7d9      	b.n	80062a6 <_printf_common+0x8e>
	...

080062f4 <_printf_i>:
 80062f4:	e92d 47ff 	stmdb	sp!, {r0, r1, r2, r3, r4, r5, r6, r7, r8, r9, sl, lr}
 80062f8:	7e0f      	ldrb	r7, [r1, #24]
 80062fa:	9d0c      	ldr	r5, [sp, #48]	; 0x30
 80062fc:	2f78      	cmp	r7, #120	; 0x78
 80062fe:	4691      	mov	r9, r2
 8006300:	4680      	mov	r8, r0
 8006302:	460c      	mov	r4, r1
 8006304:	469a      	mov	sl, r3
 8006306:	f101 0243 	add.w	r2, r1, #67	; 0x43
 800630a:	d807      	bhi.n	800631c <_printf_i+0x28>
 800630c:	2f62      	cmp	r7, #98	; 0x62
 800630e:	d80a      	bhi.n	8006326 <_printf_i+0x32>
 8006310:	2f00      	cmp	r7, #0
 8006312:	f000 80d4 	beq.w	80064be <_printf_i+0x1ca>
 8006316:	2f58      	cmp	r7, #88	; 0x58
 8006318:	f000 80c0 	beq.w	800649c <_printf_i+0x1a8>
 800631c:	f104 0542 	add.w	r5, r4, #66	; 0x42
 8006320:	f884 7042 	strb.w	r7, [r4, #66]	; 0x42
 8006324:	e03a      	b.n	800639c <_printf_i+0xa8>
 8006326:	f1a7 0363 	sub.w	r3, r7, #99	; 0x63
 800632a:	2b15      	cmp	r3, #21
 800632c:	d8f6      	bhi.n	800631c <_printf_i+0x28>
 800632e:	a101      	add	r1, pc, #4	; (adr r1, 8006334 <_printf_i+0x40>)
 8006330:	f851 f023 	ldr.w	pc, [r1, r3, lsl #2]
 8006334:	0800638d 	.word	0x0800638d
 8006338:	080063a1 	.word	0x080063a1
 800633c:	0800631d 	.word	0x0800631d
 8006340:	0800631d 	.word	0x0800631d
 8006344:	0800631d 	.word	0x0800631d
 8006348:	0800631d 	.word	0x0800631d
 800634c:	080063a1 	.word	0x080063a1
 8006350:	0800631d 	.word	0x0800631d
 8006354:	0800631d 	.word	0x0800631d
 8006358:	0800631d 	.word	0x0800631d
 800635c:	0800631d 	.word	0x0800631d
 8006360:	080064a5 	.word	0x080064a5
 8006364:	080063cd 	.word	0x080063cd
 8006368:	0800645f 	.word	0x0800645f
 800636c:	0800631d 	.word	0x0800631d
 8006370:	0800631d 	.word	0x0800631d
 8006374:	080064c7 	.word	0x080064c7
 8006378:	0800631d 	.word	0x0800631d
 800637c:	080063cd 	.word	0x080063cd
 8006380:	0800631d 	.word	0x0800631d
 8006384:	0800631d 	.word	0x0800631d
 8006388:	08006467 	.word	0x08006467
 800638c:	682b      	ldr	r3, [r5, #0]
 800638e:	1d1a      	adds	r2, r3, #4
 8006390:	681b      	ldr	r3, [r3, #0]
 8006392:	602a      	str	r2, [r5, #0]
 8006394:	f104 0542 	add.w	r5, r4, #66	; 0x42
 8006398:	f884 3042 	strb.w	r3, [r4, #66]	; 0x42
 800639c:	2301      	movs	r3, #1
 800639e:	e09f      	b.n	80064e0 <_printf_i+0x1ec>
 80063a0:	6820      	ldr	r0, [r4, #0]
 80063a2:	682b      	ldr	r3, [r5, #0]
 80063a4:	0607      	lsls	r7, r0, #24
 80063a6:	f103 0104 	add.w	r1, r3, #4
 80063aa:	6029      	str	r1, [r5, #0]
 80063ac:	d501      	bpl.n	80063b2 <_printf_i+0xbe>
 80063ae:	681e      	ldr	r6, [r3, #0]
 80063b0:	e003      	b.n	80063ba <_printf_i+0xc6>
 80063b2:	0646      	lsls	r6, r0, #25
 80063b4:	d5fb      	bpl.n	80063ae <_printf_i+0xba>
 80063b6:	f9b3 6000 	ldrsh.w	r6, [r3]
 80063ba:	2e00      	cmp	r6, #0
 80063bc:	da03      	bge.n	80063c6 <_printf_i+0xd2>
 80063be:	232d      	movs	r3, #45	; 0x2d
 80063c0:	4276      	negs	r6, r6
 80063c2:	f884 3043 	strb.w	r3, [r4, #67]	; 0x43
 80063c6:	485a      	ldr	r0, [pc, #360]	; (8006530 <_printf_i+0x23c>)
 80063c8:	230a      	movs	r3, #10
 80063ca:	e012      	b.n	80063f2 <_printf_i+0xfe>
 80063cc:	682b      	ldr	r3, [r5, #0]
 80063ce:	6820      	ldr	r0, [r4, #0]
 80063d0:	1d19      	adds	r1, r3, #4
 80063d2:	6029      	str	r1, [r5, #0]
 80063d4:	0605      	lsls	r5, r0, #24
 80063d6:	d501      	bpl.n	80063dc <_printf_i+0xe8>
 80063d8:	681e      	ldr	r6, [r3, #0]
 80063da:	e002      	b.n	80063e2 <_printf_i+0xee>
 80063dc:	0641      	lsls	r1, r0, #25
 80063de:	d5fb      	bpl.n	80063d8 <_printf_i+0xe4>
 80063e0:	881e      	ldrh	r6, [r3, #0]
 80063e2:	4853      	ldr	r0, [pc, #332]	; (8006530 <_printf_i+0x23c>)
 80063e4:	2f6f      	cmp	r7, #111	; 0x6f
 80063e6:	bf0c      	ite	eq
 80063e8:	2308      	moveq	r3, #8
 80063ea:	230a      	movne	r3, #10
 80063ec:	2100      	movs	r1, #0
 80063ee:	f884 1043 	strb.w	r1, [r4, #67]	; 0x43
 80063f2:	6865      	ldr	r5, [r4, #4]
 80063f4:	60a5      	str	r5, [r4, #8]
 80063f6:	2d00      	cmp	r5, #0
 80063f8:	bfa2      	ittt	ge
 80063fa:	6821      	ldrge	r1, [r4, #0]
 80063fc:	f021 0104 	bicge.w	r1, r1, #4
 8006400:	6021      	strge	r1, [r4, #0]
 8006402:	b90e      	cbnz	r6, 8006408 <_printf_i+0x114>
 8006404:	2d00      	cmp	r5, #0
 8006406:	d04b      	beq.n	80064a0 <_printf_i+0x1ac>
 8006408:	4615      	mov	r5, r2
 800640a:	fbb6 f1f3 	udiv	r1, r6, r3
 800640e:	fb03 6711 	mls	r7, r3, r1, r6
 8006412:	5dc7      	ldrb	r7, [r0, r7]
 8006414:	f805 7d01 	strb.w	r7, [r5, #-1]!
 8006418:	4637      	mov	r7, r6
 800641a:	42bb      	cmp	r3, r7
 800641c:	460e      	mov	r6, r1
 800641e:	d9f4      	bls.n	800640a <_printf_i+0x116>
 8006420:	2b08      	cmp	r3, #8
 8006422:	d10b      	bne.n	800643c <_printf_i+0x148>
 8006424:	6823      	ldr	r3, [r4, #0]
 8006426:	07de      	lsls	r6, r3, #31
 8006428:	d508      	bpl.n	800643c <_printf_i+0x148>
 800642a:	6923      	ldr	r3, [r4, #16]
 800642c:	6861      	ldr	r1, [r4, #4]
 800642e:	4299      	cmp	r1, r3
 8006430:	bfde      	ittt	le
 8006432:	2330      	movle	r3, #48	; 0x30
 8006434:	f805 3c01 	strble.w	r3, [r5, #-1]
 8006438:	f105 35ff 	addle.w	r5, r5, #4294967295
 800643c:	1b52      	subs	r2, r2, r5
 800643e:	6122      	str	r2, [r4, #16]
 8006440:	f8cd a000 	str.w	sl, [sp]
 8006444:	464b      	mov	r3, r9
 8006446:	aa03      	add	r2, sp, #12
 8006448:	4621      	mov	r1, r4
 800644a:	4640      	mov	r0, r8
 800644c:	f7ff fee4 	bl	8006218 <_printf_common>
 8006450:	3001      	adds	r0, #1
 8006452:	d14a      	bne.n	80064ea <_printf_i+0x1f6>
 8006454:	f04f 30ff 	mov.w	r0, #4294967295
 8006458:	b004      	add	sp, #16
 800645a:	e8bd 87f0 	ldmia.w	sp!, {r4, r5, r6, r7, r8, r9, sl, pc}
 800645e:	6823      	ldr	r3, [r4, #0]
 8006460:	f043 0320 	orr.w	r3, r3, #32
 8006464:	6023      	str	r3, [r4, #0]
 8006466:	4833      	ldr	r0, [pc, #204]	; (8006534 <_printf_i+0x240>)
 8006468:	2778      	movs	r7, #120	; 0x78
 800646a:	f884 7045 	strb.w	r7, [r4, #69]	; 0x45
 800646e:	6823      	ldr	r3, [r4, #0]
 8006470:	6829      	ldr	r1, [r5, #0]
 8006472:	061f      	lsls	r7, r3, #24
 8006474:	f851 6b04 	ldr.w	r6, [r1], #4
 8006478:	d402      	bmi.n	8006480 <_printf_i+0x18c>
 800647a:	065f      	lsls	r7, r3, #25
 800647c:	bf48      	it	mi
 800647e:	b2b6      	uxthmi	r6, r6
 8006480:	07df      	lsls	r7, r3, #31
 8006482:	bf48      	it	mi
 8006484:	f043 0320 	orrmi.w	r3, r3, #32
 8006488:	6029      	str	r1, [r5, #0]
 800648a:	bf48      	it	mi
 800648c:	6023      	strmi	r3, [r4, #0]
 800648e:	b91e      	cbnz	r6, 8006498 <_printf_i+0x1a4>
 8006490:	6823      	ldr	r3, [r4, #0]
 8006492:	f023 0320 	bic.w	r3, r3, #32
 8006496:	6023      	str	r3, [r4, #0]
 8006498:	2310      	movs	r3, #16
 800649a:	e7a7      	b.n	80063ec <_printf_i+0xf8>
 800649c:	4824      	ldr	r0, [pc, #144]	; (8006530 <_printf_i+0x23c>)
 800649e:	e7e4      	b.n	800646a <_printf_i+0x176>
 80064a0:	4615      	mov	r5, r2
 80064a2:	e7bd      	b.n	8006420 <_printf_i+0x12c>
 80064a4:	682b      	ldr	r3, [r5, #0]
 80064a6:	6826      	ldr	r6, [r4, #0]
 80064a8:	6961      	ldr	r1, [r4, #20]
 80064aa:	1d18      	adds	r0, r3, #4
 80064ac:	6028      	str	r0, [r5, #0]
 80064ae:	0635      	lsls	r5, r6, #24
 80064b0:	681b      	ldr	r3, [r3, #0]
 80064b2:	d501      	bpl.n	80064b8 <_printf_i+0x1c4>
 80064b4:	6019      	str	r1, [r3, #0]
 80064b6:	e002      	b.n	80064be <_printf_i+0x1ca>
 80064b8:	0670      	lsls	r0, r6, #25
 80064ba:	d5fb      	bpl.n	80064b4 <_printf_i+0x1c0>
 80064bc:	8019      	strh	r1, [r3, #0]
 80064be:	2300      	movs	r3, #0
 80064c0:	6123      	str	r3, [r4, #16]
 80064c2:	4615      	mov	r5, r2
 80064c4:	e7bc      	b.n	8006440 <_printf_i+0x14c>
 80064c6:	682b      	ldr	r3, [r5, #0]
 80064c8:	1d1a      	adds	r2, r3, #4
 80064ca:	602a      	str	r2, [r5, #0]
 80064cc:	681d      	ldr	r5, [r3, #0]
 80064ce:	6862      	ldr	r2, [r4, #4]
 80064d0:	2100      	movs	r1, #0
 80064d2:	4628      	mov	r0, r5
 80064d4:	f7f9 fe94 	bl	8000200 <memchr>
 80064d8:	b108      	cbz	r0, 80064de <_printf_i+0x1ea>
 80064da:	1b40      	subs	r0, r0, r5
 80064dc:	6060      	str	r0, [r4, #4]
 80064de:	6863      	ldr	r3, [r4, #4]
 80064e0:	6123      	str	r3, [r4, #16]
 80064e2:	2300      	movs	r3, #0
 80064e4:	f884 3043 	strb.w	r3, [r4, #67]	; 0x43
 80064e8:	e7aa      	b.n	8006440 <_printf_i+0x14c>
 80064ea:	6923      	ldr	r3, [r4, #16]
 80064ec:	462a      	mov	r2, r5
 80064ee:	4649      	mov	r1, r9
 80064f0:	4640      	mov	r0, r8
 80064f2:	47d0      	blx	sl
 80064f4:	3001      	adds	r0, #1
 80064f6:	d0ad      	beq.n	8006454 <_printf_i+0x160>
 80064f8:	6823      	ldr	r3, [r4, #0]
 80064fa:	079b      	lsls	r3, r3, #30
 80064fc:	d413      	bmi.n	8006526 <_printf_i+0x232>
 80064fe:	68e0      	ldr	r0, [r4, #12]
 8006500:	9b03      	ldr	r3, [sp, #12]
 8006502:	4298      	cmp	r0, r3
 8006504:	bfb8      	it	lt
 8006506:	4618      	movlt	r0, r3
 8006508:	e7a6      	b.n	8006458 <_printf_i+0x164>
 800650a:	2301      	movs	r3, #1
 800650c:	4632      	mov	r2, r6
 800650e:	4649      	mov	r1, r9
 8006510:	4640      	mov	r0, r8
 8006512:	47d0      	blx	sl
 8006514:	3001      	adds	r0, #1
 8006516:	d09d      	beq.n	8006454 <_printf_i+0x160>
 8006518:	3501      	adds	r5, #1
 800651a:	68e3      	ldr	r3, [r4, #12]
 800651c:	9903      	ldr	r1, [sp, #12]
 800651e:	1a5b      	subs	r3, r3, r1
 8006520:	42ab      	cmp	r3, r5
 8006522:	dcf2      	bgt.n	800650a <_printf_i+0x216>
 8006524:	e7eb      	b.n	80064fe <_printf_i+0x20a>
 8006526:	2500      	movs	r5, #0
 8006528:	f104 0619 	add.w	r6, r4, #25
 800652c:	e7f5      	b.n	800651a <_printf_i+0x226>
 800652e:	bf00      	nop
 8006530:	08008a07 	.word	0x08008a07
 8006534:	08008a18 	.word	0x08008a18

08006538 <std>:
 8006538:	2300      	movs	r3, #0
 800653a:	b510      	push	{r4, lr}
 800653c:	4604      	mov	r4, r0
 800653e:	e9c0 3300 	strd	r3, r3, [r0]
 8006542:	e9c0 3304 	strd	r3, r3, [r0, #16]
 8006546:	6083      	str	r3, [r0, #8]
 8006548:	8181      	strh	r1, [r0, #12]
 800654a:	6643      	str	r3, [r0, #100]	; 0x64
 800654c:	81c2      	strh	r2, [r0, #14]
 800654e:	6183      	str	r3, [r0, #24]
 8006550:	4619      	mov	r1, r3
 8006552:	2208      	movs	r2, #8
 8006554:	305c      	adds	r0, #92	; 0x5c
 8006556:	f000 f914 	bl	8006782 <memset>
 800655a:	4b0d      	ldr	r3, [pc, #52]	; (8006590 <std+0x58>)
 800655c:	6263      	str	r3, [r4, #36]	; 0x24
 800655e:	4b0d      	ldr	r3, [pc, #52]	; (8006594 <std+0x5c>)
 8006560:	62a3      	str	r3, [r4, #40]	; 0x28
 8006562:	4b0d      	ldr	r3, [pc, #52]	; (8006598 <std+0x60>)
 8006564:	62e3      	str	r3, [r4, #44]	; 0x2c
 8006566:	4b0d      	ldr	r3, [pc, #52]	; (800659c <std+0x64>)
 8006568:	6323      	str	r3, [r4, #48]	; 0x30
 800656a:	4b0d      	ldr	r3, [pc, #52]	; (80065a0 <std+0x68>)
 800656c:	6224      	str	r4, [r4, #32]
 800656e:	429c      	cmp	r4, r3
 8006570:	d006      	beq.n	8006580 <std+0x48>
 8006572:	f103 0268 	add.w	r2, r3, #104	; 0x68
 8006576:	4294      	cmp	r4, r2
 8006578:	d002      	beq.n	8006580 <std+0x48>
 800657a:	33d0      	adds	r3, #208	; 0xd0
 800657c:	429c      	cmp	r4, r3
 800657e:	d105      	bne.n	800658c <std+0x54>
 8006580:	f104 0058 	add.w	r0, r4, #88	; 0x58
 8006584:	e8bd 4010 	ldmia.w	sp!, {r4, lr}
 8006588:	f000 b988 	b.w	800689c <__retarget_lock_init_recursive>
 800658c:	bd10      	pop	{r4, pc}
 800658e:	bf00      	nop
 8006590:	080066fd 	.word	0x080066fd
 8006594:	0800671f 	.word	0x0800671f
 8006598:	08006757 	.word	0x08006757
 800659c:	0800677b 	.word	0x0800677b
 80065a0:	200015ec 	.word	0x200015ec

080065a4 <stdio_exit_handler>:
 80065a4:	4a02      	ldr	r2, [pc, #8]	; (80065b0 <stdio_exit_handler+0xc>)
 80065a6:	4903      	ldr	r1, [pc, #12]	; (80065b4 <stdio_exit_handler+0x10>)
 80065a8:	4803      	ldr	r0, [pc, #12]	; (80065b8 <stdio_exit_handler+0x14>)
 80065aa:	f000 b869 	b.w	8006680 <_fwalk_sglue>
 80065ae:	bf00      	nop
 80065b0:	200000a8 	.word	0x200000a8
 80065b4:	08008121 	.word	0x08008121
 80065b8:	200000b4 	.word	0x200000b4

080065bc <cleanup_stdio>:
 80065bc:	6841      	ldr	r1, [r0, #4]
 80065be:	4b0c      	ldr	r3, [pc, #48]	; (80065f0 <cleanup_stdio+0x34>)
 80065c0:	4299      	cmp	r1, r3
 80065c2:	b510      	push	{r4, lr}
 80065c4:	4604      	mov	r4, r0
 80065c6:	d001      	beq.n	80065cc <cleanup_stdio+0x10>
 80065c8:	f001 fdaa 	bl	8008120 <_fflush_r>
 80065cc:	68a1      	ldr	r1, [r4, #8]
 80065ce:	4b09      	ldr	r3, [pc, #36]	; (80065f4 <cleanup_stdio+0x38>)
 80065d0:	4299      	cmp	r1, r3
 80065d2:	d002      	beq.n	80065da <cleanup_stdio+0x1e>
 80065d4:	4620      	mov	r0, r4
 80065d6:	f001 fda3 	bl	8008120 <_fflush_r>
 80065da:	68e1      	ldr	r1, [r4, #12]
 80065dc:	4b06      	ldr	r3, [pc, #24]	; (80065f8 <cleanup_stdio+0x3c>)
 80065de:	4299      	cmp	r1, r3
 80065e0:	d004      	beq.n	80065ec <cleanup_stdio+0x30>
 80065e2:	4620      	mov	r0, r4
 80065e4:	e8bd 4010 	ldmia.w	sp!, {r4, lr}
 80065e8:	f001 bd9a 	b.w	8008120 <_fflush_r>
 80065ec:	bd10      	pop	{r4, pc}
 80065ee:	bf00      	nop
 80065f0:	200015ec 	.word	0x200015ec
 80065f4:	20001654 	.word	0x20001654
 80065f8:	200016bc 	.word	0x200016bc

080065fc <global_stdio_init.part.0>:
 80065fc:	b510      	push	{r4, lr}
 80065fe:	4b0b      	ldr	r3, [pc, #44]	; (800662c <global_stdio_init.part.0+0x30>)
 8006600:	4c0b      	ldr	r4, [pc, #44]	; (8006630 <global_stdio_init.part.0+0x34>)
 8006602:	4a0c      	ldr	r2, [pc, #48]	; (8006634 <global_stdio_init.part.0+0x38>)
 8006604:	601a      	str	r2, [r3, #0]
 8006606:	4620      	mov	r0, r4
 8006608:	2200      	movs	r2, #0
 800660a:	2104      	movs	r1, #4
 800660c:	f7ff ff94 	bl	8006538 <std>
 8006610:	f104 0068 	add.w	r0, r4, #104	; 0x68
 8006614:	2201      	movs	r2, #1
 8006616:	2109      	movs	r1, #9
 8006618:	f7ff ff8e 	bl	8006538 <std>
 800661c:	f104 00d0 	add.w	r0, r4, #208	; 0xd0
 8006620:	2202      	movs	r2, #2
 8006622:	e8bd 4010 	ldmia.w	sp!, {r4, lr}
 8006626:	2112      	movs	r1, #18
 8006628:	f7ff bf86 	b.w	8006538 <std>
 800662c:	20001724 	.word	0x20001724
 8006630:	200015ec 	.word	0x200015ec
 8006634:	080065a5 	.word	0x080065a5

08006638 <__sfp_lock_acquire>:
 8006638:	4801      	ldr	r0, [pc, #4]	; (8006640 <__sfp_lock_acquire+0x8>)
 800663a:	f000 b930 	b.w	800689e <__retarget_lock_acquire_recursive>
 800663e:	bf00      	nop
 8006640:	2000172d 	.word	0x2000172d

08006644 <__sfp_lock_release>:
 8006644:	4801      	ldr	r0, [pc, #4]	; (800664c <__sfp_lock_release+0x8>)
 8006646:	f000 b92b 	b.w	80068a0 <__retarget_lock_release_recursive>
 800664a:	bf00      	nop
 800664c:	2000172d 	.word	0x2000172d

08006650 <__sinit>:
 8006650:	b510      	push	{r4, lr}
 8006652:	4604      	mov	r4, r0
 8006654:	f7ff fff0 	bl	8006638 <__sfp_lock_acquire>
 8006658:	6a23      	ldr	r3, [r4, #32]
 800665a:	b11b      	cbz	r3, 8006664 <__sinit+0x14>
 800665c:	e8bd 4010 	ldmia.w	sp!, {r4, lr}
 8006660:	f7ff bff0 	b.w	8006644 <__sfp_lock_release>
 8006664:	4b04      	ldr	r3, [pc, #16]	; (8006678 <__sinit+0x28>)
 8006666:	6223      	str	r3, [r4, #32]
 8006668:	4b04      	ldr	r3, [pc, #16]	; (800667c <__sinit+0x2c>)
 800666a:	681b      	ldr	r3, [r3, #0]
 800666c:	2b00      	cmp	r3, #0
 800666e:	d1f5      	bne.n	800665c <__sinit+0xc>
 8006670:	f7ff ffc4 	bl	80065fc <global_stdio_init.part.0>
 8006674:	e7f2      	b.n	800665c <__sinit+0xc>
 8006676:	bf00      	nop
 8006678:	080065bd 	.word	0x080065bd
 800667c:	20001724 	.word	0x20001724

08006680 <_fwalk_sglue>:
 8006680:	e92d 43f8 	stmdb	sp!, {r3, r4, r5, r6, r7, r8, r9, lr}
 8006684:	4607      	mov	r7, r0
 8006686:	4688      	mov	r8, r1
 8006688:	4614      	mov	r4, r2
 800668a:	2600      	movs	r6, #0
 800668c:	e9d4 9501 	ldrd	r9, r5, [r4, #4]
 8006690:	f1b9 0901 	subs.w	r9, r9, #1
 8006694:	d505      	bpl.n	80066a2 <_fwalk_sglue+0x22>
 8006696:	6824      	ldr	r4, [r4, #0]
 8006698:	2c00      	cmp	r4, #0
 800669a:	d1f7      	bne.n	800668c <_fwalk_sglue+0xc>
 800669c:	4630      	mov	r0, r6
 800669e:	e8bd 83f8 	ldmia.w	sp!, {r3, r4, r5, r6, r7, r8, r9, pc}
 80066a2:	89ab      	ldrh	r3, [r5, #12]
 80066a4:	2b01      	cmp	r3, #1
 80066a6:	d907      	bls.n	80066b8 <_fwalk_sglue+0x38>
 80066a8:	f9b5 300e 	ldrsh.w	r3, [r5, #14]
 80066ac:	3301      	adds	r3, #1
 80066ae:	d003      	beq.n	80066b8 <_fwalk_sglue+0x38>
 80066b0:	4629      	mov	r1, r5
 80066b2:	4638      	mov	r0, r7
 80066b4:	47c0      	blx	r8
 80066b6:	4306      	orrs	r6, r0
 80066b8:	3568      	adds	r5, #104	; 0x68
 80066ba:	e7e9      	b.n	8006690 <_fwalk_sglue+0x10>

080066bc <siprintf>:
 80066bc:	b40e      	push	{r1, r2, r3}
 80066be:	b500      	push	{lr}
 80066c0:	b09c      	sub	sp, #112	; 0x70
 80066c2:	ab1d      	add	r3, sp, #116	; 0x74
 80066c4:	9002      	str	r0, [sp, #8]
 80066c6:	9006      	str	r0, [sp, #24]
 80066c8:	f06f 4100 	mvn.w	r1, #2147483648	; 0x80000000
 80066cc:	4809      	ldr	r0, [pc, #36]	; (80066f4 <siprintf+0x38>)
 80066ce:	9107      	str	r1, [sp, #28]
 80066d0:	9104      	str	r1, [sp, #16]
 80066d2:	4909      	ldr	r1, [pc, #36]	; (80066f8 <siprintf+0x3c>)
 80066d4:	f853 2b04 	ldr.w	r2, [r3], #4
 80066d8:	9105      	str	r1, [sp, #20]
 80066da:	6800      	ldr	r0, [r0, #0]
 80066dc:	9301      	str	r3, [sp, #4]
 80066de:	a902      	add	r1, sp, #8
 80066e0:	f001 fb9a 	bl	8007e18 <_svfiprintf_r>
 80066e4:	9b02      	ldr	r3, [sp, #8]
 80066e6:	2200      	movs	r2, #0
 80066e8:	701a      	strb	r2, [r3, #0]
 80066ea:	b01c      	add	sp, #112	; 0x70
 80066ec:	f85d eb04 	ldr.w	lr, [sp], #4
 80066f0:	b003      	add	sp, #12
 80066f2:	4770      	bx	lr
 80066f4:	20000100 	.word	0x20000100
 80066f8:	ffff0208 	.word	0xffff0208

080066fc <__sread>:
 80066fc:	b510      	push	{r4, lr}
 80066fe:	460c      	mov	r4, r1
 8006700:	f9b1 100e 	ldrsh.w	r1, [r1, #14]
 8006704:	f000 f86c 	bl	80067e0 <_read_r>
 8006708:	2800      	cmp	r0, #0
 800670a:	bfab      	itete	ge
 800670c:	6d63      	ldrge	r3, [r4, #84]	; 0x54
 800670e:	89a3      	ldrhlt	r3, [r4, #12]
 8006710:	181b      	addge	r3, r3, r0
 8006712:	f423 5380 	biclt.w	r3, r3, #4096	; 0x1000
 8006716:	bfac      	ite	ge
 8006718:	6563      	strge	r3, [r4, #84]	; 0x54
 800671a:	81a3      	strhlt	r3, [r4, #12]
 800671c:	bd10      	pop	{r4, pc}

0800671e <__swrite>:
 800671e:	e92d 41f0 	stmdb	sp!, {r4, r5, r6, r7, r8, lr}
 8006722:	461f      	mov	r7, r3
 8006724:	898b      	ldrh	r3, [r1, #12]
 8006726:	05db      	lsls	r3, r3, #23
 8006728:	4605      	mov	r5, r0
 800672a:	460c      	mov	r4, r1
 800672c:	4616      	mov	r6, r2
 800672e:	d505      	bpl.n	800673c <__swrite+0x1e>
 8006730:	f9b1 100e 	ldrsh.w	r1, [r1, #14]
 8006734:	2302      	movs	r3, #2
 8006736:	2200      	movs	r2, #0
 8006738:	f000 f840 	bl	80067bc <_lseek_r>
 800673c:	89a3      	ldrh	r3, [r4, #12]
 800673e:	f9b4 100e 	ldrsh.w	r1, [r4, #14]
 8006742:	f423 5380 	bic.w	r3, r3, #4096	; 0x1000
 8006746:	81a3      	strh	r3, [r4, #12]
 8006748:	4632      	mov	r2, r6
 800674a:	463b      	mov	r3, r7
 800674c:	4628      	mov	r0, r5
 800674e:	e8bd 41f0 	ldmia.w	sp!, {r4, r5, r6, r7, r8, lr}
 8006752:	f000 b867 	b.w	8006824 <_write_r>

08006756 <__sseek>:
 8006756:	b510      	push	{r4, lr}
 8006758:	460c      	mov	r4, r1
 800675a:	f9b1 100e 	ldrsh.w	r1, [r1, #14]
 800675e:	f000 f82d 	bl	80067bc <_lseek_r>
 8006762:	1c43      	adds	r3, r0, #1
 8006764:	89a3      	ldrh	r3, [r4, #12]
 8006766:	bf15      	itete	ne
 8006768:	6560      	strne	r0, [r4, #84]	; 0x54
 800676a:	f423 5380 	biceq.w	r3, r3, #4096	; 0x1000
 800676e:	f443 5380 	orrne.w	r3, r3, #4096	; 0x1000
 8006772:	81a3      	strheq	r3, [r4, #12]
 8006774:	bf18      	it	ne
 8006776:	81a3      	strhne	r3, [r4, #12]
 8006778:	bd10      	pop	{r4, pc}

0800677a <__sclose>:
 800677a:	f9b1 100e 	ldrsh.w	r1, [r1, #14]
 800677e:	f000 b80d 	b.w	800679c <_close_r>

08006782 <memset>:
 8006782:	4402      	add	r2, r0
 8006784:	4603      	mov	r3, r0
 8006786:	4293      	cmp	r3, r2
 8006788:	d100      	bne.n	800678c <memset+0xa>
 800678a:	4770      	bx	lr
 800678c:	f803 1b01 	strb.w	r1, [r3], #1
 8006790:	e7f9      	b.n	8006786 <memset+0x4>
	...

08006794 <_localeconv_r>:
 8006794:	4800      	ldr	r0, [pc, #0]	; (8006798 <_localeconv_r+0x4>)
 8006796:	4770      	bx	lr
 8006798:	200001f4 	.word	0x200001f4

0800679c <_close_r>:
 800679c:	b538      	push	{r3, r4, r5, lr}
 800679e:	4d06      	ldr	r5, [pc, #24]	; (80067b8 <_close_r+0x1c>)
 80067a0:	2300      	movs	r3, #0
 80067a2:	4604      	mov	r4, r0
 80067a4:	4608      	mov	r0, r1
 80067a6:	602b      	str	r3, [r5, #0]
 80067a8:	f7fb fb42 	bl	8001e30 <_close>
 80067ac:	1c43      	adds	r3, r0, #1
 80067ae:	d102      	bne.n	80067b6 <_close_r+0x1a>
 80067b0:	682b      	ldr	r3, [r5, #0]
 80067b2:	b103      	cbz	r3, 80067b6 <_close_r+0x1a>
 80067b4:	6023      	str	r3, [r4, #0]
 80067b6:	bd38      	pop	{r3, r4, r5, pc}
 80067b8:	20001728 	.word	0x20001728

080067bc <_lseek_r>:
 80067bc:	b538      	push	{r3, r4, r5, lr}
 80067be:	4d07      	ldr	r5, [pc, #28]	; (80067dc <_lseek_r+0x20>)
 80067c0:	4604      	mov	r4, r0
 80067c2:	4608      	mov	r0, r1
 80067c4:	4611      	mov	r1, r2
 80067c6:	2200      	movs	r2, #0
 80067c8:	602a      	str	r2, [r5, #0]
 80067ca:	461a      	mov	r2, r3
 80067cc:	f7fb fb3a 	bl	8001e44 <_lseek>
 80067d0:	1c43      	adds	r3, r0, #1
 80067d2:	d102      	bne.n	80067da <_lseek_r+0x1e>
 80067d4:	682b      	ldr	r3, [r5, #0]
 80067d6:	b103      	cbz	r3, 80067da <_lseek_r+0x1e>
 80067d8:	6023      	str	r3, [r4, #0]
 80067da:	bd38      	pop	{r3, r4, r5, pc}
 80067dc:	20001728 	.word	0x20001728

080067e0 <_read_r>:
 80067e0:	b538      	push	{r3, r4, r5, lr}
 80067e2:	4d07      	ldr	r5, [pc, #28]	; (8006800 <_read_r+0x20>)
 80067e4:	4604      	mov	r4, r0
 80067e6:	4608      	mov	r0, r1
 80067e8:	4611      	mov	r1, r2
 80067ea:	2200      	movs	r2, #0
 80067ec:	602a      	str	r2, [r5, #0]
 80067ee:	461a      	mov	r2, r3
 80067f0:	f7fb fb02 	bl	8001df8 <_read>
 80067f4:	1c43      	adds	r3, r0, #1
 80067f6:	d102      	bne.n	80067fe <_read_r+0x1e>
 80067f8:	682b      	ldr	r3, [r5, #0]
 80067fa:	b103      	cbz	r3, 80067fe <_read_r+0x1e>
 80067fc:	6023      	str	r3, [r4, #0]
 80067fe:	bd38      	pop	{r3, r4, r5, pc}
 8006800:	20001728 	.word	0x20001728

08006804 <_sbrk_r>:
 8006804:	b538      	push	{r3, r4, r5, lr}
 8006806:	4d06      	ldr	r5, [pc, #24]	; (8006820 <_sbrk_r+0x1c>)
 8006808:	2300      	movs	r3, #0
 800680a:	4604      	mov	r4, r0
 800680c:	4608      	mov	r0, r1
 800680e:	602b      	str	r3, [r5, #0]
 8006810:	f7fb fb1a 	bl	8001e48 <_sbrk>
 8006814:	1c43      	adds	r3, r0, #1
 8006816:	d102      	bne.n	800681e <_sbrk_r+0x1a>
 8006818:	682b      	ldr	r3, [r5, #0]
 800681a:	b103      	cbz	r3, 800681e <_sbrk_r+0x1a>
 800681c:	6023      	str	r3, [r4, #0]
 800681e:	bd38      	pop	{r3, r4, r5, pc}
 8006820:	20001728 	.word	0x20001728

08006824 <_write_r>:
 8006824:	b538      	push	{r3, r4, r5, lr}
 8006826:	4d07      	ldr	r5, [pc, #28]	; (8006844 <_write_r+0x20>)
 8006828:	4604      	mov	r4, r0
 800682a:	4608      	mov	r0, r1
 800682c:	4611      	mov	r1, r2
 800682e:	2200      	movs	r2, #0
 8006830:	602a      	str	r2, [r5, #0]
 8006832:	461a      	mov	r2, r3
 8006834:	f7fb faee 	bl	8001e14 <_write>
 8006838:	1c43      	adds	r3, r0, #1
 800683a:	d102      	bne.n	8006842 <_write_r+0x1e>
 800683c:	682b      	ldr	r3, [r5, #0]
 800683e:	b103      	cbz	r3, 8006842 <_write_r+0x1e>
 8006840:	6023      	str	r3, [r4, #0]
 8006842:	bd38      	pop	{r3, r4, r5, pc}
 8006844:	20001728 	.word	0x20001728

08006848 <__errno>:
 8006848:	4b01      	ldr	r3, [pc, #4]	; (8006850 <__errno+0x8>)
 800684a:	6818      	ldr	r0, [r3, #0]
 800684c:	4770      	bx	lr
 800684e:	bf00      	nop
 8006850:	20000100 	.word	0x20000100

08006854 <__libc_init_array>:
 8006854:	b570      	push	{r4, r5, r6, lr}
 8006856:	4d0d      	ldr	r5, [pc, #52]	; (800688c <__libc_init_array+0x38>)
 8006858:	4c0d      	ldr	r4, [pc, #52]	; (8006890 <__libc_init_array+0x3c>)
 800685a:	1b64      	subs	r4, r4, r5
 800685c:	10a4      	asrs	r4, r4, #2
 800685e:	2600      	movs	r6, #0
 8006860:	42a6      	cmp	r6, r4
 8006862:	d109      	bne.n	8006878 <__libc_init_array+0x24>
 8006864:	4d0b      	ldr	r5, [pc, #44]	; (8006894 <__libc_init_array+0x40>)
 8006866:	4c0c      	ldr	r4, [pc, #48]	; (8006898 <__libc_init_array+0x44>)
 8006868:	f001 ffca 	bl	8008800 <_init>
 800686c:	1b64      	subs	r4, r4, r5
 800686e:	10a4      	asrs	r4, r4, #2
 8006870:	2600      	movs	r6, #0
 8006872:	42a6      	cmp	r6, r4
 8006874:	d105      	bne.n	8006882 <__libc_init_array+0x2e>
 8006876:	bd70      	pop	{r4, r5, r6, pc}
 8006878:	f855 3b04 	ldr.w	r3, [r5], #4
 800687c:	4798      	blx	r3
 800687e:	3601      	adds	r6, #1
 8006880:	e7ee      	b.n	8006860 <__libc_init_array+0xc>
 8006882:	f855 3b04 	ldr.w	r3, [r5], #4
 8006886:	4798      	blx	r3
 8006888:	3601      	adds	r6, #1
 800688a:	e7f2      	b.n	8006872 <__libc_init_array+0x1e>
 800688c:	08008d6c 	.word	0x08008d6c
 8006890:	08008d6c 	.word	0x08008d6c
 8006894:	08008d6c 	.word	0x08008d6c
 8006898:	08008d70 	.word	0x08008d70

0800689c <__retarget_lock_init_recursive>:
 800689c:	4770      	bx	lr

0800689e <__retarget_lock_acquire_recursive>:
 800689e:	4770      	bx	lr

080068a0 <__retarget_lock_release_recursive>:
 80068a0:	4770      	bx	lr

080068a2 <strcpy>:
 80068a2:	4603      	mov	r3, r0
 80068a4:	f811 2b01 	ldrb.w	r2, [r1], #1
 80068a8:	f803 2b01 	strb.w	r2, [r3], #1
 80068ac:	2a00      	cmp	r2, #0
 80068ae:	d1f9      	bne.n	80068a4 <strcpy+0x2>
 80068b0:	4770      	bx	lr

080068b2 <memcpy>:
 80068b2:	440a      	add	r2, r1
 80068b4:	4291      	cmp	r1, r2
 80068b6:	f100 33ff 	add.w	r3, r0, #4294967295
 80068ba:	d100      	bne.n	80068be <memcpy+0xc>
 80068bc:	4770      	bx	lr
 80068be:	b510      	push	{r4, lr}
 80068c0:	f811 4b01 	ldrb.w	r4, [r1], #1
 80068c4:	f803 4f01 	strb.w	r4, [r3, #1]!
 80068c8:	4291      	cmp	r1, r2
 80068ca:	d1f9      	bne.n	80068c0 <memcpy+0xe>
 80068cc:	bd10      	pop	{r4, pc}

080068ce <quorem>:
 80068ce:	e92d 4ff7 	stmdb	sp!, {r0, r1, r2, r4, r5, r6, r7, r8, r9, sl, fp, lr}
 80068d2:	6903      	ldr	r3, [r0, #16]
 80068d4:	690c      	ldr	r4, [r1, #16]
 80068d6:	42a3      	cmp	r3, r4
 80068d8:	4607      	mov	r7, r0
 80068da:	db7e      	blt.n	80069da <quorem+0x10c>
 80068dc:	3c01      	subs	r4, #1
 80068de:	f101 0814 	add.w	r8, r1, #20
 80068e2:	f100 0514 	add.w	r5, r0, #20
 80068e6:	eb05 0384 	add.w	r3, r5, r4, lsl #2
 80068ea:	9301      	str	r3, [sp, #4]
 80068ec:	f858 3024 	ldr.w	r3, [r8, r4, lsl #2]
 80068f0:	f855 2024 	ldr.w	r2, [r5, r4, lsl #2]
 80068f4:	3301      	adds	r3, #1
 80068f6:	429a      	cmp	r2, r3
 80068f8:	ea4f 0b84 	mov.w	fp, r4, lsl #2
 80068fc:	eb08 0984 	add.w	r9, r8, r4, lsl #2
 8006900:	fbb2 f6f3 	udiv	r6, r2, r3
 8006904:	d331      	bcc.n	800696a <quorem+0x9c>
 8006906:	f04f 0e00 	mov.w	lr, #0
 800690a:	4640      	mov	r0, r8
 800690c:	46ac      	mov	ip, r5
 800690e:	46f2      	mov	sl, lr
 8006910:	f850 2b04 	ldr.w	r2, [r0], #4
 8006914:	b293      	uxth	r3, r2
 8006916:	fb06 e303 	mla	r3, r6, r3, lr
 800691a:	ea4f 4e12 	mov.w	lr, r2, lsr #16
 800691e:	0c1a      	lsrs	r2, r3, #16
 8006920:	b29b      	uxth	r3, r3
 8006922:	ebaa 0303 	sub.w	r3, sl, r3
 8006926:	f8dc a000 	ldr.w	sl, [ip]
 800692a:	fa13 f38a 	uxtah	r3, r3, sl
 800692e:	fb06 220e 	mla	r2, r6, lr, r2
 8006932:	9300      	str	r3, [sp, #0]
 8006934:	9b00      	ldr	r3, [sp, #0]
 8006936:	ea4f 4e12 	mov.w	lr, r2, lsr #16
 800693a:	b292      	uxth	r2, r2
 800693c:	ebc2 421a 	rsb	r2, r2, sl, lsr #16
 8006940:	eb02 4223 	add.w	r2, r2, r3, asr #16
 8006944:	f8bd 3000 	ldrh.w	r3, [sp]
 8006948:	4581      	cmp	r9, r0
 800694a:	ea43 4302 	orr.w	r3, r3, r2, lsl #16
 800694e:	f84c 3b04 	str.w	r3, [ip], #4
 8006952:	ea4f 4a22 	mov.w	sl, r2, asr #16
 8006956:	d2db      	bcs.n	8006910 <quorem+0x42>
 8006958:	f855 300b 	ldr.w	r3, [r5, fp]
 800695c:	b92b      	cbnz	r3, 800696a <quorem+0x9c>
 800695e:	9b01      	ldr	r3, [sp, #4]
 8006960:	3b04      	subs	r3, #4
 8006962:	429d      	cmp	r5, r3
 8006964:	461a      	mov	r2, r3
 8006966:	d32c      	bcc.n	80069c2 <quorem+0xf4>
 8006968:	613c      	str	r4, [r7, #16]
 800696a:	4638      	mov	r0, r7
 800696c:	f001 f8fa 	bl	8007b64 <__mcmp>
 8006970:	2800      	cmp	r0, #0
 8006972:	db22      	blt.n	80069ba <quorem+0xec>
 8006974:	3601      	adds	r6, #1
 8006976:	4629      	mov	r1, r5
 8006978:	2000      	movs	r0, #0
 800697a:	f858 2b04 	ldr.w	r2, [r8], #4
 800697e:	f8d1 c000 	ldr.w	ip, [r1]
 8006982:	b293      	uxth	r3, r2
 8006984:	1ac3      	subs	r3, r0, r3
 8006986:	0c12      	lsrs	r2, r2, #16
 8006988:	fa13 f38c 	uxtah	r3, r3, ip
 800698c:	ebc2 421c 	rsb	r2, r2, ip, lsr #16
 8006990:	eb02 4223 	add.w	r2, r2, r3, asr #16
 8006994:	b29b      	uxth	r3, r3
 8006996:	ea43 4302 	orr.w	r3, r3, r2, lsl #16
 800699a:	45c1      	cmp	r9, r8
 800699c:	f841 3b04 	str.w	r3, [r1], #4
 80069a0:	ea4f 4022 	mov.w	r0, r2, asr #16
 80069a4:	d2e9      	bcs.n	800697a <quorem+0xac>
 80069a6:	f855 2024 	ldr.w	r2, [r5, r4, lsl #2]
 80069aa:	eb05 0384 	add.w	r3, r5, r4, lsl #2
 80069ae:	b922      	cbnz	r2, 80069ba <quorem+0xec>
 80069b0:	3b04      	subs	r3, #4
 80069b2:	429d      	cmp	r5, r3
 80069b4:	461a      	mov	r2, r3
 80069b6:	d30a      	bcc.n	80069ce <quorem+0x100>
 80069b8:	613c      	str	r4, [r7, #16]
 80069ba:	4630      	mov	r0, r6
 80069bc:	b003      	add	sp, #12
 80069be:	e8bd 8ff0 	ldmia.w	sp!, {r4, r5, r6, r7, r8, r9, sl, fp, pc}
 80069c2:	6812      	ldr	r2, [r2, #0]
 80069c4:	3b04      	subs	r3, #4
 80069c6:	2a00      	cmp	r2, #0
 80069c8:	d1ce      	bne.n	8006968 <quorem+0x9a>
 80069ca:	3c01      	subs	r4, #1
 80069cc:	e7c9      	b.n	8006962 <quorem+0x94>
 80069ce:	6812      	ldr	r2, [r2, #0]
 80069d0:	3b04      	subs	r3, #4
 80069d2:	2a00      	cmp	r2, #0
 80069d4:	d1f0      	bne.n	80069b8 <quorem+0xea>
 80069d6:	3c01      	subs	r4, #1
 80069d8:	e7eb      	b.n	80069b2 <quorem+0xe4>
 80069da:	2000      	movs	r0, #0
 80069dc:	e7ee      	b.n	80069bc <quorem+0xee>
	...

080069e0 <_dtoa_r>:
 80069e0:	e92d 4ff0 	stmdb	sp!, {r4, r5, r6, r7, r8, r9, sl, fp, lr}
 80069e4:	ed2d 8b04 	vpush	{d8-d9}
 80069e8:	69c5      	ldr	r5, [r0, #28]
 80069ea:	b093      	sub	sp, #76	; 0x4c
 80069ec:	ed8d 0b02 	vstr	d0, [sp, #8]
 80069f0:	ec57 6b10 	vmov	r6, r7, d0
 80069f4:	f8dd 8080 	ldr.w	r8, [sp, #128]	; 0x80
 80069f8:	9107      	str	r1, [sp, #28]
 80069fa:	4604      	mov	r4, r0
 80069fc:	920a      	str	r2, [sp, #40]	; 0x28
 80069fe:	930d      	str	r3, [sp, #52]	; 0x34
 8006a00:	b975      	cbnz	r5, 8006a20 <_dtoa_r+0x40>
 8006a02:	2010      	movs	r0, #16
 8006a04:	f000 fe2a 	bl	800765c <malloc>
 8006a08:	4602      	mov	r2, r0
 8006a0a:	61e0      	str	r0, [r4, #28]
 8006a0c:	b920      	cbnz	r0, 8006a18 <_dtoa_r+0x38>
 8006a0e:	4bae      	ldr	r3, [pc, #696]	; (8006cc8 <_dtoa_r+0x2e8>)
 8006a10:	21ef      	movs	r1, #239	; 0xef
 8006a12:	48ae      	ldr	r0, [pc, #696]	; (8006ccc <_dtoa_r+0x2ec>)
 8006a14:	f001 fbc6 	bl	80081a4 <__assert_func>
 8006a18:	e9c0 5501 	strd	r5, r5, [r0, #4]
 8006a1c:	6005      	str	r5, [r0, #0]
 8006a1e:	60c5      	str	r5, [r0, #12]
 8006a20:	69e3      	ldr	r3, [r4, #28]
 8006a22:	6819      	ldr	r1, [r3, #0]
 8006a24:	b151      	cbz	r1, 8006a3c <_dtoa_r+0x5c>
 8006a26:	685a      	ldr	r2, [r3, #4]
 8006a28:	604a      	str	r2, [r1, #4]
 8006a2a:	2301      	movs	r3, #1
 8006a2c:	4093      	lsls	r3, r2
 8006a2e:	608b      	str	r3, [r1, #8]
 8006a30:	4620      	mov	r0, r4
 8006a32:	f000 fe5b 	bl	80076ec <_Bfree>
 8006a36:	69e3      	ldr	r3, [r4, #28]
 8006a38:	2200      	movs	r2, #0
 8006a3a:	601a      	str	r2, [r3, #0]
 8006a3c:	1e3b      	subs	r3, r7, #0
 8006a3e:	bfbb      	ittet	lt
 8006a40:	f023 4300 	biclt.w	r3, r3, #2147483648	; 0x80000000
 8006a44:	9303      	strlt	r3, [sp, #12]
 8006a46:	2300      	movge	r3, #0
 8006a48:	2201      	movlt	r2, #1
 8006a4a:	bfac      	ite	ge
 8006a4c:	f8c8 3000 	strge.w	r3, [r8]
 8006a50:	f8c8 2000 	strlt.w	r2, [r8]
 8006a54:	4b9e      	ldr	r3, [pc, #632]	; (8006cd0 <_dtoa_r+0x2f0>)
 8006a56:	f8dd 800c 	ldr.w	r8, [sp, #12]
 8006a5a:	ea33 0308 	bics.w	r3, r3, r8
 8006a5e:	d11b      	bne.n	8006a98 <_dtoa_r+0xb8>
 8006a60:	9a0d      	ldr	r2, [sp, #52]	; 0x34
 8006a62:	f242 730f 	movw	r3, #9999	; 0x270f
 8006a66:	6013      	str	r3, [r2, #0]
 8006a68:	f3c8 0313 	ubfx	r3, r8, #0, #20
 8006a6c:	4333      	orrs	r3, r6
 8006a6e:	f000 8593 	beq.w	8007598 <_dtoa_r+0xbb8>
 8006a72:	9b21      	ldr	r3, [sp, #132]	; 0x84
 8006a74:	b963      	cbnz	r3, 8006a90 <_dtoa_r+0xb0>
 8006a76:	4b97      	ldr	r3, [pc, #604]	; (8006cd4 <_dtoa_r+0x2f4>)
 8006a78:	e027      	b.n	8006aca <_dtoa_r+0xea>
 8006a7a:	4b97      	ldr	r3, [pc, #604]	; (8006cd8 <_dtoa_r+0x2f8>)
 8006a7c:	9300      	str	r3, [sp, #0]
 8006a7e:	3308      	adds	r3, #8
 8006a80:	9a21      	ldr	r2, [sp, #132]	; 0x84
 8006a82:	6013      	str	r3, [r2, #0]
 8006a84:	9800      	ldr	r0, [sp, #0]
 8006a86:	b013      	add	sp, #76	; 0x4c
 8006a88:	ecbd 8b04 	vpop	{d8-d9}
 8006a8c:	e8bd 8ff0 	ldmia.w	sp!, {r4, r5, r6, r7, r8, r9, sl, fp, pc}
 8006a90:	4b90      	ldr	r3, [pc, #576]	; (8006cd4 <_dtoa_r+0x2f4>)
 8006a92:	9300      	str	r3, [sp, #0]
 8006a94:	3303      	adds	r3, #3
 8006a96:	e7f3      	b.n	8006a80 <_dtoa_r+0xa0>
 8006a98:	ed9d 7b02 	vldr	d7, [sp, #8]
 8006a9c:	2200      	movs	r2, #0
 8006a9e:	ec51 0b17 	vmov	r0, r1, d7
 8006aa2:	eeb0 8a47 	vmov.f32	s16, s14
 8006aa6:	eef0 8a67 	vmov.f32	s17, s15
 8006aaa:	2300      	movs	r3, #0
 8006aac:	f7fa f824 	bl	8000af8 <__aeabi_dcmpeq>
 8006ab0:	4681      	mov	r9, r0
 8006ab2:	b160      	cbz	r0, 8006ace <_dtoa_r+0xee>
 8006ab4:	9a0d      	ldr	r2, [sp, #52]	; 0x34
 8006ab6:	2301      	movs	r3, #1
 8006ab8:	6013      	str	r3, [r2, #0]
 8006aba:	9b21      	ldr	r3, [sp, #132]	; 0x84
 8006abc:	2b00      	cmp	r3, #0
 8006abe:	f000 8568 	beq.w	8007592 <_dtoa_r+0xbb2>
 8006ac2:	4b86      	ldr	r3, [pc, #536]	; (8006cdc <_dtoa_r+0x2fc>)
 8006ac4:	9a21      	ldr	r2, [sp, #132]	; 0x84
 8006ac6:	6013      	str	r3, [r2, #0]
 8006ac8:	3b01      	subs	r3, #1
 8006aca:	9300      	str	r3, [sp, #0]
 8006acc:	e7da      	b.n	8006a84 <_dtoa_r+0xa4>
 8006ace:	aa10      	add	r2, sp, #64	; 0x40
 8006ad0:	a911      	add	r1, sp, #68	; 0x44
 8006ad2:	4620      	mov	r0, r4
 8006ad4:	eeb0 0a48 	vmov.f32	s0, s16
 8006ad8:	eef0 0a68 	vmov.f32	s1, s17
 8006adc:	f001 f8e8 	bl	8007cb0 <__d2b>
 8006ae0:	f3c8 550a 	ubfx	r5, r8, #20, #11
 8006ae4:	4682      	mov	sl, r0
 8006ae6:	2d00      	cmp	r5, #0
 8006ae8:	d07f      	beq.n	8006bea <_dtoa_r+0x20a>
 8006aea:	ee18 3a90 	vmov	r3, s17
 8006aee:	f3c3 0313 	ubfx	r3, r3, #0, #20
 8006af2:	f043 537f 	orr.w	r3, r3, #1069547520	; 0x3fc00000
 8006af6:	ec51 0b18 	vmov	r0, r1, d8
 8006afa:	f443 1340 	orr.w	r3, r3, #3145728	; 0x300000
 8006afe:	f2a5 35ff 	subw	r5, r5, #1023	; 0x3ff
 8006b02:	f8cd 9038 	str.w	r9, [sp, #56]	; 0x38
 8006b06:	4619      	mov	r1, r3
 8006b08:	2200      	movs	r2, #0
 8006b0a:	4b75      	ldr	r3, [pc, #468]	; (8006ce0 <_dtoa_r+0x300>)
 8006b0c:	f7f9 fbd4 	bl	80002b8 <__aeabi_dsub>
 8006b10:	a367      	add	r3, pc, #412	; (adr r3, 8006cb0 <_dtoa_r+0x2d0>)
 8006b12:	e9d3 2300 	ldrd	r2, r3, [r3]
 8006b16:	f7f9 fd87 	bl	8000628 <__aeabi_dmul>
 8006b1a:	a367      	add	r3, pc, #412	; (adr r3, 8006cb8 <_dtoa_r+0x2d8>)
 8006b1c:	e9d3 2300 	ldrd	r2, r3, [r3]
 8006b20:	f7f9 fbcc 	bl	80002bc <__adddf3>
 8006b24:	4606      	mov	r6, r0
 8006b26:	4628      	mov	r0, r5
 8006b28:	460f      	mov	r7, r1
 8006b2a:	f7f9 fd13 	bl	8000554 <__aeabi_i2d>
 8006b2e:	a364      	add	r3, pc, #400	; (adr r3, 8006cc0 <_dtoa_r+0x2e0>)
 8006b30:	e9d3 2300 	ldrd	r2, r3, [r3]
 8006b34:	f7f9 fd78 	bl	8000628 <__aeabi_dmul>
 8006b38:	4602      	mov	r2, r0
 8006b3a:	460b      	mov	r3, r1
 8006b3c:	4630      	mov	r0, r6
 8006b3e:	4639      	mov	r1, r7
 8006b40:	f7f9 fbbc 	bl	80002bc <__adddf3>
 8006b44:	4606      	mov	r6, r0
 8006b46:	460f      	mov	r7, r1
 8006b48:	f7fa f81e 	bl	8000b88 <__aeabi_d2iz>
 8006b4c:	2200      	movs	r2, #0
 8006b4e:	4683      	mov	fp, r0
 8006b50:	2300      	movs	r3, #0
 8006b52:	4630      	mov	r0, r6
 8006b54:	4639      	mov	r1, r7
 8006b56:	f7f9 ffd9 	bl	8000b0c <__aeabi_dcmplt>
 8006b5a:	b148      	cbz	r0, 8006b70 <_dtoa_r+0x190>
 8006b5c:	4658      	mov	r0, fp
 8006b5e:	f7f9 fcf9 	bl	8000554 <__aeabi_i2d>
 8006b62:	4632      	mov	r2, r6
 8006b64:	463b      	mov	r3, r7
 8006b66:	f7f9 ffc7 	bl	8000af8 <__aeabi_dcmpeq>
 8006b6a:	b908      	cbnz	r0, 8006b70 <_dtoa_r+0x190>
 8006b6c:	f10b 3bff 	add.w	fp, fp, #4294967295
 8006b70:	f1bb 0f16 	cmp.w	fp, #22
 8006b74:	d857      	bhi.n	8006c26 <_dtoa_r+0x246>
 8006b76:	4b5b      	ldr	r3, [pc, #364]	; (8006ce4 <_dtoa_r+0x304>)
 8006b78:	eb03 03cb 	add.w	r3, r3, fp, lsl #3
 8006b7c:	e9d3 2300 	ldrd	r2, r3, [r3]
 8006b80:	ec51 0b18 	vmov	r0, r1, d8
 8006b84:	f7f9 ffc2 	bl	8000b0c <__aeabi_dcmplt>
 8006b88:	2800      	cmp	r0, #0
 8006b8a:	d04e      	beq.n	8006c2a <_dtoa_r+0x24a>
 8006b8c:	f10b 3bff 	add.w	fp, fp, #4294967295
 8006b90:	2300      	movs	r3, #0
 8006b92:	930c      	str	r3, [sp, #48]	; 0x30
 8006b94:	9b10      	ldr	r3, [sp, #64]	; 0x40
 8006b96:	1b5b      	subs	r3, r3, r5
 8006b98:	1e5a      	subs	r2, r3, #1
 8006b9a:	bf45      	ittet	mi
 8006b9c:	f1c3 0301 	rsbmi	r3, r3, #1
 8006ba0:	9305      	strmi	r3, [sp, #20]
 8006ba2:	2300      	movpl	r3, #0
 8006ba4:	2300      	movmi	r3, #0
 8006ba6:	9206      	str	r2, [sp, #24]
 8006ba8:	bf54      	ite	pl
 8006baa:	9305      	strpl	r3, [sp, #20]
 8006bac:	9306      	strmi	r3, [sp, #24]
 8006bae:	f1bb 0f00 	cmp.w	fp, #0
 8006bb2:	db3c      	blt.n	8006c2e <_dtoa_r+0x24e>
 8006bb4:	9b06      	ldr	r3, [sp, #24]
 8006bb6:	f8cd b02c 	str.w	fp, [sp, #44]	; 0x2c
 8006bba:	445b      	add	r3, fp
 8006bbc:	9306      	str	r3, [sp, #24]
 8006bbe:	2300      	movs	r3, #0
 8006bc0:	9308      	str	r3, [sp, #32]
 8006bc2:	9b07      	ldr	r3, [sp, #28]
 8006bc4:	2b09      	cmp	r3, #9
 8006bc6:	d868      	bhi.n	8006c9a <_dtoa_r+0x2ba>
 8006bc8:	2b05      	cmp	r3, #5
 8006bca:	bfc4      	itt	gt
 8006bcc:	3b04      	subgt	r3, #4
 8006bce:	9307      	strgt	r3, [sp, #28]
 8006bd0:	9b07      	ldr	r3, [sp, #28]
 8006bd2:	f1a3 0302 	sub.w	r3, r3, #2
 8006bd6:	bfcc      	ite	gt
 8006bd8:	2500      	movgt	r5, #0
 8006bda:	2501      	movle	r5, #1
 8006bdc:	2b03      	cmp	r3, #3
 8006bde:	f200 8085 	bhi.w	8006cec <_dtoa_r+0x30c>
 8006be2:	e8df f003 	tbb	[pc, r3]
 8006be6:	3b2e      	.short	0x3b2e
 8006be8:	5839      	.short	0x5839
 8006bea:	e9dd 5310 	ldrd	r5, r3, [sp, #64]	; 0x40
 8006bee:	441d      	add	r5, r3
 8006bf0:	f205 4332 	addw	r3, r5, #1074	; 0x432
 8006bf4:	2b20      	cmp	r3, #32
 8006bf6:	bfc1      	itttt	gt
 8006bf8:	f1c3 0340 	rsbgt	r3, r3, #64	; 0x40
 8006bfc:	fa08 f803 	lslgt.w	r8, r8, r3
 8006c00:	f205 4312 	addwgt	r3, r5, #1042	; 0x412
 8006c04:	fa26 f303 	lsrgt.w	r3, r6, r3
 8006c08:	bfd6      	itet	le
 8006c0a:	f1c3 0320 	rsble	r3, r3, #32
 8006c0e:	ea48 0003 	orrgt.w	r0, r8, r3
 8006c12:	fa06 f003 	lslle.w	r0, r6, r3
 8006c16:	f7f9 fc8d 	bl	8000534 <__aeabi_ui2d>
 8006c1a:	2201      	movs	r2, #1
 8006c1c:	f1a1 73f8 	sub.w	r3, r1, #32505856	; 0x1f00000
 8006c20:	3d01      	subs	r5, #1
 8006c22:	920e      	str	r2, [sp, #56]	; 0x38
 8006c24:	e76f      	b.n	8006b06 <_dtoa_r+0x126>
 8006c26:	2301      	movs	r3, #1
 8006c28:	e7b3      	b.n	8006b92 <_dtoa_r+0x1b2>
 8006c2a:	900c      	str	r0, [sp, #48]	; 0x30
 8006c2c:	e7b2      	b.n	8006b94 <_dtoa_r+0x1b4>
 8006c2e:	9b05      	ldr	r3, [sp, #20]
 8006c30:	eba3 030b 	sub.w	r3, r3, fp
 8006c34:	9305      	str	r3, [sp, #20]
 8006c36:	f1cb 0300 	rsb	r3, fp, #0
 8006c3a:	9308      	str	r3, [sp, #32]
 8006c3c:	2300      	movs	r3, #0
 8006c3e:	930b      	str	r3, [sp, #44]	; 0x2c
 8006c40:	e7bf      	b.n	8006bc2 <_dtoa_r+0x1e2>
 8006c42:	2300      	movs	r3, #0
 8006c44:	9309      	str	r3, [sp, #36]	; 0x24
 8006c46:	9b0a      	ldr	r3, [sp, #40]	; 0x28
 8006c48:	2b00      	cmp	r3, #0
 8006c4a:	dc52      	bgt.n	8006cf2 <_dtoa_r+0x312>
 8006c4c:	2301      	movs	r3, #1
 8006c4e:	9301      	str	r3, [sp, #4]
 8006c50:	9304      	str	r3, [sp, #16]
 8006c52:	461a      	mov	r2, r3
 8006c54:	920a      	str	r2, [sp, #40]	; 0x28
 8006c56:	e00b      	b.n	8006c70 <_dtoa_r+0x290>
 8006c58:	2301      	movs	r3, #1
 8006c5a:	e7f3      	b.n	8006c44 <_dtoa_r+0x264>
 8006c5c:	2300      	movs	r3, #0
 8006c5e:	9309      	str	r3, [sp, #36]	; 0x24
 8006c60:	9b0a      	ldr	r3, [sp, #40]	; 0x28
 8006c62:	445b      	add	r3, fp
 8006c64:	9301      	str	r3, [sp, #4]
 8006c66:	3301      	adds	r3, #1
 8006c68:	2b01      	cmp	r3, #1
 8006c6a:	9304      	str	r3, [sp, #16]
 8006c6c:	bfb8      	it	lt
 8006c6e:	2301      	movlt	r3, #1
 8006c70:	69e0      	ldr	r0, [r4, #28]
 8006c72:	2100      	movs	r1, #0
 8006c74:	2204      	movs	r2, #4
 8006c76:	f102 0614 	add.w	r6, r2, #20
 8006c7a:	429e      	cmp	r6, r3
 8006c7c:	d93d      	bls.n	8006cfa <_dtoa_r+0x31a>
 8006c7e:	6041      	str	r1, [r0, #4]
 8006c80:	4620      	mov	r0, r4
 8006c82:	f000 fcf3 	bl	800766c <_Balloc>
 8006c86:	9000      	str	r0, [sp, #0]
 8006c88:	2800      	cmp	r0, #0
 8006c8a:	d139      	bne.n	8006d00 <_dtoa_r+0x320>
 8006c8c:	4b16      	ldr	r3, [pc, #88]	; (8006ce8 <_dtoa_r+0x308>)
 8006c8e:	4602      	mov	r2, r0
 8006c90:	f240 11af 	movw	r1, #431	; 0x1af
 8006c94:	e6bd      	b.n	8006a12 <_dtoa_r+0x32>
 8006c96:	2301      	movs	r3, #1
 8006c98:	e7e1      	b.n	8006c5e <_dtoa_r+0x27e>
 8006c9a:	2501      	movs	r5, #1
 8006c9c:	2300      	movs	r3, #0
 8006c9e:	9307      	str	r3, [sp, #28]
 8006ca0:	9509      	str	r5, [sp, #36]	; 0x24
 8006ca2:	f04f 33ff 	mov.w	r3, #4294967295
 8006ca6:	9301      	str	r3, [sp, #4]
 8006ca8:	9304      	str	r3, [sp, #16]
 8006caa:	2200      	movs	r2, #0
 8006cac:	2312      	movs	r3, #18
 8006cae:	e7d1      	b.n	8006c54 <_dtoa_r+0x274>
 8006cb0:	636f4361 	.word	0x636f4361
 8006cb4:	3fd287a7 	.word	0x3fd287a7
 8006cb8:	8b60c8b3 	.word	0x8b60c8b3
 8006cbc:	3fc68a28 	.word	0x3fc68a28
 8006cc0:	509f79fb 	.word	0x509f79fb
 8006cc4:	3fd34413 	.word	0x3fd34413
 8006cc8:	08008a36 	.word	0x08008a36
 8006ccc:	08008a4d 	.word	0x08008a4d
 8006cd0:	7ff00000 	.word	0x7ff00000
 8006cd4:	08008a32 	.word	0x08008a32
 8006cd8:	08008a29 	.word	0x08008a29
 8006cdc:	08008a06 	.word	0x08008a06
 8006ce0:	3ff80000 	.word	0x3ff80000
 8006ce4:	08008b38 	.word	0x08008b38
 8006ce8:	08008aa5 	.word	0x08008aa5
 8006cec:	2301      	movs	r3, #1
 8006cee:	9309      	str	r3, [sp, #36]	; 0x24
 8006cf0:	e7d7      	b.n	8006ca2 <_dtoa_r+0x2c2>
 8006cf2:	9b0a      	ldr	r3, [sp, #40]	; 0x28
 8006cf4:	9301      	str	r3, [sp, #4]
 8006cf6:	9304      	str	r3, [sp, #16]
 8006cf8:	e7ba      	b.n	8006c70 <_dtoa_r+0x290>
 8006cfa:	3101      	adds	r1, #1
 8006cfc:	0052      	lsls	r2, r2, #1
 8006cfe:	e7ba      	b.n	8006c76 <_dtoa_r+0x296>
 8006d00:	69e3      	ldr	r3, [r4, #28]
 8006d02:	9a00      	ldr	r2, [sp, #0]
 8006d04:	601a      	str	r2, [r3, #0]
 8006d06:	9b04      	ldr	r3, [sp, #16]
 8006d08:	2b0e      	cmp	r3, #14
 8006d0a:	f200 80a8 	bhi.w	8006e5e <_dtoa_r+0x47e>
 8006d0e:	2d00      	cmp	r5, #0
 8006d10:	f000 80a5 	beq.w	8006e5e <_dtoa_r+0x47e>
 8006d14:	f1bb 0f00 	cmp.w	fp, #0
 8006d18:	dd38      	ble.n	8006d8c <_dtoa_r+0x3ac>
 8006d1a:	4bc0      	ldr	r3, [pc, #768]	; (800701c <_dtoa_r+0x63c>)
 8006d1c:	f00b 020f 	and.w	r2, fp, #15
 8006d20:	eb03 03c2 	add.w	r3, r3, r2, lsl #3
 8006d24:	f41b 7f80 	tst.w	fp, #256	; 0x100
 8006d28:	e9d3 6700 	ldrd	r6, r7, [r3]
 8006d2c:	ea4f 182b 	mov.w	r8, fp, asr #4
 8006d30:	d019      	beq.n	8006d66 <_dtoa_r+0x386>
 8006d32:	4bbb      	ldr	r3, [pc, #748]	; (8007020 <_dtoa_r+0x640>)
 8006d34:	ec51 0b18 	vmov	r0, r1, d8
 8006d38:	e9d3 2308 	ldrd	r2, r3, [r3, #32]
 8006d3c:	f7f9 fd9e 	bl	800087c <__aeabi_ddiv>
 8006d40:	e9cd 0102 	strd	r0, r1, [sp, #8]
 8006d44:	f008 080f 	and.w	r8, r8, #15
 8006d48:	2503      	movs	r5, #3
 8006d4a:	f8df 92d4 	ldr.w	r9, [pc, #724]	; 8007020 <_dtoa_r+0x640>
 8006d4e:	f1b8 0f00 	cmp.w	r8, #0
 8006d52:	d10a      	bne.n	8006d6a <_dtoa_r+0x38a>
 8006d54:	e9dd 0102 	ldrd	r0, r1, [sp, #8]
 8006d58:	4632      	mov	r2, r6
 8006d5a:	463b      	mov	r3, r7
 8006d5c:	f7f9 fd8e 	bl	800087c <__aeabi_ddiv>
 8006d60:	e9cd 0102 	strd	r0, r1, [sp, #8]
 8006d64:	e02b      	b.n	8006dbe <_dtoa_r+0x3de>
 8006d66:	2502      	movs	r5, #2
 8006d68:	e7ef      	b.n	8006d4a <_dtoa_r+0x36a>
 8006d6a:	f018 0f01 	tst.w	r8, #1
 8006d6e:	d008      	beq.n	8006d82 <_dtoa_r+0x3a2>
 8006d70:	4630      	mov	r0, r6
 8006d72:	4639      	mov	r1, r7
 8006d74:	e9d9 2300 	ldrd	r2, r3, [r9]
 8006d78:	f7f9 fc56 	bl	8000628 <__aeabi_dmul>
 8006d7c:	3501      	adds	r5, #1
 8006d7e:	4606      	mov	r6, r0
 8006d80:	460f      	mov	r7, r1
 8006d82:	ea4f 0868 	mov.w	r8, r8, asr #1
 8006d86:	f109 0908 	add.w	r9, r9, #8
 8006d8a:	e7e0      	b.n	8006d4e <_dtoa_r+0x36e>
 8006d8c:	f000 809f 	beq.w	8006ece <_dtoa_r+0x4ee>
 8006d90:	f1cb 0600 	rsb	r6, fp, #0
 8006d94:	4ba1      	ldr	r3, [pc, #644]	; (800701c <_dtoa_r+0x63c>)
 8006d96:	4fa2      	ldr	r7, [pc, #648]	; (8007020 <_dtoa_r+0x640>)
 8006d98:	f006 020f 	and.w	r2, r6, #15
 8006d9c:	eb03 03c2 	add.w	r3, r3, r2, lsl #3
 8006da0:	e9d3 2300 	ldrd	r2, r3, [r3]
 8006da4:	ec51 0b18 	vmov	r0, r1, d8
 8006da8:	f7f9 fc3e 	bl	8000628 <__aeabi_dmul>
 8006dac:	e9cd 0102 	strd	r0, r1, [sp, #8]
 8006db0:	1136      	asrs	r6, r6, #4
 8006db2:	2300      	movs	r3, #0
 8006db4:	2502      	movs	r5, #2
 8006db6:	2e00      	cmp	r6, #0
 8006db8:	d17e      	bne.n	8006eb8 <_dtoa_r+0x4d8>
 8006dba:	2b00      	cmp	r3, #0
 8006dbc:	d1d0      	bne.n	8006d60 <_dtoa_r+0x380>
 8006dbe:	9b0c      	ldr	r3, [sp, #48]	; 0x30
 8006dc0:	e9dd 8902 	ldrd	r8, r9, [sp, #8]
 8006dc4:	2b00      	cmp	r3, #0
 8006dc6:	f000 8084 	beq.w	8006ed2 <_dtoa_r+0x4f2>
 8006dca:	4b96      	ldr	r3, [pc, #600]	; (8007024 <_dtoa_r+0x644>)
 8006dcc:	2200      	movs	r2, #0
 8006dce:	4640      	mov	r0, r8
 8006dd0:	4649      	mov	r1, r9
 8006dd2:	f7f9 fe9b 	bl	8000b0c <__aeabi_dcmplt>
 8006dd6:	2800      	cmp	r0, #0
 8006dd8:	d07b      	beq.n	8006ed2 <_dtoa_r+0x4f2>
 8006dda:	9b04      	ldr	r3, [sp, #16]
 8006ddc:	2b00      	cmp	r3, #0
 8006dde:	d078      	beq.n	8006ed2 <_dtoa_r+0x4f2>
 8006de0:	9b01      	ldr	r3, [sp, #4]
 8006de2:	2b00      	cmp	r3, #0
 8006de4:	dd39      	ble.n	8006e5a <_dtoa_r+0x47a>
 8006de6:	4b90      	ldr	r3, [pc, #576]	; (8007028 <_dtoa_r+0x648>)
 8006de8:	2200      	movs	r2, #0
 8006dea:	4640      	mov	r0, r8
 8006dec:	4649      	mov	r1, r9
 8006dee:	f7f9 fc1b 	bl	8000628 <__aeabi_dmul>
 8006df2:	e9cd 0102 	strd	r0, r1, [sp, #8]
 8006df6:	9e01      	ldr	r6, [sp, #4]
 8006df8:	f10b 37ff 	add.w	r7, fp, #4294967295
 8006dfc:	3501      	adds	r5, #1
 8006dfe:	e9dd 8902 	ldrd	r8, r9, [sp, #8]
 8006e02:	4628      	mov	r0, r5
 8006e04:	f7f9 fba6 	bl	8000554 <__aeabi_i2d>
 8006e08:	4642      	mov	r2, r8
 8006e0a:	464b      	mov	r3, r9
 8006e0c:	f7f9 fc0c 	bl	8000628 <__aeabi_dmul>
 8006e10:	4b86      	ldr	r3, [pc, #536]	; (800702c <_dtoa_r+0x64c>)
 8006e12:	2200      	movs	r2, #0
 8006e14:	f7f9 fa52 	bl	80002bc <__adddf3>
 8006e18:	f1a1 7350 	sub.w	r3, r1, #54525952	; 0x3400000
 8006e1c:	e9cd 0102 	strd	r0, r1, [sp, #8]
 8006e20:	9303      	str	r3, [sp, #12]
 8006e22:	2e00      	cmp	r6, #0
 8006e24:	d158      	bne.n	8006ed8 <_dtoa_r+0x4f8>
 8006e26:	4b82      	ldr	r3, [pc, #520]	; (8007030 <_dtoa_r+0x650>)
 8006e28:	2200      	movs	r2, #0
 8006e2a:	4640      	mov	r0, r8
 8006e2c:	4649      	mov	r1, r9
 8006e2e:	f7f9 fa43 	bl	80002b8 <__aeabi_dsub>
 8006e32:	e9dd 2302 	ldrd	r2, r3, [sp, #8]
 8006e36:	4680      	mov	r8, r0
 8006e38:	4689      	mov	r9, r1
 8006e3a:	f7f9 fe85 	bl	8000b48 <__aeabi_dcmpgt>
 8006e3e:	2800      	cmp	r0, #0
 8006e40:	f040 8296 	bne.w	8007370 <_dtoa_r+0x990>
 8006e44:	e9dd 2102 	ldrd	r2, r1, [sp, #8]
 8006e48:	4640      	mov	r0, r8
 8006e4a:	f101 4300 	add.w	r3, r1, #2147483648	; 0x80000000
 8006e4e:	4649      	mov	r1, r9
 8006e50:	f7f9 fe5c 	bl	8000b0c <__aeabi_dcmplt>
 8006e54:	2800      	cmp	r0, #0
 8006e56:	f040 8289 	bne.w	800736c <_dtoa_r+0x98c>
 8006e5a:	ed8d 8b02 	vstr	d8, [sp, #8]
 8006e5e:	9b11      	ldr	r3, [sp, #68]	; 0x44
 8006e60:	2b00      	cmp	r3, #0
 8006e62:	f2c0 814e 	blt.w	8007102 <_dtoa_r+0x722>
 8006e66:	f1bb 0f0e 	cmp.w	fp, #14
 8006e6a:	f300 814a 	bgt.w	8007102 <_dtoa_r+0x722>
 8006e6e:	4b6b      	ldr	r3, [pc, #428]	; (800701c <_dtoa_r+0x63c>)
 8006e70:	eb03 03cb 	add.w	r3, r3, fp, lsl #3
 8006e74:	e9d3 8900 	ldrd	r8, r9, [r3]
 8006e78:	9b0a      	ldr	r3, [sp, #40]	; 0x28
 8006e7a:	2b00      	cmp	r3, #0
 8006e7c:	f280 80dc 	bge.w	8007038 <_dtoa_r+0x658>
 8006e80:	9b04      	ldr	r3, [sp, #16]
 8006e82:	2b00      	cmp	r3, #0
 8006e84:	f300 80d8 	bgt.w	8007038 <_dtoa_r+0x658>
 8006e88:	f040 826f 	bne.w	800736a <_dtoa_r+0x98a>
 8006e8c:	4b68      	ldr	r3, [pc, #416]	; (8007030 <_dtoa_r+0x650>)
 8006e8e:	2200      	movs	r2, #0
 8006e90:	4640      	mov	r0, r8
 8006e92:	4649      	mov	r1, r9
 8006e94:	f7f9 fbc8 	bl	8000628 <__aeabi_dmul>
 8006e98:	e9dd 2302 	ldrd	r2, r3, [sp, #8]
 8006e9c:	f7f9 fe4a 	bl	8000b34 <__aeabi_dcmpge>
 8006ea0:	9e04      	ldr	r6, [sp, #16]
 8006ea2:	4637      	mov	r7, r6
 8006ea4:	2800      	cmp	r0, #0
 8006ea6:	f040 8245 	bne.w	8007334 <_dtoa_r+0x954>
 8006eaa:	9d00      	ldr	r5, [sp, #0]
 8006eac:	2331      	movs	r3, #49	; 0x31
 8006eae:	f805 3b01 	strb.w	r3, [r5], #1
 8006eb2:	f10b 0b01 	add.w	fp, fp, #1
 8006eb6:	e241      	b.n	800733c <_dtoa_r+0x95c>
 8006eb8:	07f2      	lsls	r2, r6, #31
 8006eba:	d505      	bpl.n	8006ec8 <_dtoa_r+0x4e8>
 8006ebc:	e9d7 2300 	ldrd	r2, r3, [r7]
 8006ec0:	f7f9 fbb2 	bl	8000628 <__aeabi_dmul>
 8006ec4:	3501      	adds	r5, #1
 8006ec6:	2301      	movs	r3, #1
 8006ec8:	1076      	asrs	r6, r6, #1
 8006eca:	3708      	adds	r7, #8
 8006ecc:	e773      	b.n	8006db6 <_dtoa_r+0x3d6>
 8006ece:	2502      	movs	r5, #2
 8006ed0:	e775      	b.n	8006dbe <_dtoa_r+0x3de>
 8006ed2:	9e04      	ldr	r6, [sp, #16]
 8006ed4:	465f      	mov	r7, fp
 8006ed6:	e792      	b.n	8006dfe <_dtoa_r+0x41e>
 8006ed8:	9900      	ldr	r1, [sp, #0]
 8006eda:	4b50      	ldr	r3, [pc, #320]	; (800701c <_dtoa_r+0x63c>)
 8006edc:	ed9d 7b02 	vldr	d7, [sp, #8]
 8006ee0:	4431      	add	r1, r6
 8006ee2:	9102      	str	r1, [sp, #8]
 8006ee4:	9909      	ldr	r1, [sp, #36]	; 0x24
 8006ee6:	eeb0 9a47 	vmov.f32	s18, s14
 8006eea:	eef0 9a67 	vmov.f32	s19, s15
 8006eee:	eb03 03c6 	add.w	r3, r3, r6, lsl #3
 8006ef2:	e953 2302 	ldrd	r2, r3, [r3, #-8]
 8006ef6:	2900      	cmp	r1, #0
 8006ef8:	d044      	beq.n	8006f84 <_dtoa_r+0x5a4>
 8006efa:	494e      	ldr	r1, [pc, #312]	; (8007034 <_dtoa_r+0x654>)
 8006efc:	2000      	movs	r0, #0
 8006efe:	f7f9 fcbd 	bl	800087c <__aeabi_ddiv>
 8006f02:	ec53 2b19 	vmov	r2, r3, d9
 8006f06:	f7f9 f9d7 	bl	80002b8 <__aeabi_dsub>
 8006f0a:	9d00      	ldr	r5, [sp, #0]
 8006f0c:	ec41 0b19 	vmov	d9, r0, r1
 8006f10:	4649      	mov	r1, r9
 8006f12:	4640      	mov	r0, r8
 8006f14:	f7f9 fe38 	bl	8000b88 <__aeabi_d2iz>
 8006f18:	4606      	mov	r6, r0
 8006f1a:	f7f9 fb1b 	bl	8000554 <__aeabi_i2d>
 8006f1e:	4602      	mov	r2, r0
 8006f20:	460b      	mov	r3, r1
 8006f22:	4640      	mov	r0, r8
 8006f24:	4649      	mov	r1, r9
 8006f26:	f7f9 f9c7 	bl	80002b8 <__aeabi_dsub>
 8006f2a:	3630      	adds	r6, #48	; 0x30
 8006f2c:	f805 6b01 	strb.w	r6, [r5], #1
 8006f30:	ec53 2b19 	vmov	r2, r3, d9
 8006f34:	4680      	mov	r8, r0
 8006f36:	4689      	mov	r9, r1
 8006f38:	f7f9 fde8 	bl	8000b0c <__aeabi_dcmplt>
 8006f3c:	2800      	cmp	r0, #0
 8006f3e:	d164      	bne.n	800700a <_dtoa_r+0x62a>
 8006f40:	4642      	mov	r2, r8
 8006f42:	464b      	mov	r3, r9
 8006f44:	4937      	ldr	r1, [pc, #220]	; (8007024 <_dtoa_r+0x644>)
 8006f46:	2000      	movs	r0, #0
 8006f48:	f7f9 f9b6 	bl	80002b8 <__aeabi_dsub>
 8006f4c:	ec53 2b19 	vmov	r2, r3, d9
 8006f50:	f7f9 fddc 	bl	8000b0c <__aeabi_dcmplt>
 8006f54:	2800      	cmp	r0, #0
 8006f56:	f040 80b6 	bne.w	80070c6 <_dtoa_r+0x6e6>
 8006f5a:	9b02      	ldr	r3, [sp, #8]
 8006f5c:	429d      	cmp	r5, r3
 8006f5e:	f43f af7c 	beq.w	8006e5a <_dtoa_r+0x47a>
 8006f62:	4b31      	ldr	r3, [pc, #196]	; (8007028 <_dtoa_r+0x648>)
 8006f64:	ec51 0b19 	vmov	r0, r1, d9
 8006f68:	2200      	movs	r2, #0
 8006f6a:	f7f9 fb5d 	bl	8000628 <__aeabi_dmul>
 8006f6e:	4b2e      	ldr	r3, [pc, #184]	; (8007028 <_dtoa_r+0x648>)
 8006f70:	ec41 0b19 	vmov	d9, r0, r1
 8006f74:	2200      	movs	r2, #0
 8006f76:	4640      	mov	r0, r8
 8006f78:	4649      	mov	r1, r9
 8006f7a:	f7f9 fb55 	bl	8000628 <__aeabi_dmul>
 8006f7e:	4680      	mov	r8, r0
 8006f80:	4689      	mov	r9, r1
 8006f82:	e7c5      	b.n	8006f10 <_dtoa_r+0x530>
 8006f84:	ec51 0b17 	vmov	r0, r1, d7
 8006f88:	f7f9 fb4e 	bl	8000628 <__aeabi_dmul>
 8006f8c:	9b02      	ldr	r3, [sp, #8]
 8006f8e:	9d00      	ldr	r5, [sp, #0]
 8006f90:	930f      	str	r3, [sp, #60]	; 0x3c
 8006f92:	ec41 0b19 	vmov	d9, r0, r1
 8006f96:	4649      	mov	r1, r9
 8006f98:	4640      	mov	r0, r8
 8006f9a:	f7f9 fdf5 	bl	8000b88 <__aeabi_d2iz>
 8006f9e:	4606      	mov	r6, r0
 8006fa0:	f7f9 fad8 	bl	8000554 <__aeabi_i2d>
 8006fa4:	3630      	adds	r6, #48	; 0x30
 8006fa6:	4602      	mov	r2, r0
 8006fa8:	460b      	mov	r3, r1
 8006faa:	4640      	mov	r0, r8
 8006fac:	4649      	mov	r1, r9
 8006fae:	f7f9 f983 	bl	80002b8 <__aeabi_dsub>
 8006fb2:	f805 6b01 	strb.w	r6, [r5], #1
 8006fb6:	9b02      	ldr	r3, [sp, #8]
 8006fb8:	429d      	cmp	r5, r3
 8006fba:	4680      	mov	r8, r0
 8006fbc:	4689      	mov	r9, r1
 8006fbe:	f04f 0200 	mov.w	r2, #0
 8006fc2:	d124      	bne.n	800700e <_dtoa_r+0x62e>
 8006fc4:	4b1b      	ldr	r3, [pc, #108]	; (8007034 <_dtoa_r+0x654>)
 8006fc6:	ec51 0b19 	vmov	r0, r1, d9
 8006fca:	f7f9 f977 	bl	80002bc <__adddf3>
 8006fce:	4602      	mov	r2, r0
 8006fd0:	460b      	mov	r3, r1
 8006fd2:	4640      	mov	r0, r8
 8006fd4:	4649      	mov	r1, r9
 8006fd6:	f7f9 fdb7 	bl	8000b48 <__aeabi_dcmpgt>
 8006fda:	2800      	cmp	r0, #0
 8006fdc:	d173      	bne.n	80070c6 <_dtoa_r+0x6e6>
 8006fde:	ec53 2b19 	vmov	r2, r3, d9
 8006fe2:	4914      	ldr	r1, [pc, #80]	; (8007034 <_dtoa_r+0x654>)
 8006fe4:	2000      	movs	r0, #0
 8006fe6:	f7f9 f967 	bl	80002b8 <__aeabi_dsub>
 8006fea:	4602      	mov	r2, r0
 8006fec:	460b      	mov	r3, r1
 8006fee:	4640      	mov	r0, r8
 8006ff0:	4649      	mov	r1, r9
 8006ff2:	f7f9 fd8b 	bl	8000b0c <__aeabi_dcmplt>
 8006ff6:	2800      	cmp	r0, #0
 8006ff8:	f43f af2f 	beq.w	8006e5a <_dtoa_r+0x47a>
 8006ffc:	9d0f      	ldr	r5, [sp, #60]	; 0x3c
 8006ffe:	1e6b      	subs	r3, r5, #1
 8007000:	930f      	str	r3, [sp, #60]	; 0x3c
 8007002:	f815 3c01 	ldrb.w	r3, [r5, #-1]
 8007006:	2b30      	cmp	r3, #48	; 0x30
 8007008:	d0f8      	beq.n	8006ffc <_dtoa_r+0x61c>
 800700a:	46bb      	mov	fp, r7
 800700c:	e04a      	b.n	80070a4 <_dtoa_r+0x6c4>
 800700e:	4b06      	ldr	r3, [pc, #24]	; (8007028 <_dtoa_r+0x648>)
 8007010:	f7f9 fb0a 	bl	8000628 <__aeabi_dmul>
 8007014:	4680      	mov	r8, r0
 8007016:	4689      	mov	r9, r1
 8007018:	e7bd      	b.n	8006f96 <_dtoa_r+0x5b6>
 800701a:	bf00      	nop
 800701c:	08008b38 	.word	0x08008b38
 8007020:	08008b10 	.word	0x08008b10
 8007024:	3ff00000 	.word	0x3ff00000
 8007028:	40240000 	.word	0x40240000
 800702c:	401c0000 	.word	0x401c0000
 8007030:	40140000 	.word	0x40140000
 8007034:	3fe00000 	.word	0x3fe00000
 8007038:	e9dd 6702 	ldrd	r6, r7, [sp, #8]
 800703c:	9d00      	ldr	r5, [sp, #0]
 800703e:	4642      	mov	r2, r8
 8007040:	464b      	mov	r3, r9
 8007042:	4630      	mov	r0, r6
 8007044:	4639      	mov	r1, r7
 8007046:	f7f9 fc19 	bl	800087c <__aeabi_ddiv>
 800704a:	f7f9 fd9d 	bl	8000b88 <__aeabi_d2iz>
 800704e:	9001      	str	r0, [sp, #4]
 8007050:	f7f9 fa80 	bl	8000554 <__aeabi_i2d>
 8007054:	4642      	mov	r2, r8
 8007056:	464b      	mov	r3, r9
 8007058:	f7f9 fae6 	bl	8000628 <__aeabi_dmul>
 800705c:	4602      	mov	r2, r0
 800705e:	460b      	mov	r3, r1
 8007060:	4630      	mov	r0, r6
 8007062:	4639      	mov	r1, r7
 8007064:	f7f9 f928 	bl	80002b8 <__aeabi_dsub>
 8007068:	9e01      	ldr	r6, [sp, #4]
 800706a:	9f04      	ldr	r7, [sp, #16]
 800706c:	3630      	adds	r6, #48	; 0x30
 800706e:	f805 6b01 	strb.w	r6, [r5], #1
 8007072:	9e00      	ldr	r6, [sp, #0]
 8007074:	1bae      	subs	r6, r5, r6
 8007076:	42b7      	cmp	r7, r6
 8007078:	4602      	mov	r2, r0
 800707a:	460b      	mov	r3, r1
 800707c:	d134      	bne.n	80070e8 <_dtoa_r+0x708>
 800707e:	f7f9 f91d 	bl	80002bc <__adddf3>
 8007082:	4642      	mov	r2, r8
 8007084:	464b      	mov	r3, r9
 8007086:	4606      	mov	r6, r0
 8007088:	460f      	mov	r7, r1
 800708a:	f7f9 fd5d 	bl	8000b48 <__aeabi_dcmpgt>
 800708e:	b9c8      	cbnz	r0, 80070c4 <_dtoa_r+0x6e4>
 8007090:	4642      	mov	r2, r8
 8007092:	464b      	mov	r3, r9
 8007094:	4630      	mov	r0, r6
 8007096:	4639      	mov	r1, r7
 8007098:	f7f9 fd2e 	bl	8000af8 <__aeabi_dcmpeq>
 800709c:	b110      	cbz	r0, 80070a4 <_dtoa_r+0x6c4>
 800709e:	9b01      	ldr	r3, [sp, #4]
 80070a0:	07db      	lsls	r3, r3, #31
 80070a2:	d40f      	bmi.n	80070c4 <_dtoa_r+0x6e4>
 80070a4:	4651      	mov	r1, sl
 80070a6:	4620      	mov	r0, r4
 80070a8:	f000 fb20 	bl	80076ec <_Bfree>
 80070ac:	2300      	movs	r3, #0
 80070ae:	9a0d      	ldr	r2, [sp, #52]	; 0x34
 80070b0:	702b      	strb	r3, [r5, #0]
 80070b2:	f10b 0301 	add.w	r3, fp, #1
 80070b6:	6013      	str	r3, [r2, #0]
 80070b8:	9b21      	ldr	r3, [sp, #132]	; 0x84
 80070ba:	2b00      	cmp	r3, #0
 80070bc:	f43f ace2 	beq.w	8006a84 <_dtoa_r+0xa4>
 80070c0:	601d      	str	r5, [r3, #0]
 80070c2:	e4df      	b.n	8006a84 <_dtoa_r+0xa4>
 80070c4:	465f      	mov	r7, fp
 80070c6:	462b      	mov	r3, r5
 80070c8:	461d      	mov	r5, r3
 80070ca:	f813 2d01 	ldrb.w	r2, [r3, #-1]!
 80070ce:	2a39      	cmp	r2, #57	; 0x39
 80070d0:	d106      	bne.n	80070e0 <_dtoa_r+0x700>
 80070d2:	9a00      	ldr	r2, [sp, #0]
 80070d4:	429a      	cmp	r2, r3
 80070d6:	d1f7      	bne.n	80070c8 <_dtoa_r+0x6e8>
 80070d8:	9900      	ldr	r1, [sp, #0]
 80070da:	2230      	movs	r2, #48	; 0x30
 80070dc:	3701      	adds	r7, #1
 80070de:	700a      	strb	r2, [r1, #0]
 80070e0:	781a      	ldrb	r2, [r3, #0]
 80070e2:	3201      	adds	r2, #1
 80070e4:	701a      	strb	r2, [r3, #0]
 80070e6:	e790      	b.n	800700a <_dtoa_r+0x62a>
 80070e8:	4ba3      	ldr	r3, [pc, #652]	; (8007378 <_dtoa_r+0x998>)
 80070ea:	2200      	movs	r2, #0
 80070ec:	f7f9 fa9c 	bl	8000628 <__aeabi_dmul>
 80070f0:	2200      	movs	r2, #0
 80070f2:	2300      	movs	r3, #0
 80070f4:	4606      	mov	r6, r0
 80070f6:	460f      	mov	r7, r1
 80070f8:	f7f9 fcfe 	bl	8000af8 <__aeabi_dcmpeq>
 80070fc:	2800      	cmp	r0, #0
 80070fe:	d09e      	beq.n	800703e <_dtoa_r+0x65e>
 8007100:	e7d0      	b.n	80070a4 <_dtoa_r+0x6c4>
 8007102:	9a09      	ldr	r2, [sp, #36]	; 0x24
 8007104:	2a00      	cmp	r2, #0
 8007106:	f000 80ca 	beq.w	800729e <_dtoa_r+0x8be>
 800710a:	9a07      	ldr	r2, [sp, #28]
 800710c:	2a01      	cmp	r2, #1
 800710e:	f300 80ad 	bgt.w	800726c <_dtoa_r+0x88c>
 8007112:	9a0e      	ldr	r2, [sp, #56]	; 0x38
 8007114:	2a00      	cmp	r2, #0
 8007116:	f000 80a5 	beq.w	8007264 <_dtoa_r+0x884>
 800711a:	f203 4333 	addw	r3, r3, #1075	; 0x433
 800711e:	9e08      	ldr	r6, [sp, #32]
 8007120:	9d05      	ldr	r5, [sp, #20]
 8007122:	9a05      	ldr	r2, [sp, #20]
 8007124:	441a      	add	r2, r3
 8007126:	9205      	str	r2, [sp, #20]
 8007128:	9a06      	ldr	r2, [sp, #24]
 800712a:	2101      	movs	r1, #1
 800712c:	441a      	add	r2, r3
 800712e:	4620      	mov	r0, r4
 8007130:	9206      	str	r2, [sp, #24]
 8007132:	f000 fb91 	bl	8007858 <__i2b>
 8007136:	4607      	mov	r7, r0
 8007138:	b165      	cbz	r5, 8007154 <_dtoa_r+0x774>
 800713a:	9b06      	ldr	r3, [sp, #24]
 800713c:	2b00      	cmp	r3, #0
 800713e:	dd09      	ble.n	8007154 <_dtoa_r+0x774>
 8007140:	42ab      	cmp	r3, r5
 8007142:	9a05      	ldr	r2, [sp, #20]
 8007144:	bfa8      	it	ge
 8007146:	462b      	movge	r3, r5
 8007148:	1ad2      	subs	r2, r2, r3
 800714a:	9205      	str	r2, [sp, #20]
 800714c:	9a06      	ldr	r2, [sp, #24]
 800714e:	1aed      	subs	r5, r5, r3
 8007150:	1ad3      	subs	r3, r2, r3
 8007152:	9306      	str	r3, [sp, #24]
 8007154:	9b08      	ldr	r3, [sp, #32]
 8007156:	b1f3      	cbz	r3, 8007196 <_dtoa_r+0x7b6>
 8007158:	9b09      	ldr	r3, [sp, #36]	; 0x24
 800715a:	2b00      	cmp	r3, #0
 800715c:	f000 80a3 	beq.w	80072a6 <_dtoa_r+0x8c6>
 8007160:	2e00      	cmp	r6, #0
 8007162:	dd10      	ble.n	8007186 <_dtoa_r+0x7a6>
 8007164:	4639      	mov	r1, r7
 8007166:	4632      	mov	r2, r6
 8007168:	4620      	mov	r0, r4
 800716a:	f000 fc35 	bl	80079d8 <__pow5mult>
 800716e:	4652      	mov	r2, sl
 8007170:	4601      	mov	r1, r0
 8007172:	4607      	mov	r7, r0
 8007174:	4620      	mov	r0, r4
 8007176:	f000 fb85 	bl	8007884 <__multiply>
 800717a:	4651      	mov	r1, sl
 800717c:	4680      	mov	r8, r0
 800717e:	4620      	mov	r0, r4
 8007180:	f000 fab4 	bl	80076ec <_Bfree>
 8007184:	46c2      	mov	sl, r8
 8007186:	9b08      	ldr	r3, [sp, #32]
 8007188:	1b9a      	subs	r2, r3, r6
 800718a:	d004      	beq.n	8007196 <_dtoa_r+0x7b6>
 800718c:	4651      	mov	r1, sl
 800718e:	4620      	mov	r0, r4
 8007190:	f000 fc22 	bl	80079d8 <__pow5mult>
 8007194:	4682      	mov	sl, r0
 8007196:	2101      	movs	r1, #1
 8007198:	4620      	mov	r0, r4
 800719a:	f000 fb5d 	bl	8007858 <__i2b>
 800719e:	9b0b      	ldr	r3, [sp, #44]	; 0x2c
 80071a0:	2b00      	cmp	r3, #0
 80071a2:	4606      	mov	r6, r0
 80071a4:	f340 8081 	ble.w	80072aa <_dtoa_r+0x8ca>
 80071a8:	461a      	mov	r2, r3
 80071aa:	4601      	mov	r1, r0
 80071ac:	4620      	mov	r0, r4
 80071ae:	f000 fc13 	bl	80079d8 <__pow5mult>
 80071b2:	9b07      	ldr	r3, [sp, #28]
 80071b4:	2b01      	cmp	r3, #1
 80071b6:	4606      	mov	r6, r0
 80071b8:	dd7a      	ble.n	80072b0 <_dtoa_r+0x8d0>
 80071ba:	f04f 0800 	mov.w	r8, #0
 80071be:	6933      	ldr	r3, [r6, #16]
 80071c0:	eb06 0383 	add.w	r3, r6, r3, lsl #2
 80071c4:	6918      	ldr	r0, [r3, #16]
 80071c6:	f000 faf9 	bl	80077bc <__hi0bits>
 80071ca:	f1c0 0020 	rsb	r0, r0, #32
 80071ce:	9b06      	ldr	r3, [sp, #24]
 80071d0:	4418      	add	r0, r3
 80071d2:	f010 001f 	ands.w	r0, r0, #31
 80071d6:	f000 8094 	beq.w	8007302 <_dtoa_r+0x922>
 80071da:	f1c0 0320 	rsb	r3, r0, #32
 80071de:	2b04      	cmp	r3, #4
 80071e0:	f340 8085 	ble.w	80072ee <_dtoa_r+0x90e>
 80071e4:	9b05      	ldr	r3, [sp, #20]
 80071e6:	f1c0 001c 	rsb	r0, r0, #28
 80071ea:	4403      	add	r3, r0
 80071ec:	9305      	str	r3, [sp, #20]
 80071ee:	9b06      	ldr	r3, [sp, #24]
 80071f0:	4403      	add	r3, r0
 80071f2:	4405      	add	r5, r0
 80071f4:	9306      	str	r3, [sp, #24]
 80071f6:	9b05      	ldr	r3, [sp, #20]
 80071f8:	2b00      	cmp	r3, #0
 80071fa:	dd05      	ble.n	8007208 <_dtoa_r+0x828>
 80071fc:	4651      	mov	r1, sl
 80071fe:	461a      	mov	r2, r3
 8007200:	4620      	mov	r0, r4
 8007202:	f000 fc43 	bl	8007a8c <__lshift>
 8007206:	4682      	mov	sl, r0
 8007208:	9b06      	ldr	r3, [sp, #24]
 800720a:	2b00      	cmp	r3, #0
 800720c:	dd05      	ble.n	800721a <_dtoa_r+0x83a>
 800720e:	4631      	mov	r1, r6
 8007210:	461a      	mov	r2, r3
 8007212:	4620      	mov	r0, r4
 8007214:	f000 fc3a 	bl	8007a8c <__lshift>
 8007218:	4606      	mov	r6, r0
 800721a:	9b0c      	ldr	r3, [sp, #48]	; 0x30
 800721c:	2b00      	cmp	r3, #0
 800721e:	d072      	beq.n	8007306 <_dtoa_r+0x926>
 8007220:	4631      	mov	r1, r6
 8007222:	4650      	mov	r0, sl
 8007224:	f000 fc9e 	bl	8007b64 <__mcmp>
 8007228:	2800      	cmp	r0, #0
 800722a:	da6c      	bge.n	8007306 <_dtoa_r+0x926>
 800722c:	2300      	movs	r3, #0
 800722e:	4651      	mov	r1, sl
 8007230:	220a      	movs	r2, #10
 8007232:	4620      	mov	r0, r4
 8007234:	f000 fa7c 	bl	8007730 <__multadd>
 8007238:	9b09      	ldr	r3, [sp, #36]	; 0x24
 800723a:	f10b 3bff 	add.w	fp, fp, #4294967295
 800723e:	4682      	mov	sl, r0
 8007240:	2b00      	cmp	r3, #0
 8007242:	f000 81b0 	beq.w	80075a6 <_dtoa_r+0xbc6>
 8007246:	2300      	movs	r3, #0
 8007248:	4639      	mov	r1, r7
 800724a:	220a      	movs	r2, #10
 800724c:	4620      	mov	r0, r4
 800724e:	f000 fa6f 	bl	8007730 <__multadd>
 8007252:	9b01      	ldr	r3, [sp, #4]
 8007254:	2b00      	cmp	r3, #0
 8007256:	4607      	mov	r7, r0
 8007258:	f300 8096 	bgt.w	8007388 <_dtoa_r+0x9a8>
 800725c:	9b07      	ldr	r3, [sp, #28]
 800725e:	2b02      	cmp	r3, #2
 8007260:	dc59      	bgt.n	8007316 <_dtoa_r+0x936>
 8007262:	e091      	b.n	8007388 <_dtoa_r+0x9a8>
 8007264:	9b10      	ldr	r3, [sp, #64]	; 0x40
 8007266:	f1c3 0336 	rsb	r3, r3, #54	; 0x36
 800726a:	e758      	b.n	800711e <_dtoa_r+0x73e>
 800726c:	9b04      	ldr	r3, [sp, #16]
 800726e:	1e5e      	subs	r6, r3, #1
 8007270:	9b08      	ldr	r3, [sp, #32]
 8007272:	42b3      	cmp	r3, r6
 8007274:	bfbf      	itttt	lt
 8007276:	9b08      	ldrlt	r3, [sp, #32]
 8007278:	9a0b      	ldrlt	r2, [sp, #44]	; 0x2c
 800727a:	9608      	strlt	r6, [sp, #32]
 800727c:	1af3      	sublt	r3, r6, r3
 800727e:	bfb4      	ite	lt
 8007280:	18d2      	addlt	r2, r2, r3
 8007282:	1b9e      	subge	r6, r3, r6
 8007284:	9b04      	ldr	r3, [sp, #16]
 8007286:	bfbc      	itt	lt
 8007288:	920b      	strlt	r2, [sp, #44]	; 0x2c
 800728a:	2600      	movlt	r6, #0
 800728c:	2b00      	cmp	r3, #0
 800728e:	bfb7      	itett	lt
 8007290:	e9dd 2304 	ldrdlt	r2, r3, [sp, #16]
 8007294:	e9dd 3504 	ldrdge	r3, r5, [sp, #16]
 8007298:	1a9d      	sublt	r5, r3, r2
 800729a:	2300      	movlt	r3, #0
 800729c:	e741      	b.n	8007122 <_dtoa_r+0x742>
 800729e:	9e08      	ldr	r6, [sp, #32]
 80072a0:	9d05      	ldr	r5, [sp, #20]
 80072a2:	9f09      	ldr	r7, [sp, #36]	; 0x24
 80072a4:	e748      	b.n	8007138 <_dtoa_r+0x758>
 80072a6:	9a08      	ldr	r2, [sp, #32]
 80072a8:	e770      	b.n	800718c <_dtoa_r+0x7ac>
 80072aa:	9b07      	ldr	r3, [sp, #28]
 80072ac:	2b01      	cmp	r3, #1
 80072ae:	dc19      	bgt.n	80072e4 <_dtoa_r+0x904>
 80072b0:	9b02      	ldr	r3, [sp, #8]
 80072b2:	b9bb      	cbnz	r3, 80072e4 <_dtoa_r+0x904>
 80072b4:	9b03      	ldr	r3, [sp, #12]
 80072b6:	f3c3 0313 	ubfx	r3, r3, #0, #20
 80072ba:	b99b      	cbnz	r3, 80072e4 <_dtoa_r+0x904>
 80072bc:	9b03      	ldr	r3, [sp, #12]
 80072be:	f023 4300 	bic.w	r3, r3, #2147483648	; 0x80000000
 80072c2:	0d1b      	lsrs	r3, r3, #20
 80072c4:	051b      	lsls	r3, r3, #20
 80072c6:	b183      	cbz	r3, 80072ea <_dtoa_r+0x90a>
 80072c8:	9b05      	ldr	r3, [sp, #20]
 80072ca:	3301      	adds	r3, #1
 80072cc:	9305      	str	r3, [sp, #20]
 80072ce:	9b06      	ldr	r3, [sp, #24]
 80072d0:	3301      	adds	r3, #1
 80072d2:	9306      	str	r3, [sp, #24]
 80072d4:	f04f 0801 	mov.w	r8, #1
 80072d8:	9b0b      	ldr	r3, [sp, #44]	; 0x2c
 80072da:	2b00      	cmp	r3, #0
 80072dc:	f47f af6f 	bne.w	80071be <_dtoa_r+0x7de>
 80072e0:	2001      	movs	r0, #1
 80072e2:	e774      	b.n	80071ce <_dtoa_r+0x7ee>
 80072e4:	f04f 0800 	mov.w	r8, #0
 80072e8:	e7f6      	b.n	80072d8 <_dtoa_r+0x8f8>
 80072ea:	4698      	mov	r8, r3
 80072ec:	e7f4      	b.n	80072d8 <_dtoa_r+0x8f8>
 80072ee:	d082      	beq.n	80071f6 <_dtoa_r+0x816>
 80072f0:	9a05      	ldr	r2, [sp, #20]
 80072f2:	331c      	adds	r3, #28
 80072f4:	441a      	add	r2, r3
 80072f6:	9205      	str	r2, [sp, #20]
 80072f8:	9a06      	ldr	r2, [sp, #24]
 80072fa:	441a      	add	r2, r3
 80072fc:	441d      	add	r5, r3
 80072fe:	9206      	str	r2, [sp, #24]
 8007300:	e779      	b.n	80071f6 <_dtoa_r+0x816>
 8007302:	4603      	mov	r3, r0
 8007304:	e7f4      	b.n	80072f0 <_dtoa_r+0x910>
 8007306:	9b04      	ldr	r3, [sp, #16]
 8007308:	2b00      	cmp	r3, #0
 800730a:	dc37      	bgt.n	800737c <_dtoa_r+0x99c>
 800730c:	9b07      	ldr	r3, [sp, #28]
 800730e:	2b02      	cmp	r3, #2
 8007310:	dd34      	ble.n	800737c <_dtoa_r+0x99c>
 8007312:	9b04      	ldr	r3, [sp, #16]
 8007314:	9301      	str	r3, [sp, #4]
 8007316:	9b01      	ldr	r3, [sp, #4]
 8007318:	b963      	cbnz	r3, 8007334 <_dtoa_r+0x954>
 800731a:	4631      	mov	r1, r6
 800731c:	2205      	movs	r2, #5
 800731e:	4620      	mov	r0, r4
 8007320:	f000 fa06 	bl	8007730 <__multadd>
 8007324:	4601      	mov	r1, r0
 8007326:	4606      	mov	r6, r0
 8007328:	4650      	mov	r0, sl
 800732a:	f000 fc1b 	bl	8007b64 <__mcmp>
 800732e:	2800      	cmp	r0, #0
 8007330:	f73f adbb 	bgt.w	8006eaa <_dtoa_r+0x4ca>
 8007334:	9b0a      	ldr	r3, [sp, #40]	; 0x28
 8007336:	9d00      	ldr	r5, [sp, #0]
 8007338:	ea6f 0b03 	mvn.w	fp, r3
 800733c:	f04f 0800 	mov.w	r8, #0
 8007340:	4631      	mov	r1, r6
 8007342:	4620      	mov	r0, r4
 8007344:	f000 f9d2 	bl	80076ec <_Bfree>
 8007348:	2f00      	cmp	r7, #0
 800734a:	f43f aeab 	beq.w	80070a4 <_dtoa_r+0x6c4>
 800734e:	f1b8 0f00 	cmp.w	r8, #0
 8007352:	d005      	beq.n	8007360 <_dtoa_r+0x980>
 8007354:	45b8      	cmp	r8, r7
 8007356:	d003      	beq.n	8007360 <_dtoa_r+0x980>
 8007358:	4641      	mov	r1, r8
 800735a:	4620      	mov	r0, r4
 800735c:	f000 f9c6 	bl	80076ec <_Bfree>
 8007360:	4639      	mov	r1, r7
 8007362:	4620      	mov	r0, r4
 8007364:	f000 f9c2 	bl	80076ec <_Bfree>
 8007368:	e69c      	b.n	80070a4 <_dtoa_r+0x6c4>
 800736a:	2600      	movs	r6, #0
 800736c:	4637      	mov	r7, r6
 800736e:	e7e1      	b.n	8007334 <_dtoa_r+0x954>
 8007370:	46bb      	mov	fp, r7
 8007372:	4637      	mov	r7, r6
 8007374:	e599      	b.n	8006eaa <_dtoa_r+0x4ca>
 8007376:	bf00      	nop
 8007378:	40240000 	.word	0x40240000
 800737c:	9b09      	ldr	r3, [sp, #36]	; 0x24
 800737e:	2b00      	cmp	r3, #0
 8007380:	f000 80c8 	beq.w	8007514 <_dtoa_r+0xb34>
 8007384:	9b04      	ldr	r3, [sp, #16]
 8007386:	9301      	str	r3, [sp, #4]
 8007388:	2d00      	cmp	r5, #0
 800738a:	dd05      	ble.n	8007398 <_dtoa_r+0x9b8>
 800738c:	4639      	mov	r1, r7
 800738e:	462a      	mov	r2, r5
 8007390:	4620      	mov	r0, r4
 8007392:	f000 fb7b 	bl	8007a8c <__lshift>
 8007396:	4607      	mov	r7, r0
 8007398:	f1b8 0f00 	cmp.w	r8, #0
 800739c:	d05b      	beq.n	8007456 <_dtoa_r+0xa76>
 800739e:	6879      	ldr	r1, [r7, #4]
 80073a0:	4620      	mov	r0, r4
 80073a2:	f000 f963 	bl	800766c <_Balloc>
 80073a6:	4605      	mov	r5, r0
 80073a8:	b928      	cbnz	r0, 80073b6 <_dtoa_r+0x9d6>
 80073aa:	4b83      	ldr	r3, [pc, #524]	; (80075b8 <_dtoa_r+0xbd8>)
 80073ac:	4602      	mov	r2, r0
 80073ae:	f240 21ef 	movw	r1, #751	; 0x2ef
 80073b2:	f7ff bb2e 	b.w	8006a12 <_dtoa_r+0x32>
 80073b6:	693a      	ldr	r2, [r7, #16]
 80073b8:	3202      	adds	r2, #2
 80073ba:	0092      	lsls	r2, r2, #2
 80073bc:	f107 010c 	add.w	r1, r7, #12
 80073c0:	300c      	adds	r0, #12
 80073c2:	f7ff fa76 	bl	80068b2 <memcpy>
 80073c6:	2201      	movs	r2, #1
 80073c8:	4629      	mov	r1, r5
 80073ca:	4620      	mov	r0, r4
 80073cc:	f000 fb5e 	bl	8007a8c <__lshift>
 80073d0:	9b00      	ldr	r3, [sp, #0]
 80073d2:	3301      	adds	r3, #1
 80073d4:	9304      	str	r3, [sp, #16]
 80073d6:	e9dd 2300 	ldrd	r2, r3, [sp]
 80073da:	4413      	add	r3, r2
 80073dc:	9308      	str	r3, [sp, #32]
 80073de:	9b02      	ldr	r3, [sp, #8]
 80073e0:	f003 0301 	and.w	r3, r3, #1
 80073e4:	46b8      	mov	r8, r7
 80073e6:	9306      	str	r3, [sp, #24]
 80073e8:	4607      	mov	r7, r0
 80073ea:	9b04      	ldr	r3, [sp, #16]
 80073ec:	4631      	mov	r1, r6
 80073ee:	3b01      	subs	r3, #1
 80073f0:	4650      	mov	r0, sl
 80073f2:	9301      	str	r3, [sp, #4]
 80073f4:	f7ff fa6b 	bl	80068ce <quorem>
 80073f8:	4641      	mov	r1, r8
 80073fa:	9002      	str	r0, [sp, #8]
 80073fc:	f100 0930 	add.w	r9, r0, #48	; 0x30
 8007400:	4650      	mov	r0, sl
 8007402:	f000 fbaf 	bl	8007b64 <__mcmp>
 8007406:	463a      	mov	r2, r7
 8007408:	9005      	str	r0, [sp, #20]
 800740a:	4631      	mov	r1, r6
 800740c:	4620      	mov	r0, r4
 800740e:	f000 fbc5 	bl	8007b9c <__mdiff>
 8007412:	68c2      	ldr	r2, [r0, #12]
 8007414:	4605      	mov	r5, r0
 8007416:	bb02      	cbnz	r2, 800745a <_dtoa_r+0xa7a>
 8007418:	4601      	mov	r1, r0
 800741a:	4650      	mov	r0, sl
 800741c:	f000 fba2 	bl	8007b64 <__mcmp>
 8007420:	4602      	mov	r2, r0
 8007422:	4629      	mov	r1, r5
 8007424:	4620      	mov	r0, r4
 8007426:	9209      	str	r2, [sp, #36]	; 0x24
 8007428:	f000 f960 	bl	80076ec <_Bfree>
 800742c:	9b07      	ldr	r3, [sp, #28]
 800742e:	9a09      	ldr	r2, [sp, #36]	; 0x24
 8007430:	9d04      	ldr	r5, [sp, #16]
 8007432:	ea43 0102 	orr.w	r1, r3, r2
 8007436:	9b06      	ldr	r3, [sp, #24]
 8007438:	4319      	orrs	r1, r3
 800743a:	d110      	bne.n	800745e <_dtoa_r+0xa7e>
 800743c:	f1b9 0f39 	cmp.w	r9, #57	; 0x39
 8007440:	d029      	beq.n	8007496 <_dtoa_r+0xab6>
 8007442:	9b05      	ldr	r3, [sp, #20]
 8007444:	2b00      	cmp	r3, #0
 8007446:	dd02      	ble.n	800744e <_dtoa_r+0xa6e>
 8007448:	9b02      	ldr	r3, [sp, #8]
 800744a:	f103 0931 	add.w	r9, r3, #49	; 0x31
 800744e:	9b01      	ldr	r3, [sp, #4]
 8007450:	f883 9000 	strb.w	r9, [r3]
 8007454:	e774      	b.n	8007340 <_dtoa_r+0x960>
 8007456:	4638      	mov	r0, r7
 8007458:	e7ba      	b.n	80073d0 <_dtoa_r+0x9f0>
 800745a:	2201      	movs	r2, #1
 800745c:	e7e1      	b.n	8007422 <_dtoa_r+0xa42>
 800745e:	9b05      	ldr	r3, [sp, #20]
 8007460:	2b00      	cmp	r3, #0
 8007462:	db04      	blt.n	800746e <_dtoa_r+0xa8e>
 8007464:	9907      	ldr	r1, [sp, #28]
 8007466:	430b      	orrs	r3, r1
 8007468:	9906      	ldr	r1, [sp, #24]
 800746a:	430b      	orrs	r3, r1
 800746c:	d120      	bne.n	80074b0 <_dtoa_r+0xad0>
 800746e:	2a00      	cmp	r2, #0
 8007470:	dded      	ble.n	800744e <_dtoa_r+0xa6e>
 8007472:	4651      	mov	r1, sl
 8007474:	2201      	movs	r2, #1
 8007476:	4620      	mov	r0, r4
 8007478:	f000 fb08 	bl	8007a8c <__lshift>
 800747c:	4631      	mov	r1, r6
 800747e:	4682      	mov	sl, r0
 8007480:	f000 fb70 	bl	8007b64 <__mcmp>
 8007484:	2800      	cmp	r0, #0
 8007486:	dc03      	bgt.n	8007490 <_dtoa_r+0xab0>
 8007488:	d1e1      	bne.n	800744e <_dtoa_r+0xa6e>
 800748a:	f019 0f01 	tst.w	r9, #1
 800748e:	d0de      	beq.n	800744e <_dtoa_r+0xa6e>
 8007490:	f1b9 0f39 	cmp.w	r9, #57	; 0x39
 8007494:	d1d8      	bne.n	8007448 <_dtoa_r+0xa68>
 8007496:	9a01      	ldr	r2, [sp, #4]
 8007498:	2339      	movs	r3, #57	; 0x39
 800749a:	7013      	strb	r3, [r2, #0]
 800749c:	462b      	mov	r3, r5
 800749e:	461d      	mov	r5, r3
 80074a0:	3b01      	subs	r3, #1
 80074a2:	f815 2c01 	ldrb.w	r2, [r5, #-1]
 80074a6:	2a39      	cmp	r2, #57	; 0x39
 80074a8:	d06c      	beq.n	8007584 <_dtoa_r+0xba4>
 80074aa:	3201      	adds	r2, #1
 80074ac:	701a      	strb	r2, [r3, #0]
 80074ae:	e747      	b.n	8007340 <_dtoa_r+0x960>
 80074b0:	2a00      	cmp	r2, #0
 80074b2:	dd07      	ble.n	80074c4 <_dtoa_r+0xae4>
 80074b4:	f1b9 0f39 	cmp.w	r9, #57	; 0x39
 80074b8:	d0ed      	beq.n	8007496 <_dtoa_r+0xab6>
 80074ba:	9a01      	ldr	r2, [sp, #4]
 80074bc:	f109 0301 	add.w	r3, r9, #1
 80074c0:	7013      	strb	r3, [r2, #0]
 80074c2:	e73d      	b.n	8007340 <_dtoa_r+0x960>
 80074c4:	9b04      	ldr	r3, [sp, #16]
 80074c6:	9a08      	ldr	r2, [sp, #32]
 80074c8:	f803 9c01 	strb.w	r9, [r3, #-1]
 80074cc:	4293      	cmp	r3, r2
 80074ce:	d043      	beq.n	8007558 <_dtoa_r+0xb78>
 80074d0:	4651      	mov	r1, sl
 80074d2:	2300      	movs	r3, #0
 80074d4:	220a      	movs	r2, #10
 80074d6:	4620      	mov	r0, r4
 80074d8:	f000 f92a 	bl	8007730 <__multadd>
 80074dc:	45b8      	cmp	r8, r7
 80074de:	4682      	mov	sl, r0
 80074e0:	f04f 0300 	mov.w	r3, #0
 80074e4:	f04f 020a 	mov.w	r2, #10
 80074e8:	4641      	mov	r1, r8
 80074ea:	4620      	mov	r0, r4
 80074ec:	d107      	bne.n	80074fe <_dtoa_r+0xb1e>
 80074ee:	f000 f91f 	bl	8007730 <__multadd>
 80074f2:	4680      	mov	r8, r0
 80074f4:	4607      	mov	r7, r0
 80074f6:	9b04      	ldr	r3, [sp, #16]
 80074f8:	3301      	adds	r3, #1
 80074fa:	9304      	str	r3, [sp, #16]
 80074fc:	e775      	b.n	80073ea <_dtoa_r+0xa0a>
 80074fe:	f000 f917 	bl	8007730 <__multadd>
 8007502:	4639      	mov	r1, r7
 8007504:	4680      	mov	r8, r0
 8007506:	2300      	movs	r3, #0
 8007508:	220a      	movs	r2, #10
 800750a:	4620      	mov	r0, r4
 800750c:	f000 f910 	bl	8007730 <__multadd>
 8007510:	4607      	mov	r7, r0
 8007512:	e7f0      	b.n	80074f6 <_dtoa_r+0xb16>
 8007514:	9b04      	ldr	r3, [sp, #16]
 8007516:	9301      	str	r3, [sp, #4]
 8007518:	9d00      	ldr	r5, [sp, #0]
 800751a:	4631      	mov	r1, r6
 800751c:	4650      	mov	r0, sl
 800751e:	f7ff f9d6 	bl	80068ce <quorem>
 8007522:	f100 0930 	add.w	r9, r0, #48	; 0x30
 8007526:	9b00      	ldr	r3, [sp, #0]
 8007528:	f805 9b01 	strb.w	r9, [r5], #1
 800752c:	1aea      	subs	r2, r5, r3
 800752e:	9b01      	ldr	r3, [sp, #4]
 8007530:	4293      	cmp	r3, r2
 8007532:	dd07      	ble.n	8007544 <_dtoa_r+0xb64>
 8007534:	4651      	mov	r1, sl
 8007536:	2300      	movs	r3, #0
 8007538:	220a      	movs	r2, #10
 800753a:	4620      	mov	r0, r4
 800753c:	f000 f8f8 	bl	8007730 <__multadd>
 8007540:	4682      	mov	sl, r0
 8007542:	e7ea      	b.n	800751a <_dtoa_r+0xb3a>
 8007544:	9b01      	ldr	r3, [sp, #4]
 8007546:	2b00      	cmp	r3, #0
 8007548:	bfc8      	it	gt
 800754a:	461d      	movgt	r5, r3
 800754c:	9b00      	ldr	r3, [sp, #0]
 800754e:	bfd8      	it	le
 8007550:	2501      	movle	r5, #1
 8007552:	441d      	add	r5, r3
 8007554:	f04f 0800 	mov.w	r8, #0
 8007558:	4651      	mov	r1, sl
 800755a:	2201      	movs	r2, #1
 800755c:	4620      	mov	r0, r4
 800755e:	f000 fa95 	bl	8007a8c <__lshift>
 8007562:	4631      	mov	r1, r6
 8007564:	4682      	mov	sl, r0
 8007566:	f000 fafd 	bl	8007b64 <__mcmp>
 800756a:	2800      	cmp	r0, #0
 800756c:	dc96      	bgt.n	800749c <_dtoa_r+0xabc>
 800756e:	d102      	bne.n	8007576 <_dtoa_r+0xb96>
 8007570:	f019 0f01 	tst.w	r9, #1
 8007574:	d192      	bne.n	800749c <_dtoa_r+0xabc>
 8007576:	462b      	mov	r3, r5
 8007578:	461d      	mov	r5, r3
 800757a:	f813 2d01 	ldrb.w	r2, [r3, #-1]!
 800757e:	2a30      	cmp	r2, #48	; 0x30
 8007580:	d0fa      	beq.n	8007578 <_dtoa_r+0xb98>
 8007582:	e6dd      	b.n	8007340 <_dtoa_r+0x960>
 8007584:	9a00      	ldr	r2, [sp, #0]
 8007586:	429a      	cmp	r2, r3
 8007588:	d189      	bne.n	800749e <_dtoa_r+0xabe>
 800758a:	f10b 0b01 	add.w	fp, fp, #1
 800758e:	2331      	movs	r3, #49	; 0x31
 8007590:	e796      	b.n	80074c0 <_dtoa_r+0xae0>
 8007592:	4b0a      	ldr	r3, [pc, #40]	; (80075bc <_dtoa_r+0xbdc>)
 8007594:	f7ff ba99 	b.w	8006aca <_dtoa_r+0xea>
 8007598:	9b21      	ldr	r3, [sp, #132]	; 0x84
 800759a:	2b00      	cmp	r3, #0
 800759c:	f47f aa6d 	bne.w	8006a7a <_dtoa_r+0x9a>
 80075a0:	4b07      	ldr	r3, [pc, #28]	; (80075c0 <_dtoa_r+0xbe0>)
 80075a2:	f7ff ba92 	b.w	8006aca <_dtoa_r+0xea>
 80075a6:	9b01      	ldr	r3, [sp, #4]
 80075a8:	2b00      	cmp	r3, #0
 80075aa:	dcb5      	bgt.n	8007518 <_dtoa_r+0xb38>
 80075ac:	9b07      	ldr	r3, [sp, #28]
 80075ae:	2b02      	cmp	r3, #2
 80075b0:	f73f aeb1 	bgt.w	8007316 <_dtoa_r+0x936>
 80075b4:	e7b0      	b.n	8007518 <_dtoa_r+0xb38>
 80075b6:	bf00      	nop
 80075b8:	08008aa5 	.word	0x08008aa5
 80075bc:	08008a05 	.word	0x08008a05
 80075c0:	08008a29 	.word	0x08008a29

080075c4 <_free_r>:
 80075c4:	b537      	push	{r0, r1, r2, r4, r5, lr}
 80075c6:	2900      	cmp	r1, #0
 80075c8:	d044      	beq.n	8007654 <_free_r+0x90>
 80075ca:	f851 3c04 	ldr.w	r3, [r1, #-4]
 80075ce:	9001      	str	r0, [sp, #4]
 80075d0:	2b00      	cmp	r3, #0
 80075d2:	f1a1 0404 	sub.w	r4, r1, #4
 80075d6:	bfb8      	it	lt
 80075d8:	18e4      	addlt	r4, r4, r3
 80075da:	f7fe fb3b 	bl	8005c54 <__malloc_lock>
 80075de:	4a1e      	ldr	r2, [pc, #120]	; (8007658 <_free_r+0x94>)
 80075e0:	9801      	ldr	r0, [sp, #4]
 80075e2:	6813      	ldr	r3, [r2, #0]
 80075e4:	b933      	cbnz	r3, 80075f4 <_free_r+0x30>
 80075e6:	6063      	str	r3, [r4, #4]
 80075e8:	6014      	str	r4, [r2, #0]
 80075ea:	b003      	add	sp, #12
 80075ec:	e8bd 4030 	ldmia.w	sp!, {r4, r5, lr}
 80075f0:	f7fe bb36 	b.w	8005c60 <__malloc_unlock>
 80075f4:	42a3      	cmp	r3, r4
 80075f6:	d908      	bls.n	800760a <_free_r+0x46>
 80075f8:	6825      	ldr	r5, [r4, #0]
 80075fa:	1961      	adds	r1, r4, r5
 80075fc:	428b      	cmp	r3, r1
 80075fe:	bf01      	itttt	eq
 8007600:	6819      	ldreq	r1, [r3, #0]
 8007602:	685b      	ldreq	r3, [r3, #4]
 8007604:	1949      	addeq	r1, r1, r5
 8007606:	6021      	streq	r1, [r4, #0]
 8007608:	e7ed      	b.n	80075e6 <_free_r+0x22>
 800760a:	461a      	mov	r2, r3
 800760c:	685b      	ldr	r3, [r3, #4]
 800760e:	b10b      	cbz	r3, 8007614 <_free_r+0x50>
 8007610:	42a3      	cmp	r3, r4
 8007612:	d9fa      	bls.n	800760a <_free_r+0x46>
 8007614:	6811      	ldr	r1, [r2, #0]
 8007616:	1855      	adds	r5, r2, r1
 8007618:	42a5      	cmp	r5, r4
 800761a:	d10b      	bne.n	8007634 <_free_r+0x70>
 800761c:	6824      	ldr	r4, [r4, #0]
 800761e:	4421      	add	r1, r4
 8007620:	1854      	adds	r4, r2, r1
 8007622:	42a3      	cmp	r3, r4
 8007624:	6011      	str	r1, [r2, #0]
 8007626:	d1e0      	bne.n	80075ea <_free_r+0x26>
 8007628:	681c      	ldr	r4, [r3, #0]
 800762a:	685b      	ldr	r3, [r3, #4]
 800762c:	6053      	str	r3, [r2, #4]
 800762e:	440c      	add	r4, r1
 8007630:	6014      	str	r4, [r2, #0]
 8007632:	e7da      	b.n	80075ea <_free_r+0x26>
 8007634:	d902      	bls.n	800763c <_free_r+0x78>
 8007636:	230c      	movs	r3, #12
 8007638:	6003      	str	r3, [r0, #0]
 800763a:	e7d6      	b.n	80075ea <_free_r+0x26>
 800763c:	6825      	ldr	r5, [r4, #0]
 800763e:	1961      	adds	r1, r4, r5
 8007640:	428b      	cmp	r3, r1
 8007642:	bf04      	itt	eq
 8007644:	6819      	ldreq	r1, [r3, #0]
 8007646:	685b      	ldreq	r3, [r3, #4]
 8007648:	6063      	str	r3, [r4, #4]
 800764a:	bf04      	itt	eq
 800764c:	1949      	addeq	r1, r1, r5
 800764e:	6021      	streq	r1, [r4, #0]
 8007650:	6054      	str	r4, [r2, #4]
 8007652:	e7ca      	b.n	80075ea <_free_r+0x26>
 8007654:	b003      	add	sp, #12
 8007656:	bd30      	pop	{r4, r5, pc}
 8007658:	200015e4 	.word	0x200015e4

0800765c <malloc>:
 800765c:	4b02      	ldr	r3, [pc, #8]	; (8007668 <malloc+0xc>)
 800765e:	4601      	mov	r1, r0
 8007660:	6818      	ldr	r0, [r3, #0]
 8007662:	f7fe ba77 	b.w	8005b54 <_malloc_r>
 8007666:	bf00      	nop
 8007668:	20000100 	.word	0x20000100

0800766c <_Balloc>:
 800766c:	b570      	push	{r4, r5, r6, lr}
 800766e:	69c6      	ldr	r6, [r0, #28]
 8007670:	4604      	mov	r4, r0
 8007672:	460d      	mov	r5, r1
 8007674:	b976      	cbnz	r6, 8007694 <_Balloc+0x28>
 8007676:	2010      	movs	r0, #16
 8007678:	f7ff fff0 	bl	800765c <malloc>
 800767c:	4602      	mov	r2, r0
 800767e:	61e0      	str	r0, [r4, #28]
 8007680:	b920      	cbnz	r0, 800768c <_Balloc+0x20>
 8007682:	4b18      	ldr	r3, [pc, #96]	; (80076e4 <_Balloc+0x78>)
 8007684:	4818      	ldr	r0, [pc, #96]	; (80076e8 <_Balloc+0x7c>)
 8007686:	216b      	movs	r1, #107	; 0x6b
 8007688:	f000 fd8c 	bl	80081a4 <__assert_func>
 800768c:	e9c0 6601 	strd	r6, r6, [r0, #4]
 8007690:	6006      	str	r6, [r0, #0]
 8007692:	60c6      	str	r6, [r0, #12]
 8007694:	69e6      	ldr	r6, [r4, #28]
 8007696:	68f3      	ldr	r3, [r6, #12]
 8007698:	b183      	cbz	r3, 80076bc <_Balloc+0x50>
 800769a:	69e3      	ldr	r3, [r4, #28]
 800769c:	68db      	ldr	r3, [r3, #12]
 800769e:	f853 0025 	ldr.w	r0, [r3, r5, lsl #2]
 80076a2:	b9b8      	cbnz	r0, 80076d4 <_Balloc+0x68>
 80076a4:	2101      	movs	r1, #1
 80076a6:	fa01 f605 	lsl.w	r6, r1, r5
 80076aa:	1d72      	adds	r2, r6, #5
 80076ac:	0092      	lsls	r2, r2, #2
 80076ae:	4620      	mov	r0, r4
 80076b0:	f7fe fa1a 	bl	8005ae8 <_calloc_r>
 80076b4:	b160      	cbz	r0, 80076d0 <_Balloc+0x64>
 80076b6:	e9c0 5601 	strd	r5, r6, [r0, #4]
 80076ba:	e00e      	b.n	80076da <_Balloc+0x6e>
 80076bc:	2221      	movs	r2, #33	; 0x21
 80076be:	2104      	movs	r1, #4
 80076c0:	4620      	mov	r0, r4
 80076c2:	f7fe fa11 	bl	8005ae8 <_calloc_r>
 80076c6:	69e3      	ldr	r3, [r4, #28]
 80076c8:	60f0      	str	r0, [r6, #12]
 80076ca:	68db      	ldr	r3, [r3, #12]
 80076cc:	2b00      	cmp	r3, #0
 80076ce:	d1e4      	bne.n	800769a <_Balloc+0x2e>
 80076d0:	2000      	movs	r0, #0
 80076d2:	bd70      	pop	{r4, r5, r6, pc}
 80076d4:	6802      	ldr	r2, [r0, #0]
 80076d6:	f843 2025 	str.w	r2, [r3, r5, lsl #2]
 80076da:	2300      	movs	r3, #0
 80076dc:	e9c0 3303 	strd	r3, r3, [r0, #12]
 80076e0:	e7f7      	b.n	80076d2 <_Balloc+0x66>
 80076e2:	bf00      	nop
 80076e4:	08008a36 	.word	0x08008a36
 80076e8:	08008ab6 	.word	0x08008ab6

080076ec <_Bfree>:
 80076ec:	b570      	push	{r4, r5, r6, lr}
 80076ee:	69c6      	ldr	r6, [r0, #28]
 80076f0:	4605      	mov	r5, r0
 80076f2:	460c      	mov	r4, r1
 80076f4:	b976      	cbnz	r6, 8007714 <_Bfree+0x28>
 80076f6:	2010      	movs	r0, #16
 80076f8:	f7ff ffb0 	bl	800765c <malloc>
 80076fc:	4602      	mov	r2, r0
 80076fe:	61e8      	str	r0, [r5, #28]
 8007700:	b920      	cbnz	r0, 800770c <_Bfree+0x20>
 8007702:	4b09      	ldr	r3, [pc, #36]	; (8007728 <_Bfree+0x3c>)
 8007704:	4809      	ldr	r0, [pc, #36]	; (800772c <_Bfree+0x40>)
 8007706:	218f      	movs	r1, #143	; 0x8f
 8007708:	f000 fd4c 	bl	80081a4 <__assert_func>
 800770c:	e9c0 6601 	strd	r6, r6, [r0, #4]
 8007710:	6006      	str	r6, [r0, #0]
 8007712:	60c6      	str	r6, [r0, #12]
 8007714:	b13c      	cbz	r4, 8007726 <_Bfree+0x3a>
 8007716:	69eb      	ldr	r3, [r5, #28]
 8007718:	6862      	ldr	r2, [r4, #4]
 800771a:	68db      	ldr	r3, [r3, #12]
 800771c:	f853 1022 	ldr.w	r1, [r3, r2, lsl #2]
 8007720:	6021      	str	r1, [r4, #0]
 8007722:	f843 4022 	str.w	r4, [r3, r2, lsl #2]
 8007726:	bd70      	pop	{r4, r5, r6, pc}
 8007728:	08008a36 	.word	0x08008a36
 800772c:	08008ab6 	.word	0x08008ab6

08007730 <__multadd>:
 8007730:	e92d 41f0 	stmdb	sp!, {r4, r5, r6, r7, r8, lr}
 8007734:	690d      	ldr	r5, [r1, #16]
 8007736:	4607      	mov	r7, r0
 8007738:	460c      	mov	r4, r1
 800773a:	461e      	mov	r6, r3
 800773c:	f101 0c14 	add.w	ip, r1, #20
 8007740:	2000      	movs	r0, #0
 8007742:	f8dc 3000 	ldr.w	r3, [ip]
 8007746:	b299      	uxth	r1, r3
 8007748:	fb02 6101 	mla	r1, r2, r1, r6
 800774c:	0c1e      	lsrs	r6, r3, #16
 800774e:	0c0b      	lsrs	r3, r1, #16
 8007750:	fb02 3306 	mla	r3, r2, r6, r3
 8007754:	b289      	uxth	r1, r1
 8007756:	3001      	adds	r0, #1
 8007758:	eb01 4103 	add.w	r1, r1, r3, lsl #16
 800775c:	4285      	cmp	r5, r0
 800775e:	f84c 1b04 	str.w	r1, [ip], #4
 8007762:	ea4f 4613 	mov.w	r6, r3, lsr #16
 8007766:	dcec      	bgt.n	8007742 <__multadd+0x12>
 8007768:	b30e      	cbz	r6, 80077ae <__multadd+0x7e>
 800776a:	68a3      	ldr	r3, [r4, #8]
 800776c:	42ab      	cmp	r3, r5
 800776e:	dc19      	bgt.n	80077a4 <__multadd+0x74>
 8007770:	6861      	ldr	r1, [r4, #4]
 8007772:	4638      	mov	r0, r7
 8007774:	3101      	adds	r1, #1
 8007776:	f7ff ff79 	bl	800766c <_Balloc>
 800777a:	4680      	mov	r8, r0
 800777c:	b928      	cbnz	r0, 800778a <__multadd+0x5a>
 800777e:	4602      	mov	r2, r0
 8007780:	4b0c      	ldr	r3, [pc, #48]	; (80077b4 <__multadd+0x84>)
 8007782:	480d      	ldr	r0, [pc, #52]	; (80077b8 <__multadd+0x88>)
 8007784:	21ba      	movs	r1, #186	; 0xba
 8007786:	f000 fd0d 	bl	80081a4 <__assert_func>
 800778a:	6922      	ldr	r2, [r4, #16]
 800778c:	3202      	adds	r2, #2
 800778e:	f104 010c 	add.w	r1, r4, #12
 8007792:	0092      	lsls	r2, r2, #2
 8007794:	300c      	adds	r0, #12
 8007796:	f7ff f88c 	bl	80068b2 <memcpy>
 800779a:	4621      	mov	r1, r4
 800779c:	4638      	mov	r0, r7
 800779e:	f7ff ffa5 	bl	80076ec <_Bfree>
 80077a2:	4644      	mov	r4, r8
 80077a4:	eb04 0385 	add.w	r3, r4, r5, lsl #2
 80077a8:	3501      	adds	r5, #1
 80077aa:	615e      	str	r6, [r3, #20]
 80077ac:	6125      	str	r5, [r4, #16]
 80077ae:	4620      	mov	r0, r4
 80077b0:	e8bd 81f0 	ldmia.w	sp!, {r4, r5, r6, r7, r8, pc}
 80077b4:	08008aa5 	.word	0x08008aa5
 80077b8:	08008ab6 	.word	0x08008ab6

080077bc <__hi0bits>:
 80077bc:	0c03      	lsrs	r3, r0, #16
 80077be:	041b      	lsls	r3, r3, #16
 80077c0:	b9d3      	cbnz	r3, 80077f8 <__hi0bits+0x3c>
 80077c2:	0400      	lsls	r0, r0, #16
 80077c4:	2310      	movs	r3, #16
 80077c6:	f010 4f7f 	tst.w	r0, #4278190080	; 0xff000000
 80077ca:	bf04      	itt	eq
 80077cc:	0200      	lsleq	r0, r0, #8
 80077ce:	3308      	addeq	r3, #8
 80077d0:	f010 4f70 	tst.w	r0, #4026531840	; 0xf0000000
 80077d4:	bf04      	itt	eq
 80077d6:	0100      	lsleq	r0, r0, #4
 80077d8:	3304      	addeq	r3, #4
 80077da:	f010 4f40 	tst.w	r0, #3221225472	; 0xc0000000
 80077de:	bf04      	itt	eq
 80077e0:	0080      	lsleq	r0, r0, #2
 80077e2:	3302      	addeq	r3, #2
 80077e4:	2800      	cmp	r0, #0
 80077e6:	db05      	blt.n	80077f4 <__hi0bits+0x38>
 80077e8:	f010 4f80 	tst.w	r0, #1073741824	; 0x40000000
 80077ec:	f103 0301 	add.w	r3, r3, #1
 80077f0:	bf08      	it	eq
 80077f2:	2320      	moveq	r3, #32
 80077f4:	4618      	mov	r0, r3
 80077f6:	4770      	bx	lr
 80077f8:	2300      	movs	r3, #0
 80077fa:	e7e4      	b.n	80077c6 <__hi0bits+0xa>

080077fc <__lo0bits>:
 80077fc:	6803      	ldr	r3, [r0, #0]
 80077fe:	f013 0207 	ands.w	r2, r3, #7
 8007802:	d00c      	beq.n	800781e <__lo0bits+0x22>
 8007804:	07d9      	lsls	r1, r3, #31
 8007806:	d422      	bmi.n	800784e <__lo0bits+0x52>
 8007808:	079a      	lsls	r2, r3, #30
 800780a:	bf49      	itett	mi
 800780c:	085b      	lsrmi	r3, r3, #1
 800780e:	089b      	lsrpl	r3, r3, #2
 8007810:	6003      	strmi	r3, [r0, #0]
 8007812:	2201      	movmi	r2, #1
 8007814:	bf5c      	itt	pl
 8007816:	6003      	strpl	r3, [r0, #0]
 8007818:	2202      	movpl	r2, #2
 800781a:	4610      	mov	r0, r2
 800781c:	4770      	bx	lr
 800781e:	b299      	uxth	r1, r3
 8007820:	b909      	cbnz	r1, 8007826 <__lo0bits+0x2a>
 8007822:	0c1b      	lsrs	r3, r3, #16
 8007824:	2210      	movs	r2, #16
 8007826:	b2d9      	uxtb	r1, r3
 8007828:	b909      	cbnz	r1, 800782e <__lo0bits+0x32>
 800782a:	3208      	adds	r2, #8
 800782c:	0a1b      	lsrs	r3, r3, #8
 800782e:	0719      	lsls	r1, r3, #28
 8007830:	bf04      	itt	eq
 8007832:	091b      	lsreq	r3, r3, #4
 8007834:	3204      	addeq	r2, #4
 8007836:	0799      	lsls	r1, r3, #30
 8007838:	bf04      	itt	eq
 800783a:	089b      	lsreq	r3, r3, #2
 800783c:	3202      	addeq	r2, #2
 800783e:	07d9      	lsls	r1, r3, #31
 8007840:	d403      	bmi.n	800784a <__lo0bits+0x4e>
 8007842:	085b      	lsrs	r3, r3, #1
 8007844:	f102 0201 	add.w	r2, r2, #1
 8007848:	d003      	beq.n	8007852 <__lo0bits+0x56>
 800784a:	6003      	str	r3, [r0, #0]
 800784c:	e7e5      	b.n	800781a <__lo0bits+0x1e>
 800784e:	2200      	movs	r2, #0
 8007850:	e7e3      	b.n	800781a <__lo0bits+0x1e>
 8007852:	2220      	movs	r2, #32
 8007854:	e7e1      	b.n	800781a <__lo0bits+0x1e>
	...

08007858 <__i2b>:
 8007858:	b510      	push	{r4, lr}
 800785a:	460c      	mov	r4, r1
 800785c:	2101      	movs	r1, #1
 800785e:	f7ff ff05 	bl	800766c <_Balloc>
 8007862:	4602      	mov	r2, r0
 8007864:	b928      	cbnz	r0, 8007872 <__i2b+0x1a>
 8007866:	4b05      	ldr	r3, [pc, #20]	; (800787c <__i2b+0x24>)
 8007868:	4805      	ldr	r0, [pc, #20]	; (8007880 <__i2b+0x28>)
 800786a:	f240 1145 	movw	r1, #325	; 0x145
 800786e:	f000 fc99 	bl	80081a4 <__assert_func>
 8007872:	2301      	movs	r3, #1
 8007874:	6144      	str	r4, [r0, #20]
 8007876:	6103      	str	r3, [r0, #16]
 8007878:	bd10      	pop	{r4, pc}
 800787a:	bf00      	nop
 800787c:	08008aa5 	.word	0x08008aa5
 8007880:	08008ab6 	.word	0x08008ab6

08007884 <__multiply>:
 8007884:	e92d 4ff0 	stmdb	sp!, {r4, r5, r6, r7, r8, r9, sl, fp, lr}
 8007888:	4691      	mov	r9, r2
 800788a:	690a      	ldr	r2, [r1, #16]
 800788c:	f8d9 3010 	ldr.w	r3, [r9, #16]
 8007890:	429a      	cmp	r2, r3
 8007892:	bfb8      	it	lt
 8007894:	460b      	movlt	r3, r1
 8007896:	460c      	mov	r4, r1
 8007898:	bfbc      	itt	lt
 800789a:	464c      	movlt	r4, r9
 800789c:	4699      	movlt	r9, r3
 800789e:	6927      	ldr	r7, [r4, #16]
 80078a0:	f8d9 a010 	ldr.w	sl, [r9, #16]
 80078a4:	68a3      	ldr	r3, [r4, #8]
 80078a6:	6861      	ldr	r1, [r4, #4]
 80078a8:	eb07 060a 	add.w	r6, r7, sl
 80078ac:	42b3      	cmp	r3, r6
 80078ae:	b085      	sub	sp, #20
 80078b0:	bfb8      	it	lt
 80078b2:	3101      	addlt	r1, #1
 80078b4:	f7ff feda 	bl	800766c <_Balloc>
 80078b8:	b930      	cbnz	r0, 80078c8 <__multiply+0x44>
 80078ba:	4602      	mov	r2, r0
 80078bc:	4b44      	ldr	r3, [pc, #272]	; (80079d0 <__multiply+0x14c>)
 80078be:	4845      	ldr	r0, [pc, #276]	; (80079d4 <__multiply+0x150>)
 80078c0:	f44f 71b1 	mov.w	r1, #354	; 0x162
 80078c4:	f000 fc6e 	bl	80081a4 <__assert_func>
 80078c8:	f100 0514 	add.w	r5, r0, #20
 80078cc:	eb05 0886 	add.w	r8, r5, r6, lsl #2
 80078d0:	462b      	mov	r3, r5
 80078d2:	2200      	movs	r2, #0
 80078d4:	4543      	cmp	r3, r8
 80078d6:	d321      	bcc.n	800791c <__multiply+0x98>
 80078d8:	f104 0314 	add.w	r3, r4, #20
 80078dc:	eb03 0787 	add.w	r7, r3, r7, lsl #2
 80078e0:	f109 0314 	add.w	r3, r9, #20
 80078e4:	eb03 028a 	add.w	r2, r3, sl, lsl #2
 80078e8:	9202      	str	r2, [sp, #8]
 80078ea:	1b3a      	subs	r2, r7, r4
 80078ec:	3a15      	subs	r2, #21
 80078ee:	f022 0203 	bic.w	r2, r2, #3
 80078f2:	3204      	adds	r2, #4
 80078f4:	f104 0115 	add.w	r1, r4, #21
 80078f8:	428f      	cmp	r7, r1
 80078fa:	bf38      	it	cc
 80078fc:	2204      	movcc	r2, #4
 80078fe:	9201      	str	r2, [sp, #4]
 8007900:	9a02      	ldr	r2, [sp, #8]
 8007902:	9303      	str	r3, [sp, #12]
 8007904:	429a      	cmp	r2, r3
 8007906:	d80c      	bhi.n	8007922 <__multiply+0x9e>
 8007908:	2e00      	cmp	r6, #0
 800790a:	dd03      	ble.n	8007914 <__multiply+0x90>
 800790c:	f858 3d04 	ldr.w	r3, [r8, #-4]!
 8007910:	2b00      	cmp	r3, #0
 8007912:	d05b      	beq.n	80079cc <__multiply+0x148>
 8007914:	6106      	str	r6, [r0, #16]
 8007916:	b005      	add	sp, #20
 8007918:	e8bd 8ff0 	ldmia.w	sp!, {r4, r5, r6, r7, r8, r9, sl, fp, pc}
 800791c:	f843 2b04 	str.w	r2, [r3], #4
 8007920:	e7d8      	b.n	80078d4 <__multiply+0x50>
 8007922:	f8b3 a000 	ldrh.w	sl, [r3]
 8007926:	f1ba 0f00 	cmp.w	sl, #0
 800792a:	d024      	beq.n	8007976 <__multiply+0xf2>
 800792c:	f104 0e14 	add.w	lr, r4, #20
 8007930:	46a9      	mov	r9, r5
 8007932:	f04f 0c00 	mov.w	ip, #0
 8007936:	f85e 2b04 	ldr.w	r2, [lr], #4
 800793a:	f8d9 1000 	ldr.w	r1, [r9]
 800793e:	fa1f fb82 	uxth.w	fp, r2
 8007942:	b289      	uxth	r1, r1
 8007944:	fb0a 110b 	mla	r1, sl, fp, r1
 8007948:	ea4f 4b12 	mov.w	fp, r2, lsr #16
 800794c:	f8d9 2000 	ldr.w	r2, [r9]
 8007950:	4461      	add	r1, ip
 8007952:	ea4f 4c12 	mov.w	ip, r2, lsr #16
 8007956:	fb0a c20b 	mla	r2, sl, fp, ip
 800795a:	eb02 4211 	add.w	r2, r2, r1, lsr #16
 800795e:	b289      	uxth	r1, r1
 8007960:	ea41 4102 	orr.w	r1, r1, r2, lsl #16
 8007964:	4577      	cmp	r7, lr
 8007966:	f849 1b04 	str.w	r1, [r9], #4
 800796a:	ea4f 4c12 	mov.w	ip, r2, lsr #16
 800796e:	d8e2      	bhi.n	8007936 <__multiply+0xb2>
 8007970:	9a01      	ldr	r2, [sp, #4]
 8007972:	f845 c002 	str.w	ip, [r5, r2]
 8007976:	9a03      	ldr	r2, [sp, #12]
 8007978:	f8b2 9002 	ldrh.w	r9, [r2, #2]
 800797c:	3304      	adds	r3, #4
 800797e:	f1b9 0f00 	cmp.w	r9, #0
 8007982:	d021      	beq.n	80079c8 <__multiply+0x144>
 8007984:	6829      	ldr	r1, [r5, #0]
 8007986:	f104 0c14 	add.w	ip, r4, #20
 800798a:	46ae      	mov	lr, r5
 800798c:	f04f 0a00 	mov.w	sl, #0
 8007990:	f8bc b000 	ldrh.w	fp, [ip]
 8007994:	f8be 2002 	ldrh.w	r2, [lr, #2]
 8007998:	fb09 220b 	mla	r2, r9, fp, r2
 800799c:	4452      	add	r2, sl
 800799e:	b289      	uxth	r1, r1
 80079a0:	ea41 4102 	orr.w	r1, r1, r2, lsl #16
 80079a4:	f84e 1b04 	str.w	r1, [lr], #4
 80079a8:	f85c 1b04 	ldr.w	r1, [ip], #4
 80079ac:	ea4f 4a11 	mov.w	sl, r1, lsr #16
 80079b0:	f8be 1000 	ldrh.w	r1, [lr]
 80079b4:	fb09 110a 	mla	r1, r9, sl, r1
 80079b8:	eb01 4112 	add.w	r1, r1, r2, lsr #16
 80079bc:	4567      	cmp	r7, ip
 80079be:	ea4f 4a11 	mov.w	sl, r1, lsr #16
 80079c2:	d8e5      	bhi.n	8007990 <__multiply+0x10c>
 80079c4:	9a01      	ldr	r2, [sp, #4]
 80079c6:	50a9      	str	r1, [r5, r2]
 80079c8:	3504      	adds	r5, #4
 80079ca:	e799      	b.n	8007900 <__multiply+0x7c>
 80079cc:	3e01      	subs	r6, #1
 80079ce:	e79b      	b.n	8007908 <__multiply+0x84>
 80079d0:	08008aa5 	.word	0x08008aa5
 80079d4:	08008ab6 	.word	0x08008ab6

080079d8 <__pow5mult>:
 80079d8:	e92d 43f8 	stmdb	sp!, {r3, r4, r5, r6, r7, r8, r9, lr}
 80079dc:	4615      	mov	r5, r2
 80079de:	f012 0203 	ands.w	r2, r2, #3
 80079e2:	4606      	mov	r6, r0
 80079e4:	460f      	mov	r7, r1
 80079e6:	d007      	beq.n	80079f8 <__pow5mult+0x20>
 80079e8:	4c25      	ldr	r4, [pc, #148]	; (8007a80 <__pow5mult+0xa8>)
 80079ea:	3a01      	subs	r2, #1
 80079ec:	2300      	movs	r3, #0
 80079ee:	f854 2022 	ldr.w	r2, [r4, r2, lsl #2]
 80079f2:	f7ff fe9d 	bl	8007730 <__multadd>
 80079f6:	4607      	mov	r7, r0
 80079f8:	10ad      	asrs	r5, r5, #2
 80079fa:	d03d      	beq.n	8007a78 <__pow5mult+0xa0>
 80079fc:	69f4      	ldr	r4, [r6, #28]
 80079fe:	b97c      	cbnz	r4, 8007a20 <__pow5mult+0x48>
 8007a00:	2010      	movs	r0, #16
 8007a02:	f7ff fe2b 	bl	800765c <malloc>
 8007a06:	4602      	mov	r2, r0
 8007a08:	61f0      	str	r0, [r6, #28]
 8007a0a:	b928      	cbnz	r0, 8007a18 <__pow5mult+0x40>
 8007a0c:	4b1d      	ldr	r3, [pc, #116]	; (8007a84 <__pow5mult+0xac>)
 8007a0e:	481e      	ldr	r0, [pc, #120]	; (8007a88 <__pow5mult+0xb0>)
 8007a10:	f240 11b3 	movw	r1, #435	; 0x1b3
 8007a14:	f000 fbc6 	bl	80081a4 <__assert_func>
 8007a18:	e9c0 4401 	strd	r4, r4, [r0, #4]
 8007a1c:	6004      	str	r4, [r0, #0]
 8007a1e:	60c4      	str	r4, [r0, #12]
 8007a20:	f8d6 801c 	ldr.w	r8, [r6, #28]
 8007a24:	f8d8 4008 	ldr.w	r4, [r8, #8]
 8007a28:	b94c      	cbnz	r4, 8007a3e <__pow5mult+0x66>
 8007a2a:	f240 2171 	movw	r1, #625	; 0x271
 8007a2e:	4630      	mov	r0, r6
 8007a30:	f7ff ff12 	bl	8007858 <__i2b>
 8007a34:	2300      	movs	r3, #0
 8007a36:	f8c8 0008 	str.w	r0, [r8, #8]
 8007a3a:	4604      	mov	r4, r0
 8007a3c:	6003      	str	r3, [r0, #0]
 8007a3e:	f04f 0900 	mov.w	r9, #0
 8007a42:	07eb      	lsls	r3, r5, #31
 8007a44:	d50a      	bpl.n	8007a5c <__pow5mult+0x84>
 8007a46:	4639      	mov	r1, r7
 8007a48:	4622      	mov	r2, r4
 8007a4a:	4630      	mov	r0, r6
 8007a4c:	f7ff ff1a 	bl	8007884 <__multiply>
 8007a50:	4639      	mov	r1, r7
 8007a52:	4680      	mov	r8, r0
 8007a54:	4630      	mov	r0, r6
 8007a56:	f7ff fe49 	bl	80076ec <_Bfree>
 8007a5a:	4647      	mov	r7, r8
 8007a5c:	106d      	asrs	r5, r5, #1
 8007a5e:	d00b      	beq.n	8007a78 <__pow5mult+0xa0>
 8007a60:	6820      	ldr	r0, [r4, #0]
 8007a62:	b938      	cbnz	r0, 8007a74 <__pow5mult+0x9c>
 8007a64:	4622      	mov	r2, r4
 8007a66:	4621      	mov	r1, r4
 8007a68:	4630      	mov	r0, r6
 8007a6a:	f7ff ff0b 	bl	8007884 <__multiply>
 8007a6e:	6020      	str	r0, [r4, #0]
 8007a70:	f8c0 9000 	str.w	r9, [r0]
 8007a74:	4604      	mov	r4, r0
 8007a76:	e7e4      	b.n	8007a42 <__pow5mult+0x6a>
 8007a78:	4638      	mov	r0, r7
 8007a7a:	e8bd 83f8 	ldmia.w	sp!, {r3, r4, r5, r6, r7, r8, r9, pc}
 8007a7e:	bf00      	nop
 8007a80:	08008c00 	.word	0x08008c00
 8007a84:	08008a36 	.word	0x08008a36
 8007a88:	08008ab6 	.word	0x08008ab6

08007a8c <__lshift>:
 8007a8c:	e92d 47f0 	stmdb	sp!, {r4, r5, r6, r7, r8, r9, sl, lr}
 8007a90:	460c      	mov	r4, r1
 8007a92:	6849      	ldr	r1, [r1, #4]
 8007a94:	6923      	ldr	r3, [r4, #16]
 8007a96:	eb03 1862 	add.w	r8, r3, r2, asr #5
 8007a9a:	68a3      	ldr	r3, [r4, #8]
 8007a9c:	4607      	mov	r7, r0
 8007a9e:	4691      	mov	r9, r2
 8007aa0:	ea4f 1a62 	mov.w	sl, r2, asr #5
 8007aa4:	f108 0601 	add.w	r6, r8, #1
 8007aa8:	42b3      	cmp	r3, r6
 8007aaa:	db0b      	blt.n	8007ac4 <__lshift+0x38>
 8007aac:	4638      	mov	r0, r7
 8007aae:	f7ff fddd 	bl	800766c <_Balloc>
 8007ab2:	4605      	mov	r5, r0
 8007ab4:	b948      	cbnz	r0, 8007aca <__lshift+0x3e>
 8007ab6:	4602      	mov	r2, r0
 8007ab8:	4b28      	ldr	r3, [pc, #160]	; (8007b5c <__lshift+0xd0>)
 8007aba:	4829      	ldr	r0, [pc, #164]	; (8007b60 <__lshift+0xd4>)
 8007abc:	f44f 71ef 	mov.w	r1, #478	; 0x1de
 8007ac0:	f000 fb70 	bl	80081a4 <__assert_func>
 8007ac4:	3101      	adds	r1, #1
 8007ac6:	005b      	lsls	r3, r3, #1
 8007ac8:	e7ee      	b.n	8007aa8 <__lshift+0x1c>
 8007aca:	2300      	movs	r3, #0
 8007acc:	f100 0114 	add.w	r1, r0, #20
 8007ad0:	f100 0210 	add.w	r2, r0, #16
 8007ad4:	4618      	mov	r0, r3
 8007ad6:	4553      	cmp	r3, sl
 8007ad8:	db33      	blt.n	8007b42 <__lshift+0xb6>
 8007ada:	6920      	ldr	r0, [r4, #16]
 8007adc:	ea2a 7aea 	bic.w	sl, sl, sl, asr #31
 8007ae0:	f104 0314 	add.w	r3, r4, #20
 8007ae4:	f019 091f 	ands.w	r9, r9, #31
 8007ae8:	eb01 018a 	add.w	r1, r1, sl, lsl #2
 8007aec:	eb03 0c80 	add.w	ip, r3, r0, lsl #2
 8007af0:	d02b      	beq.n	8007b4a <__lshift+0xbe>
 8007af2:	f1c9 0e20 	rsb	lr, r9, #32
 8007af6:	468a      	mov	sl, r1
 8007af8:	2200      	movs	r2, #0
 8007afa:	6818      	ldr	r0, [r3, #0]
 8007afc:	fa00 f009 	lsl.w	r0, r0, r9
 8007b00:	4310      	orrs	r0, r2
 8007b02:	f84a 0b04 	str.w	r0, [sl], #4
 8007b06:	f853 2b04 	ldr.w	r2, [r3], #4
 8007b0a:	459c      	cmp	ip, r3
 8007b0c:	fa22 f20e 	lsr.w	r2, r2, lr
 8007b10:	d8f3      	bhi.n	8007afa <__lshift+0x6e>
 8007b12:	ebac 0304 	sub.w	r3, ip, r4
 8007b16:	3b15      	subs	r3, #21
 8007b18:	f023 0303 	bic.w	r3, r3, #3
 8007b1c:	3304      	adds	r3, #4
 8007b1e:	f104 0015 	add.w	r0, r4, #21
 8007b22:	4584      	cmp	ip, r0
 8007b24:	bf38      	it	cc
 8007b26:	2304      	movcc	r3, #4
 8007b28:	50ca      	str	r2, [r1, r3]
 8007b2a:	b10a      	cbz	r2, 8007b30 <__lshift+0xa4>
 8007b2c:	f108 0602 	add.w	r6, r8, #2
 8007b30:	3e01      	subs	r6, #1
 8007b32:	4638      	mov	r0, r7
 8007b34:	612e      	str	r6, [r5, #16]
 8007b36:	4621      	mov	r1, r4
 8007b38:	f7ff fdd8 	bl	80076ec <_Bfree>
 8007b3c:	4628      	mov	r0, r5
 8007b3e:	e8bd 87f0 	ldmia.w	sp!, {r4, r5, r6, r7, r8, r9, sl, pc}
 8007b42:	f842 0f04 	str.w	r0, [r2, #4]!
 8007b46:	3301      	adds	r3, #1
 8007b48:	e7c5      	b.n	8007ad6 <__lshift+0x4a>
 8007b4a:	3904      	subs	r1, #4
 8007b4c:	f853 2b04 	ldr.w	r2, [r3], #4
 8007b50:	f841 2f04 	str.w	r2, [r1, #4]!
 8007b54:	459c      	cmp	ip, r3
 8007b56:	d8f9      	bhi.n	8007b4c <__lshift+0xc0>
 8007b58:	e7ea      	b.n	8007b30 <__lshift+0xa4>
 8007b5a:	bf00      	nop
 8007b5c:	08008aa5 	.word	0x08008aa5
 8007b60:	08008ab6 	.word	0x08008ab6

08007b64 <__mcmp>:
 8007b64:	b530      	push	{r4, r5, lr}
 8007b66:	6902      	ldr	r2, [r0, #16]
 8007b68:	690c      	ldr	r4, [r1, #16]
 8007b6a:	1b12      	subs	r2, r2, r4
 8007b6c:	d10e      	bne.n	8007b8c <__mcmp+0x28>
 8007b6e:	f100 0314 	add.w	r3, r0, #20
 8007b72:	3114      	adds	r1, #20
 8007b74:	eb03 0084 	add.w	r0, r3, r4, lsl #2
 8007b78:	eb01 0184 	add.w	r1, r1, r4, lsl #2
 8007b7c:	f850 5d04 	ldr.w	r5, [r0, #-4]!
 8007b80:	f851 4d04 	ldr.w	r4, [r1, #-4]!
 8007b84:	42a5      	cmp	r5, r4
 8007b86:	d003      	beq.n	8007b90 <__mcmp+0x2c>
 8007b88:	d305      	bcc.n	8007b96 <__mcmp+0x32>
 8007b8a:	2201      	movs	r2, #1
 8007b8c:	4610      	mov	r0, r2
 8007b8e:	bd30      	pop	{r4, r5, pc}
 8007b90:	4283      	cmp	r3, r0
 8007b92:	d3f3      	bcc.n	8007b7c <__mcmp+0x18>
 8007b94:	e7fa      	b.n	8007b8c <__mcmp+0x28>
 8007b96:	f04f 32ff 	mov.w	r2, #4294967295
 8007b9a:	e7f7      	b.n	8007b8c <__mcmp+0x28>

08007b9c <__mdiff>:
 8007b9c:	e92d 4ff8 	stmdb	sp!, {r3, r4, r5, r6, r7, r8, r9, sl, fp, lr}
 8007ba0:	460c      	mov	r4, r1
 8007ba2:	4606      	mov	r6, r0
 8007ba4:	4611      	mov	r1, r2
 8007ba6:	4620      	mov	r0, r4
 8007ba8:	4690      	mov	r8, r2
 8007baa:	f7ff ffdb 	bl	8007b64 <__mcmp>
 8007bae:	1e05      	subs	r5, r0, #0
 8007bb0:	d110      	bne.n	8007bd4 <__mdiff+0x38>
 8007bb2:	4629      	mov	r1, r5
 8007bb4:	4630      	mov	r0, r6
 8007bb6:	f7ff fd59 	bl	800766c <_Balloc>
 8007bba:	b930      	cbnz	r0, 8007bca <__mdiff+0x2e>
 8007bbc:	4b3a      	ldr	r3, [pc, #232]	; (8007ca8 <__mdiff+0x10c>)
 8007bbe:	4602      	mov	r2, r0
 8007bc0:	f240 2137 	movw	r1, #567	; 0x237
 8007bc4:	4839      	ldr	r0, [pc, #228]	; (8007cac <__mdiff+0x110>)
 8007bc6:	f000 faed 	bl	80081a4 <__assert_func>
 8007bca:	2301      	movs	r3, #1
 8007bcc:	e9c0 3504 	strd	r3, r5, [r0, #16]
 8007bd0:	e8bd 8ff8 	ldmia.w	sp!, {r3, r4, r5, r6, r7, r8, r9, sl, fp, pc}
 8007bd4:	bfa4      	itt	ge
 8007bd6:	4643      	movge	r3, r8
 8007bd8:	46a0      	movge	r8, r4
 8007bda:	4630      	mov	r0, r6
 8007bdc:	f8d8 1004 	ldr.w	r1, [r8, #4]
 8007be0:	bfa6      	itte	ge
 8007be2:	461c      	movge	r4, r3
 8007be4:	2500      	movge	r5, #0
 8007be6:	2501      	movlt	r5, #1
 8007be8:	f7ff fd40 	bl	800766c <_Balloc>
 8007bec:	b920      	cbnz	r0, 8007bf8 <__mdiff+0x5c>
 8007bee:	4b2e      	ldr	r3, [pc, #184]	; (8007ca8 <__mdiff+0x10c>)
 8007bf0:	4602      	mov	r2, r0
 8007bf2:	f240 2145 	movw	r1, #581	; 0x245
 8007bf6:	e7e5      	b.n	8007bc4 <__mdiff+0x28>
 8007bf8:	f8d8 7010 	ldr.w	r7, [r8, #16]
 8007bfc:	6926      	ldr	r6, [r4, #16]
 8007bfe:	60c5      	str	r5, [r0, #12]
 8007c00:	f104 0914 	add.w	r9, r4, #20
 8007c04:	f108 0514 	add.w	r5, r8, #20
 8007c08:	f100 0e14 	add.w	lr, r0, #20
 8007c0c:	eb05 0c87 	add.w	ip, r5, r7, lsl #2
 8007c10:	eb09 0686 	add.w	r6, r9, r6, lsl #2
 8007c14:	f108 0210 	add.w	r2, r8, #16
 8007c18:	46f2      	mov	sl, lr
 8007c1a:	2100      	movs	r1, #0
 8007c1c:	f859 3b04 	ldr.w	r3, [r9], #4
 8007c20:	f852 bf04 	ldr.w	fp, [r2, #4]!
 8007c24:	fa11 f88b 	uxtah	r8, r1, fp
 8007c28:	b299      	uxth	r1, r3
 8007c2a:	0c1b      	lsrs	r3, r3, #16
 8007c2c:	eba8 0801 	sub.w	r8, r8, r1
 8007c30:	ebc3 431b 	rsb	r3, r3, fp, lsr #16
 8007c34:	eb03 4328 	add.w	r3, r3, r8, asr #16
 8007c38:	fa1f f888 	uxth.w	r8, r8
 8007c3c:	1419      	asrs	r1, r3, #16
 8007c3e:	454e      	cmp	r6, r9
 8007c40:	ea48 4303 	orr.w	r3, r8, r3, lsl #16
 8007c44:	f84a 3b04 	str.w	r3, [sl], #4
 8007c48:	d8e8      	bhi.n	8007c1c <__mdiff+0x80>
 8007c4a:	1b33      	subs	r3, r6, r4
 8007c4c:	3b15      	subs	r3, #21
 8007c4e:	f023 0303 	bic.w	r3, r3, #3
 8007c52:	3304      	adds	r3, #4
 8007c54:	3415      	adds	r4, #21
 8007c56:	42a6      	cmp	r6, r4
 8007c58:	bf38      	it	cc
 8007c5a:	2304      	movcc	r3, #4
 8007c5c:	441d      	add	r5, r3
 8007c5e:	4473      	add	r3, lr
 8007c60:	469e      	mov	lr, r3
 8007c62:	462e      	mov	r6, r5
 8007c64:	4566      	cmp	r6, ip
 8007c66:	d30e      	bcc.n	8007c86 <__mdiff+0xea>
 8007c68:	f10c 0203 	add.w	r2, ip, #3
 8007c6c:	1b52      	subs	r2, r2, r5
 8007c6e:	f022 0203 	bic.w	r2, r2, #3
 8007c72:	3d03      	subs	r5, #3
 8007c74:	45ac      	cmp	ip, r5
 8007c76:	bf38      	it	cc
 8007c78:	2200      	movcc	r2, #0
 8007c7a:	4413      	add	r3, r2
 8007c7c:	f853 2d04 	ldr.w	r2, [r3, #-4]!
 8007c80:	b17a      	cbz	r2, 8007ca2 <__mdiff+0x106>
 8007c82:	6107      	str	r7, [r0, #16]
 8007c84:	e7a4      	b.n	8007bd0 <__mdiff+0x34>
 8007c86:	f856 8b04 	ldr.w	r8, [r6], #4
 8007c8a:	fa11 f288 	uxtah	r2, r1, r8
 8007c8e:	1414      	asrs	r4, r2, #16
 8007c90:	eb04 4418 	add.w	r4, r4, r8, lsr #16
 8007c94:	b292      	uxth	r2, r2
 8007c96:	ea42 4204 	orr.w	r2, r2, r4, lsl #16
 8007c9a:	f84e 2b04 	str.w	r2, [lr], #4
 8007c9e:	1421      	asrs	r1, r4, #16
 8007ca0:	e7e0      	b.n	8007c64 <__mdiff+0xc8>
 8007ca2:	3f01      	subs	r7, #1
 8007ca4:	e7ea      	b.n	8007c7c <__mdiff+0xe0>
 8007ca6:	bf00      	nop
 8007ca8:	08008aa5 	.word	0x08008aa5
 8007cac:	08008ab6 	.word	0x08008ab6

08007cb0 <__d2b>:
 8007cb0:	e92d 43f7 	stmdb	sp!, {r0, r1, r2, r4, r5, r6, r7, r8, r9, lr}
 8007cb4:	460f      	mov	r7, r1
 8007cb6:	2101      	movs	r1, #1
 8007cb8:	ec59 8b10 	vmov	r8, r9, d0
 8007cbc:	4616      	mov	r6, r2
 8007cbe:	f7ff fcd5 	bl	800766c <_Balloc>
 8007cc2:	4604      	mov	r4, r0
 8007cc4:	b930      	cbnz	r0, 8007cd4 <__d2b+0x24>
 8007cc6:	4602      	mov	r2, r0
 8007cc8:	4b24      	ldr	r3, [pc, #144]	; (8007d5c <__d2b+0xac>)
 8007cca:	4825      	ldr	r0, [pc, #148]	; (8007d60 <__d2b+0xb0>)
 8007ccc:	f240 310f 	movw	r1, #783	; 0x30f
 8007cd0:	f000 fa68 	bl	80081a4 <__assert_func>
 8007cd4:	f3c9 550a 	ubfx	r5, r9, #20, #11
 8007cd8:	f3c9 0313 	ubfx	r3, r9, #0, #20
 8007cdc:	bb2d      	cbnz	r5, 8007d2a <__d2b+0x7a>
 8007cde:	9301      	str	r3, [sp, #4]
 8007ce0:	f1b8 0300 	subs.w	r3, r8, #0
 8007ce4:	d026      	beq.n	8007d34 <__d2b+0x84>
 8007ce6:	4668      	mov	r0, sp
 8007ce8:	9300      	str	r3, [sp, #0]
 8007cea:	f7ff fd87 	bl	80077fc <__lo0bits>
 8007cee:	e9dd 1200 	ldrd	r1, r2, [sp]
 8007cf2:	b1e8      	cbz	r0, 8007d30 <__d2b+0x80>
 8007cf4:	f1c0 0320 	rsb	r3, r0, #32
 8007cf8:	fa02 f303 	lsl.w	r3, r2, r3
 8007cfc:	430b      	orrs	r3, r1
 8007cfe:	40c2      	lsrs	r2, r0
 8007d00:	6163      	str	r3, [r4, #20]
 8007d02:	9201      	str	r2, [sp, #4]
 8007d04:	9b01      	ldr	r3, [sp, #4]
 8007d06:	61a3      	str	r3, [r4, #24]
 8007d08:	2b00      	cmp	r3, #0
 8007d0a:	bf14      	ite	ne
 8007d0c:	2202      	movne	r2, #2
 8007d0e:	2201      	moveq	r2, #1
 8007d10:	6122      	str	r2, [r4, #16]
 8007d12:	b1bd      	cbz	r5, 8007d44 <__d2b+0x94>
 8007d14:	f2a5 4533 	subw	r5, r5, #1075	; 0x433
 8007d18:	4405      	add	r5, r0
 8007d1a:	603d      	str	r5, [r7, #0]
 8007d1c:	f1c0 0035 	rsb	r0, r0, #53	; 0x35
 8007d20:	6030      	str	r0, [r6, #0]
 8007d22:	4620      	mov	r0, r4
 8007d24:	b003      	add	sp, #12
 8007d26:	e8bd 83f0 	ldmia.w	sp!, {r4, r5, r6, r7, r8, r9, pc}
 8007d2a:	f443 1380 	orr.w	r3, r3, #1048576	; 0x100000
 8007d2e:	e7d6      	b.n	8007cde <__d2b+0x2e>
 8007d30:	6161      	str	r1, [r4, #20]
 8007d32:	e7e7      	b.n	8007d04 <__d2b+0x54>
 8007d34:	a801      	add	r0, sp, #4
 8007d36:	f7ff fd61 	bl	80077fc <__lo0bits>
 8007d3a:	9b01      	ldr	r3, [sp, #4]
 8007d3c:	6163      	str	r3, [r4, #20]
 8007d3e:	3020      	adds	r0, #32
 8007d40:	2201      	movs	r2, #1
 8007d42:	e7e5      	b.n	8007d10 <__d2b+0x60>
 8007d44:	eb04 0382 	add.w	r3, r4, r2, lsl #2
 8007d48:	f2a0 4032 	subw	r0, r0, #1074	; 0x432
 8007d4c:	6038      	str	r0, [r7, #0]
 8007d4e:	6918      	ldr	r0, [r3, #16]
 8007d50:	f7ff fd34 	bl	80077bc <__hi0bits>
 8007d54:	ebc0 1042 	rsb	r0, r0, r2, lsl #5
 8007d58:	e7e2      	b.n	8007d20 <__d2b+0x70>
 8007d5a:	bf00      	nop
 8007d5c:	08008aa5 	.word	0x08008aa5
 8007d60:	08008ab6 	.word	0x08008ab6

08007d64 <__ssputs_r>:
 8007d64:	e92d 47f0 	stmdb	sp!, {r4, r5, r6, r7, r8, r9, sl, lr}
 8007d68:	688e      	ldr	r6, [r1, #8]
 8007d6a:	461f      	mov	r7, r3
 8007d6c:	42be      	cmp	r6, r7
 8007d6e:	680b      	ldr	r3, [r1, #0]
 8007d70:	4682      	mov	sl, r0
 8007d72:	460c      	mov	r4, r1
 8007d74:	4690      	mov	r8, r2
 8007d76:	d82c      	bhi.n	8007dd2 <__ssputs_r+0x6e>
 8007d78:	898a      	ldrh	r2, [r1, #12]
 8007d7a:	f412 6f90 	tst.w	r2, #1152	; 0x480
 8007d7e:	d026      	beq.n	8007dce <__ssputs_r+0x6a>
 8007d80:	6965      	ldr	r5, [r4, #20]
 8007d82:	6909      	ldr	r1, [r1, #16]
 8007d84:	eb05 0545 	add.w	r5, r5, r5, lsl #1
 8007d88:	eba3 0901 	sub.w	r9, r3, r1
 8007d8c:	eb05 75d5 	add.w	r5, r5, r5, lsr #31
 8007d90:	1c7b      	adds	r3, r7, #1
 8007d92:	444b      	add	r3, r9
 8007d94:	106d      	asrs	r5, r5, #1
 8007d96:	429d      	cmp	r5, r3
 8007d98:	bf38      	it	cc
 8007d9a:	461d      	movcc	r5, r3
 8007d9c:	0553      	lsls	r3, r2, #21
 8007d9e:	d527      	bpl.n	8007df0 <__ssputs_r+0x8c>
 8007da0:	4629      	mov	r1, r5
 8007da2:	f7fd fed7 	bl	8005b54 <_malloc_r>
 8007da6:	4606      	mov	r6, r0
 8007da8:	b360      	cbz	r0, 8007e04 <__ssputs_r+0xa0>
 8007daa:	6921      	ldr	r1, [r4, #16]
 8007dac:	464a      	mov	r2, r9
 8007dae:	f7fe fd80 	bl	80068b2 <memcpy>
 8007db2:	89a3      	ldrh	r3, [r4, #12]
 8007db4:	f423 6390 	bic.w	r3, r3, #1152	; 0x480
 8007db8:	f043 0380 	orr.w	r3, r3, #128	; 0x80
 8007dbc:	81a3      	strh	r3, [r4, #12]
 8007dbe:	6126      	str	r6, [r4, #16]
 8007dc0:	6165      	str	r5, [r4, #20]
 8007dc2:	444e      	add	r6, r9
 8007dc4:	eba5 0509 	sub.w	r5, r5, r9
 8007dc8:	6026      	str	r6, [r4, #0]
 8007dca:	60a5      	str	r5, [r4, #8]
 8007dcc:	463e      	mov	r6, r7
 8007dce:	42be      	cmp	r6, r7
 8007dd0:	d900      	bls.n	8007dd4 <__ssputs_r+0x70>
 8007dd2:	463e      	mov	r6, r7
 8007dd4:	6820      	ldr	r0, [r4, #0]
 8007dd6:	4632      	mov	r2, r6
 8007dd8:	4641      	mov	r1, r8
 8007dda:	f000 f9c9 	bl	8008170 <memmove>
 8007dde:	68a3      	ldr	r3, [r4, #8]
 8007de0:	1b9b      	subs	r3, r3, r6
 8007de2:	60a3      	str	r3, [r4, #8]
 8007de4:	6823      	ldr	r3, [r4, #0]
 8007de6:	4433      	add	r3, r6
 8007de8:	6023      	str	r3, [r4, #0]
 8007dea:	2000      	movs	r0, #0
 8007dec:	e8bd 87f0 	ldmia.w	sp!, {r4, r5, r6, r7, r8, r9, sl, pc}
 8007df0:	462a      	mov	r2, r5
 8007df2:	f000 fa07 	bl	8008204 <_realloc_r>
 8007df6:	4606      	mov	r6, r0
 8007df8:	2800      	cmp	r0, #0
 8007dfa:	d1e0      	bne.n	8007dbe <__ssputs_r+0x5a>
 8007dfc:	6921      	ldr	r1, [r4, #16]
 8007dfe:	4650      	mov	r0, sl
 8007e00:	f7ff fbe0 	bl	80075c4 <_free_r>
 8007e04:	230c      	movs	r3, #12
 8007e06:	f8ca 3000 	str.w	r3, [sl]
 8007e0a:	89a3      	ldrh	r3, [r4, #12]
 8007e0c:	f043 0340 	orr.w	r3, r3, #64	; 0x40
 8007e10:	81a3      	strh	r3, [r4, #12]
 8007e12:	f04f 30ff 	mov.w	r0, #4294967295
 8007e16:	e7e9      	b.n	8007dec <__ssputs_r+0x88>

08007e18 <_svfiprintf_r>:
 8007e18:	e92d 4ff0 	stmdb	sp!, {r4, r5, r6, r7, r8, r9, sl, fp, lr}
 8007e1c:	4698      	mov	r8, r3
 8007e1e:	898b      	ldrh	r3, [r1, #12]
 8007e20:	061b      	lsls	r3, r3, #24
 8007e22:	b09d      	sub	sp, #116	; 0x74
 8007e24:	4607      	mov	r7, r0
 8007e26:	460d      	mov	r5, r1
 8007e28:	4614      	mov	r4, r2
 8007e2a:	d50e      	bpl.n	8007e4a <_svfiprintf_r+0x32>
 8007e2c:	690b      	ldr	r3, [r1, #16]
 8007e2e:	b963      	cbnz	r3, 8007e4a <_svfiprintf_r+0x32>
 8007e30:	2140      	movs	r1, #64	; 0x40
 8007e32:	f7fd fe8f 	bl	8005b54 <_malloc_r>
 8007e36:	6028      	str	r0, [r5, #0]
 8007e38:	6128      	str	r0, [r5, #16]
 8007e3a:	b920      	cbnz	r0, 8007e46 <_svfiprintf_r+0x2e>
 8007e3c:	230c      	movs	r3, #12
 8007e3e:	603b      	str	r3, [r7, #0]
 8007e40:	f04f 30ff 	mov.w	r0, #4294967295
 8007e44:	e0d0      	b.n	8007fe8 <_svfiprintf_r+0x1d0>
 8007e46:	2340      	movs	r3, #64	; 0x40
 8007e48:	616b      	str	r3, [r5, #20]
 8007e4a:	2300      	movs	r3, #0
 8007e4c:	9309      	str	r3, [sp, #36]	; 0x24
 8007e4e:	2320      	movs	r3, #32
 8007e50:	f88d 3029 	strb.w	r3, [sp, #41]	; 0x29
 8007e54:	f8cd 800c 	str.w	r8, [sp, #12]
 8007e58:	2330      	movs	r3, #48	; 0x30
 8007e5a:	f8df 81a4 	ldr.w	r8, [pc, #420]	; 8008000 <_svfiprintf_r+0x1e8>
 8007e5e:	f88d 302a 	strb.w	r3, [sp, #42]	; 0x2a
 8007e62:	f04f 0901 	mov.w	r9, #1
 8007e66:	4623      	mov	r3, r4
 8007e68:	469a      	mov	sl, r3
 8007e6a:	f813 2b01 	ldrb.w	r2, [r3], #1
 8007e6e:	b10a      	cbz	r2, 8007e74 <_svfiprintf_r+0x5c>
 8007e70:	2a25      	cmp	r2, #37	; 0x25
 8007e72:	d1f9      	bne.n	8007e68 <_svfiprintf_r+0x50>
 8007e74:	ebba 0b04 	subs.w	fp, sl, r4
 8007e78:	d00b      	beq.n	8007e92 <_svfiprintf_r+0x7a>
 8007e7a:	465b      	mov	r3, fp
 8007e7c:	4622      	mov	r2, r4
 8007e7e:	4629      	mov	r1, r5
 8007e80:	4638      	mov	r0, r7
 8007e82:	f7ff ff6f 	bl	8007d64 <__ssputs_r>
 8007e86:	3001      	adds	r0, #1
 8007e88:	f000 80a9 	beq.w	8007fde <_svfiprintf_r+0x1c6>
 8007e8c:	9a09      	ldr	r2, [sp, #36]	; 0x24
 8007e8e:	445a      	add	r2, fp
 8007e90:	9209      	str	r2, [sp, #36]	; 0x24
 8007e92:	f89a 3000 	ldrb.w	r3, [sl]
 8007e96:	2b00      	cmp	r3, #0
 8007e98:	f000 80a1 	beq.w	8007fde <_svfiprintf_r+0x1c6>
 8007e9c:	2300      	movs	r3, #0
 8007e9e:	f04f 32ff 	mov.w	r2, #4294967295
 8007ea2:	e9cd 2305 	strd	r2, r3, [sp, #20]
 8007ea6:	f10a 0a01 	add.w	sl, sl, #1
 8007eaa:	9304      	str	r3, [sp, #16]
 8007eac:	9307      	str	r3, [sp, #28]
 8007eae:	f88d 3053 	strb.w	r3, [sp, #83]	; 0x53
 8007eb2:	931a      	str	r3, [sp, #104]	; 0x68
 8007eb4:	4654      	mov	r4, sl
 8007eb6:	2205      	movs	r2, #5
 8007eb8:	f814 1b01 	ldrb.w	r1, [r4], #1
 8007ebc:	4850      	ldr	r0, [pc, #320]	; (8008000 <_svfiprintf_r+0x1e8>)
 8007ebe:	f7f8 f99f 	bl	8000200 <memchr>
 8007ec2:	9a04      	ldr	r2, [sp, #16]
 8007ec4:	b9d8      	cbnz	r0, 8007efe <_svfiprintf_r+0xe6>
 8007ec6:	06d0      	lsls	r0, r2, #27
 8007ec8:	bf44      	itt	mi
 8007eca:	2320      	movmi	r3, #32
 8007ecc:	f88d 3053 	strbmi.w	r3, [sp, #83]	; 0x53
 8007ed0:	0711      	lsls	r1, r2, #28
 8007ed2:	bf44      	itt	mi
 8007ed4:	232b      	movmi	r3, #43	; 0x2b
 8007ed6:	f88d 3053 	strbmi.w	r3, [sp, #83]	; 0x53
 8007eda:	f89a 3000 	ldrb.w	r3, [sl]
 8007ede:	2b2a      	cmp	r3, #42	; 0x2a
 8007ee0:	d015      	beq.n	8007f0e <_svfiprintf_r+0xf6>
 8007ee2:	9a07      	ldr	r2, [sp, #28]
 8007ee4:	4654      	mov	r4, sl
 8007ee6:	2000      	movs	r0, #0
 8007ee8:	f04f 0c0a 	mov.w	ip, #10
 8007eec:	4621      	mov	r1, r4
 8007eee:	f811 3b01 	ldrb.w	r3, [r1], #1
 8007ef2:	3b30      	subs	r3, #48	; 0x30
 8007ef4:	2b09      	cmp	r3, #9
 8007ef6:	d94d      	bls.n	8007f94 <_svfiprintf_r+0x17c>
 8007ef8:	b1b0      	cbz	r0, 8007f28 <_svfiprintf_r+0x110>
 8007efa:	9207      	str	r2, [sp, #28]
 8007efc:	e014      	b.n	8007f28 <_svfiprintf_r+0x110>
 8007efe:	eba0 0308 	sub.w	r3, r0, r8
 8007f02:	fa09 f303 	lsl.w	r3, r9, r3
 8007f06:	4313      	orrs	r3, r2
 8007f08:	9304      	str	r3, [sp, #16]
 8007f0a:	46a2      	mov	sl, r4
 8007f0c:	e7d2      	b.n	8007eb4 <_svfiprintf_r+0x9c>
 8007f0e:	9b03      	ldr	r3, [sp, #12]
 8007f10:	1d19      	adds	r1, r3, #4
 8007f12:	681b      	ldr	r3, [r3, #0]
 8007f14:	9103      	str	r1, [sp, #12]
 8007f16:	2b00      	cmp	r3, #0
 8007f18:	bfbb      	ittet	lt
 8007f1a:	425b      	neglt	r3, r3
 8007f1c:	f042 0202 	orrlt.w	r2, r2, #2
 8007f20:	9307      	strge	r3, [sp, #28]
 8007f22:	9307      	strlt	r3, [sp, #28]
 8007f24:	bfb8      	it	lt
 8007f26:	9204      	strlt	r2, [sp, #16]
 8007f28:	7823      	ldrb	r3, [r4, #0]
 8007f2a:	2b2e      	cmp	r3, #46	; 0x2e
 8007f2c:	d10c      	bne.n	8007f48 <_svfiprintf_r+0x130>
 8007f2e:	7863      	ldrb	r3, [r4, #1]
 8007f30:	2b2a      	cmp	r3, #42	; 0x2a
 8007f32:	d134      	bne.n	8007f9e <_svfiprintf_r+0x186>
 8007f34:	9b03      	ldr	r3, [sp, #12]
 8007f36:	1d1a      	adds	r2, r3, #4
 8007f38:	681b      	ldr	r3, [r3, #0]
 8007f3a:	9203      	str	r2, [sp, #12]
 8007f3c:	2b00      	cmp	r3, #0
 8007f3e:	bfb8      	it	lt
 8007f40:	f04f 33ff 	movlt.w	r3, #4294967295
 8007f44:	3402      	adds	r4, #2
 8007f46:	9305      	str	r3, [sp, #20]
 8007f48:	f8df a0c4 	ldr.w	sl, [pc, #196]	; 8008010 <_svfiprintf_r+0x1f8>
 8007f4c:	7821      	ldrb	r1, [r4, #0]
 8007f4e:	2203      	movs	r2, #3
 8007f50:	4650      	mov	r0, sl
 8007f52:	f7f8 f955 	bl	8000200 <memchr>
 8007f56:	b138      	cbz	r0, 8007f68 <_svfiprintf_r+0x150>
 8007f58:	9b04      	ldr	r3, [sp, #16]
 8007f5a:	eba0 000a 	sub.w	r0, r0, sl
 8007f5e:	2240      	movs	r2, #64	; 0x40
 8007f60:	4082      	lsls	r2, r0
 8007f62:	4313      	orrs	r3, r2
 8007f64:	3401      	adds	r4, #1
 8007f66:	9304      	str	r3, [sp, #16]
 8007f68:	f814 1b01 	ldrb.w	r1, [r4], #1
 8007f6c:	4825      	ldr	r0, [pc, #148]	; (8008004 <_svfiprintf_r+0x1ec>)
 8007f6e:	f88d 1028 	strb.w	r1, [sp, #40]	; 0x28
 8007f72:	2206      	movs	r2, #6
 8007f74:	f7f8 f944 	bl	8000200 <memchr>
 8007f78:	2800      	cmp	r0, #0
 8007f7a:	d038      	beq.n	8007fee <_svfiprintf_r+0x1d6>
 8007f7c:	4b22      	ldr	r3, [pc, #136]	; (8008008 <_svfiprintf_r+0x1f0>)
 8007f7e:	bb1b      	cbnz	r3, 8007fc8 <_svfiprintf_r+0x1b0>
 8007f80:	9b03      	ldr	r3, [sp, #12]
 8007f82:	3307      	adds	r3, #7
 8007f84:	f023 0307 	bic.w	r3, r3, #7
 8007f88:	3308      	adds	r3, #8
 8007f8a:	9303      	str	r3, [sp, #12]
 8007f8c:	9b09      	ldr	r3, [sp, #36]	; 0x24
 8007f8e:	4433      	add	r3, r6
 8007f90:	9309      	str	r3, [sp, #36]	; 0x24
 8007f92:	e768      	b.n	8007e66 <_svfiprintf_r+0x4e>
 8007f94:	fb0c 3202 	mla	r2, ip, r2, r3
 8007f98:	460c      	mov	r4, r1
 8007f9a:	2001      	movs	r0, #1
 8007f9c:	e7a6      	b.n	8007eec <_svfiprintf_r+0xd4>
 8007f9e:	2300      	movs	r3, #0
 8007fa0:	3401      	adds	r4, #1
 8007fa2:	9305      	str	r3, [sp, #20]
 8007fa4:	4619      	mov	r1, r3
 8007fa6:	f04f 0c0a 	mov.w	ip, #10
 8007faa:	4620      	mov	r0, r4
 8007fac:	f810 2b01 	ldrb.w	r2, [r0], #1
 8007fb0:	3a30      	subs	r2, #48	; 0x30
 8007fb2:	2a09      	cmp	r2, #9
 8007fb4:	d903      	bls.n	8007fbe <_svfiprintf_r+0x1a6>
 8007fb6:	2b00      	cmp	r3, #0
 8007fb8:	d0c6      	beq.n	8007f48 <_svfiprintf_r+0x130>
 8007fba:	9105      	str	r1, [sp, #20]
 8007fbc:	e7c4      	b.n	8007f48 <_svfiprintf_r+0x130>
 8007fbe:	fb0c 2101 	mla	r1, ip, r1, r2
 8007fc2:	4604      	mov	r4, r0
 8007fc4:	2301      	movs	r3, #1
 8007fc6:	e7f0      	b.n	8007faa <_svfiprintf_r+0x192>
 8007fc8:	ab03      	add	r3, sp, #12
 8007fca:	9300      	str	r3, [sp, #0]
 8007fcc:	462a      	mov	r2, r5
 8007fce:	4b0f      	ldr	r3, [pc, #60]	; (800800c <_svfiprintf_r+0x1f4>)
 8007fd0:	a904      	add	r1, sp, #16
 8007fd2:	4638      	mov	r0, r7
 8007fd4:	f7fd feea 	bl	8005dac <_printf_float>
 8007fd8:	1c42      	adds	r2, r0, #1
 8007fda:	4606      	mov	r6, r0
 8007fdc:	d1d6      	bne.n	8007f8c <_svfiprintf_r+0x174>
 8007fde:	89ab      	ldrh	r3, [r5, #12]
 8007fe0:	065b      	lsls	r3, r3, #25
 8007fe2:	f53f af2d 	bmi.w	8007e40 <_svfiprintf_r+0x28>
 8007fe6:	9809      	ldr	r0, [sp, #36]	; 0x24
 8007fe8:	b01d      	add	sp, #116	; 0x74
 8007fea:	e8bd 8ff0 	ldmia.w	sp!, {r4, r5, r6, r7, r8, r9, sl, fp, pc}
 8007fee:	ab03      	add	r3, sp, #12
 8007ff0:	9300      	str	r3, [sp, #0]
 8007ff2:	462a      	mov	r2, r5
 8007ff4:	4b05      	ldr	r3, [pc, #20]	; (800800c <_svfiprintf_r+0x1f4>)
 8007ff6:	a904      	add	r1, sp, #16
 8007ff8:	4638      	mov	r0, r7
 8007ffa:	f7fe f97b 	bl	80062f4 <_printf_i>
 8007ffe:	e7eb      	b.n	8007fd8 <_svfiprintf_r+0x1c0>
 8008000:	08008c0c 	.word	0x08008c0c
 8008004:	08008c16 	.word	0x08008c16
 8008008:	08005dad 	.word	0x08005dad
 800800c:	08007d65 	.word	0x08007d65
 8008010:	08008c12 	.word	0x08008c12

08008014 <__sflush_r>:
 8008014:	898a      	ldrh	r2, [r1, #12]
 8008016:	e92d 41f0 	stmdb	sp!, {r4, r5, r6, r7, r8, lr}
 800801a:	4605      	mov	r5, r0
 800801c:	0710      	lsls	r0, r2, #28
 800801e:	460c      	mov	r4, r1
 8008020:	d458      	bmi.n	80080d4 <__sflush_r+0xc0>
 8008022:	684b      	ldr	r3, [r1, #4]
 8008024:	2b00      	cmp	r3, #0
 8008026:	dc05      	bgt.n	8008034 <__sflush_r+0x20>
 8008028:	6c0b      	ldr	r3, [r1, #64]	; 0x40
 800802a:	2b00      	cmp	r3, #0
 800802c:	dc02      	bgt.n	8008034 <__sflush_r+0x20>
 800802e:	2000      	movs	r0, #0
 8008030:	e8bd 81f0 	ldmia.w	sp!, {r4, r5, r6, r7, r8, pc}
 8008034:	6ae6      	ldr	r6, [r4, #44]	; 0x2c
 8008036:	2e00      	cmp	r6, #0
 8008038:	d0f9      	beq.n	800802e <__sflush_r+0x1a>
 800803a:	2300      	movs	r3, #0
 800803c:	f412 5280 	ands.w	r2, r2, #4096	; 0x1000
 8008040:	682f      	ldr	r7, [r5, #0]
 8008042:	6a21      	ldr	r1, [r4, #32]
 8008044:	602b      	str	r3, [r5, #0]
 8008046:	d032      	beq.n	80080ae <__sflush_r+0x9a>
 8008048:	6d60      	ldr	r0, [r4, #84]	; 0x54
 800804a:	89a3      	ldrh	r3, [r4, #12]
 800804c:	075a      	lsls	r2, r3, #29
 800804e:	d505      	bpl.n	800805c <__sflush_r+0x48>
 8008050:	6863      	ldr	r3, [r4, #4]
 8008052:	1ac0      	subs	r0, r0, r3
 8008054:	6b63      	ldr	r3, [r4, #52]	; 0x34
 8008056:	b10b      	cbz	r3, 800805c <__sflush_r+0x48>
 8008058:	6c23      	ldr	r3, [r4, #64]	; 0x40
 800805a:	1ac0      	subs	r0, r0, r3
 800805c:	2300      	movs	r3, #0
 800805e:	4602      	mov	r2, r0
 8008060:	6ae6      	ldr	r6, [r4, #44]	; 0x2c
 8008062:	6a21      	ldr	r1, [r4, #32]
 8008064:	4628      	mov	r0, r5
 8008066:	47b0      	blx	r6
 8008068:	1c43      	adds	r3, r0, #1
 800806a:	89a3      	ldrh	r3, [r4, #12]
 800806c:	d106      	bne.n	800807c <__sflush_r+0x68>
 800806e:	6829      	ldr	r1, [r5, #0]
 8008070:	291d      	cmp	r1, #29
 8008072:	d82b      	bhi.n	80080cc <__sflush_r+0xb8>
 8008074:	4a29      	ldr	r2, [pc, #164]	; (800811c <__sflush_r+0x108>)
 8008076:	410a      	asrs	r2, r1
 8008078:	07d6      	lsls	r6, r2, #31
 800807a:	d427      	bmi.n	80080cc <__sflush_r+0xb8>
 800807c:	2200      	movs	r2, #0
 800807e:	6062      	str	r2, [r4, #4]
 8008080:	04d9      	lsls	r1, r3, #19
 8008082:	6922      	ldr	r2, [r4, #16]
 8008084:	6022      	str	r2, [r4, #0]
 8008086:	d504      	bpl.n	8008092 <__sflush_r+0x7e>
 8008088:	1c42      	adds	r2, r0, #1
 800808a:	d101      	bne.n	8008090 <__sflush_r+0x7c>
 800808c:	682b      	ldr	r3, [r5, #0]
 800808e:	b903      	cbnz	r3, 8008092 <__sflush_r+0x7e>
 8008090:	6560      	str	r0, [r4, #84]	; 0x54
 8008092:	6b61      	ldr	r1, [r4, #52]	; 0x34
 8008094:	602f      	str	r7, [r5, #0]
 8008096:	2900      	cmp	r1, #0
 8008098:	d0c9      	beq.n	800802e <__sflush_r+0x1a>
 800809a:	f104 0344 	add.w	r3, r4, #68	; 0x44
 800809e:	4299      	cmp	r1, r3
 80080a0:	d002      	beq.n	80080a8 <__sflush_r+0x94>
 80080a2:	4628      	mov	r0, r5
 80080a4:	f7ff fa8e 	bl	80075c4 <_free_r>
 80080a8:	2000      	movs	r0, #0
 80080aa:	6360      	str	r0, [r4, #52]	; 0x34
 80080ac:	e7c0      	b.n	8008030 <__sflush_r+0x1c>
 80080ae:	2301      	movs	r3, #1
 80080b0:	4628      	mov	r0, r5
 80080b2:	47b0      	blx	r6
 80080b4:	1c41      	adds	r1, r0, #1
 80080b6:	d1c8      	bne.n	800804a <__sflush_r+0x36>
 80080b8:	682b      	ldr	r3, [r5, #0]
 80080ba:	2b00      	cmp	r3, #0
 80080bc:	d0c5      	beq.n	800804a <__sflush_r+0x36>
 80080be:	2b1d      	cmp	r3, #29
 80080c0:	d001      	beq.n	80080c6 <__sflush_r+0xb2>
 80080c2:	2b16      	cmp	r3, #22
 80080c4:	d101      	bne.n	80080ca <__sflush_r+0xb6>
 80080c6:	602f      	str	r7, [r5, #0]
 80080c8:	e7b1      	b.n	800802e <__sflush_r+0x1a>
 80080ca:	89a3      	ldrh	r3, [r4, #12]
 80080cc:	f043 0340 	orr.w	r3, r3, #64	; 0x40
 80080d0:	81a3      	strh	r3, [r4, #12]
 80080d2:	e7ad      	b.n	8008030 <__sflush_r+0x1c>
 80080d4:	690f      	ldr	r7, [r1, #16]
 80080d6:	2f00      	cmp	r7, #0
 80080d8:	d0a9      	beq.n	800802e <__sflush_r+0x1a>
 80080da:	0793      	lsls	r3, r2, #30
 80080dc:	680e      	ldr	r6, [r1, #0]
 80080de:	bf08      	it	eq
 80080e0:	694b      	ldreq	r3, [r1, #20]
 80080e2:	600f      	str	r7, [r1, #0]
 80080e4:	bf18      	it	ne
 80080e6:	2300      	movne	r3, #0
 80080e8:	eba6 0807 	sub.w	r8, r6, r7
 80080ec:	608b      	str	r3, [r1, #8]
 80080ee:	f1b8 0f00 	cmp.w	r8, #0
 80080f2:	dd9c      	ble.n	800802e <__sflush_r+0x1a>
 80080f4:	6a21      	ldr	r1, [r4, #32]
 80080f6:	6aa6      	ldr	r6, [r4, #40]	; 0x28
 80080f8:	4643      	mov	r3, r8
 80080fa:	463a      	mov	r2, r7
 80080fc:	4628      	mov	r0, r5
 80080fe:	47b0      	blx	r6
 8008100:	2800      	cmp	r0, #0
 8008102:	dc06      	bgt.n	8008112 <__sflush_r+0xfe>
 8008104:	89a3      	ldrh	r3, [r4, #12]
 8008106:	f043 0340 	orr.w	r3, r3, #64	; 0x40
 800810a:	81a3      	strh	r3, [r4, #12]
 800810c:	f04f 30ff 	mov.w	r0, #4294967295
 8008110:	e78e      	b.n	8008030 <__sflush_r+0x1c>
 8008112:	4407      	add	r7, r0
 8008114:	eba8 0800 	sub.w	r8, r8, r0
 8008118:	e7e9      	b.n	80080ee <__sflush_r+0xda>
 800811a:	bf00      	nop
 800811c:	dfbffffe 	.word	0xdfbffffe

08008120 <_fflush_r>:
 8008120:	b538      	push	{r3, r4, r5, lr}
 8008122:	690b      	ldr	r3, [r1, #16]
 8008124:	4605      	mov	r5, r0
 8008126:	460c      	mov	r4, r1
 8008128:	b913      	cbnz	r3, 8008130 <_fflush_r+0x10>
 800812a:	2500      	movs	r5, #0
 800812c:	4628      	mov	r0, r5
 800812e:	bd38      	pop	{r3, r4, r5, pc}
 8008130:	b118      	cbz	r0, 800813a <_fflush_r+0x1a>
 8008132:	6a03      	ldr	r3, [r0, #32]
 8008134:	b90b      	cbnz	r3, 800813a <_fflush_r+0x1a>
 8008136:	f7fe fa8b 	bl	8006650 <__sinit>
 800813a:	f9b4 300c 	ldrsh.w	r3, [r4, #12]
 800813e:	2b00      	cmp	r3, #0
 8008140:	d0f3      	beq.n	800812a <_fflush_r+0xa>
 8008142:	6e62      	ldr	r2, [r4, #100]	; 0x64
 8008144:	07d0      	lsls	r0, r2, #31
 8008146:	d404      	bmi.n	8008152 <_fflush_r+0x32>
 8008148:	0599      	lsls	r1, r3, #22
 800814a:	d402      	bmi.n	8008152 <_fflush_r+0x32>
 800814c:	6da0      	ldr	r0, [r4, #88]	; 0x58
 800814e:	f7fe fba6 	bl	800689e <__retarget_lock_acquire_recursive>
 8008152:	4628      	mov	r0, r5
 8008154:	4621      	mov	r1, r4
 8008156:	f7ff ff5d 	bl	8008014 <__sflush_r>
 800815a:	6e63      	ldr	r3, [r4, #100]	; 0x64
 800815c:	07da      	lsls	r2, r3, #31
 800815e:	4605      	mov	r5, r0
 8008160:	d4e4      	bmi.n	800812c <_fflush_r+0xc>
 8008162:	89a3      	ldrh	r3, [r4, #12]
 8008164:	059b      	lsls	r3, r3, #22
 8008166:	d4e1      	bmi.n	800812c <_fflush_r+0xc>
 8008168:	6da0      	ldr	r0, [r4, #88]	; 0x58
 800816a:	f7fe fb99 	bl	80068a0 <__retarget_lock_release_recursive>
 800816e:	e7dd      	b.n	800812c <_fflush_r+0xc>

08008170 <memmove>:
 8008170:	4288      	cmp	r0, r1
 8008172:	b510      	push	{r4, lr}
 8008174:	eb01 0402 	add.w	r4, r1, r2
 8008178:	d902      	bls.n	8008180 <memmove+0x10>
 800817a:	4284      	cmp	r4, r0
 800817c:	4623      	mov	r3, r4
 800817e:	d807      	bhi.n	8008190 <memmove+0x20>
 8008180:	1e43      	subs	r3, r0, #1
 8008182:	42a1      	cmp	r1, r4
 8008184:	d008      	beq.n	8008198 <memmove+0x28>
 8008186:	f811 2b01 	ldrb.w	r2, [r1], #1
 800818a:	f803 2f01 	strb.w	r2, [r3, #1]!
 800818e:	e7f8      	b.n	8008182 <memmove+0x12>
 8008190:	4402      	add	r2, r0
 8008192:	4601      	mov	r1, r0
 8008194:	428a      	cmp	r2, r1
 8008196:	d100      	bne.n	800819a <memmove+0x2a>
 8008198:	bd10      	pop	{r4, pc}
 800819a:	f813 4d01 	ldrb.w	r4, [r3, #-1]!
 800819e:	f802 4d01 	strb.w	r4, [r2, #-1]!
 80081a2:	e7f7      	b.n	8008194 <memmove+0x24>

080081a4 <__assert_func>:
 80081a4:	b51f      	push	{r0, r1, r2, r3, r4, lr}
 80081a6:	4614      	mov	r4, r2
 80081a8:	461a      	mov	r2, r3
 80081aa:	4b09      	ldr	r3, [pc, #36]	; (80081d0 <__assert_func+0x2c>)
 80081ac:	681b      	ldr	r3, [r3, #0]
 80081ae:	4605      	mov	r5, r0
 80081b0:	68d8      	ldr	r0, [r3, #12]
 80081b2:	b14c      	cbz	r4, 80081c8 <__assert_func+0x24>
 80081b4:	4b07      	ldr	r3, [pc, #28]	; (80081d4 <__assert_func+0x30>)
 80081b6:	9100      	str	r1, [sp, #0]
 80081b8:	e9cd 3401 	strd	r3, r4, [sp, #4]
 80081bc:	4906      	ldr	r1, [pc, #24]	; (80081d8 <__assert_func+0x34>)
 80081be:	462b      	mov	r3, r5
 80081c0:	f000 f85c 	bl	800827c <fiprintf>
 80081c4:	f000 f86c 	bl	80082a0 <abort>
 80081c8:	4b04      	ldr	r3, [pc, #16]	; (80081dc <__assert_func+0x38>)
 80081ca:	461c      	mov	r4, r3
 80081cc:	e7f3      	b.n	80081b6 <__assert_func+0x12>
 80081ce:	bf00      	nop
 80081d0:	20000100 	.word	0x20000100
 80081d4:	08008c27 	.word	0x08008c27
 80081d8:	08008c34 	.word	0x08008c34
 80081dc:	080088d2 	.word	0x080088d2

080081e0 <__ascii_mbtowc>:
 80081e0:	b082      	sub	sp, #8
 80081e2:	b901      	cbnz	r1, 80081e6 <__ascii_mbtowc+0x6>
 80081e4:	a901      	add	r1, sp, #4
 80081e6:	b142      	cbz	r2, 80081fa <__ascii_mbtowc+0x1a>
 80081e8:	b14b      	cbz	r3, 80081fe <__ascii_mbtowc+0x1e>
 80081ea:	7813      	ldrb	r3, [r2, #0]
 80081ec:	600b      	str	r3, [r1, #0]
 80081ee:	7812      	ldrb	r2, [r2, #0]
 80081f0:	1e10      	subs	r0, r2, #0
 80081f2:	bf18      	it	ne
 80081f4:	2001      	movne	r0, #1
 80081f6:	b002      	add	sp, #8
 80081f8:	4770      	bx	lr
 80081fa:	4610      	mov	r0, r2
 80081fc:	e7fb      	b.n	80081f6 <__ascii_mbtowc+0x16>
 80081fe:	f06f 0001 	mvn.w	r0, #1
 8008202:	e7f8      	b.n	80081f6 <__ascii_mbtowc+0x16>

08008204 <_realloc_r>:
 8008204:	e92d 41f0 	stmdb	sp!, {r4, r5, r6, r7, r8, lr}
 8008208:	4680      	mov	r8, r0
 800820a:	4614      	mov	r4, r2
 800820c:	460e      	mov	r6, r1
 800820e:	b921      	cbnz	r1, 800821a <_realloc_r+0x16>
 8008210:	e8bd 41f0 	ldmia.w	sp!, {r4, r5, r6, r7, r8, lr}
 8008214:	4611      	mov	r1, r2
 8008216:	f7fd bc9d 	b.w	8005b54 <_malloc_r>
 800821a:	b92a      	cbnz	r2, 8008228 <_realloc_r+0x24>
 800821c:	f7ff f9d2 	bl	80075c4 <_free_r>
 8008220:	4625      	mov	r5, r4
 8008222:	4628      	mov	r0, r5
 8008224:	e8bd 81f0 	ldmia.w	sp!, {r4, r5, r6, r7, r8, pc}
 8008228:	f000 f841 	bl	80082ae <_malloc_usable_size_r>
 800822c:	4284      	cmp	r4, r0
 800822e:	4607      	mov	r7, r0
 8008230:	d802      	bhi.n	8008238 <_realloc_r+0x34>
 8008232:	ebb4 0f50 	cmp.w	r4, r0, lsr #1
 8008236:	d812      	bhi.n	800825e <_realloc_r+0x5a>
 8008238:	4621      	mov	r1, r4
 800823a:	4640      	mov	r0, r8
 800823c:	f7fd fc8a 	bl	8005b54 <_malloc_r>
 8008240:	4605      	mov	r5, r0
 8008242:	2800      	cmp	r0, #0
 8008244:	d0ed      	beq.n	8008222 <_realloc_r+0x1e>
 8008246:	42bc      	cmp	r4, r7
 8008248:	4622      	mov	r2, r4
 800824a:	4631      	mov	r1, r6
 800824c:	bf28      	it	cs
 800824e:	463a      	movcs	r2, r7
 8008250:	f7fe fb2f 	bl	80068b2 <memcpy>
 8008254:	4631      	mov	r1, r6
 8008256:	4640      	mov	r0, r8
 8008258:	f7ff f9b4 	bl	80075c4 <_free_r>
 800825c:	e7e1      	b.n	8008222 <_realloc_r+0x1e>
 800825e:	4635      	mov	r5, r6
 8008260:	e7df      	b.n	8008222 <_realloc_r+0x1e>

08008262 <__ascii_wctomb>:
 8008262:	b149      	cbz	r1, 8008278 <__ascii_wctomb+0x16>
 8008264:	2aff      	cmp	r2, #255	; 0xff
 8008266:	bf85      	ittet	hi
 8008268:	238a      	movhi	r3, #138	; 0x8a
 800826a:	6003      	strhi	r3, [r0, #0]
 800826c:	700a      	strbls	r2, [r1, #0]
 800826e:	f04f 30ff 	movhi.w	r0, #4294967295
 8008272:	bf98      	it	ls
 8008274:	2001      	movls	r0, #1
 8008276:	4770      	bx	lr
 8008278:	4608      	mov	r0, r1
 800827a:	4770      	bx	lr

0800827c <fiprintf>:
 800827c:	b40e      	push	{r1, r2, r3}
 800827e:	b503      	push	{r0, r1, lr}
 8008280:	4601      	mov	r1, r0
 8008282:	ab03      	add	r3, sp, #12
 8008284:	4805      	ldr	r0, [pc, #20]	; (800829c <fiprintf+0x20>)
 8008286:	f853 2b04 	ldr.w	r2, [r3], #4
 800828a:	6800      	ldr	r0, [r0, #0]
 800828c:	9301      	str	r3, [sp, #4]
 800828e:	f000 f83f 	bl	8008310 <_vfiprintf_r>
 8008292:	b002      	add	sp, #8
 8008294:	f85d eb04 	ldr.w	lr, [sp], #4
 8008298:	b003      	add	sp, #12
 800829a:	4770      	bx	lr
 800829c:	20000100 	.word	0x20000100

080082a0 <abort>:
 80082a0:	b508      	push	{r3, lr}
 80082a2:	2006      	movs	r0, #6
 80082a4:	f000 fa0c 	bl	80086c0 <raise>
 80082a8:	2001      	movs	r0, #1
 80082aa:	f7f9 fd9f 	bl	8001dec <_exit>

080082ae <_malloc_usable_size_r>:
 80082ae:	f851 3c04 	ldr.w	r3, [r1, #-4]
 80082b2:	1f18      	subs	r0, r3, #4
 80082b4:	2b00      	cmp	r3, #0
 80082b6:	bfbc      	itt	lt
 80082b8:	580b      	ldrlt	r3, [r1, r0]
 80082ba:	18c0      	addlt	r0, r0, r3
 80082bc:	4770      	bx	lr

080082be <__sfputc_r>:
 80082be:	6893      	ldr	r3, [r2, #8]
 80082c0:	3b01      	subs	r3, #1
 80082c2:	2b00      	cmp	r3, #0
 80082c4:	b410      	push	{r4}
 80082c6:	6093      	str	r3, [r2, #8]
 80082c8:	da08      	bge.n	80082dc <__sfputc_r+0x1e>
 80082ca:	6994      	ldr	r4, [r2, #24]
 80082cc:	42a3      	cmp	r3, r4
 80082ce:	db01      	blt.n	80082d4 <__sfputc_r+0x16>
 80082d0:	290a      	cmp	r1, #10
 80082d2:	d103      	bne.n	80082dc <__sfputc_r+0x1e>
 80082d4:	f85d 4b04 	ldr.w	r4, [sp], #4
 80082d8:	f000 b934 	b.w	8008544 <__swbuf_r>
 80082dc:	6813      	ldr	r3, [r2, #0]
 80082de:	1c58      	adds	r0, r3, #1
 80082e0:	6010      	str	r0, [r2, #0]
 80082e2:	7019      	strb	r1, [r3, #0]
 80082e4:	4608      	mov	r0, r1
 80082e6:	f85d 4b04 	ldr.w	r4, [sp], #4
 80082ea:	4770      	bx	lr

080082ec <__sfputs_r>:
 80082ec:	b5f8      	push	{r3, r4, r5, r6, r7, lr}
 80082ee:	4606      	mov	r6, r0
 80082f0:	460f      	mov	r7, r1
 80082f2:	4614      	mov	r4, r2
 80082f4:	18d5      	adds	r5, r2, r3
 80082f6:	42ac      	cmp	r4, r5
 80082f8:	d101      	bne.n	80082fe <__sfputs_r+0x12>
 80082fa:	2000      	movs	r0, #0
 80082fc:	e007      	b.n	800830e <__sfputs_r+0x22>
 80082fe:	f814 1b01 	ldrb.w	r1, [r4], #1
 8008302:	463a      	mov	r2, r7
 8008304:	4630      	mov	r0, r6
 8008306:	f7ff ffda 	bl	80082be <__sfputc_r>
 800830a:	1c43      	adds	r3, r0, #1
 800830c:	d1f3      	bne.n	80082f6 <__sfputs_r+0xa>
 800830e:	bdf8      	pop	{r3, r4, r5, r6, r7, pc}

08008310 <_vfiprintf_r>:
 8008310:	e92d 4ff0 	stmdb	sp!, {r4, r5, r6, r7, r8, r9, sl, fp, lr}
 8008314:	460d      	mov	r5, r1
 8008316:	b09d      	sub	sp, #116	; 0x74
 8008318:	4614      	mov	r4, r2
 800831a:	4698      	mov	r8, r3
 800831c:	4606      	mov	r6, r0
 800831e:	b118      	cbz	r0, 8008328 <_vfiprintf_r+0x18>
 8008320:	6a03      	ldr	r3, [r0, #32]
 8008322:	b90b      	cbnz	r3, 8008328 <_vfiprintf_r+0x18>
 8008324:	f7fe f994 	bl	8006650 <__sinit>
 8008328:	6e6b      	ldr	r3, [r5, #100]	; 0x64
 800832a:	07d9      	lsls	r1, r3, #31
 800832c:	d405      	bmi.n	800833a <_vfiprintf_r+0x2a>
 800832e:	89ab      	ldrh	r3, [r5, #12]
 8008330:	059a      	lsls	r2, r3, #22
 8008332:	d402      	bmi.n	800833a <_vfiprintf_r+0x2a>
 8008334:	6da8      	ldr	r0, [r5, #88]	; 0x58
 8008336:	f7fe fab2 	bl	800689e <__retarget_lock_acquire_recursive>
 800833a:	89ab      	ldrh	r3, [r5, #12]
 800833c:	071b      	lsls	r3, r3, #28
 800833e:	d501      	bpl.n	8008344 <_vfiprintf_r+0x34>
 8008340:	692b      	ldr	r3, [r5, #16]
 8008342:	b99b      	cbnz	r3, 800836c <_vfiprintf_r+0x5c>
 8008344:	4629      	mov	r1, r5
 8008346:	4630      	mov	r0, r6
 8008348:	f000 f93a 	bl	80085c0 <__swsetup_r>
 800834c:	b170      	cbz	r0, 800836c <_vfiprintf_r+0x5c>
 800834e:	6e6b      	ldr	r3, [r5, #100]	; 0x64
 8008350:	07dc      	lsls	r4, r3, #31
 8008352:	d504      	bpl.n	800835e <_vfiprintf_r+0x4e>
 8008354:	f04f 30ff 	mov.w	r0, #4294967295
 8008358:	b01d      	add	sp, #116	; 0x74
 800835a:	e8bd 8ff0 	ldmia.w	sp!, {r4, r5, r6, r7, r8, r9, sl, fp, pc}
 800835e:	89ab      	ldrh	r3, [r5, #12]
 8008360:	0598      	lsls	r0, r3, #22
 8008362:	d4f7      	bmi.n	8008354 <_vfiprintf_r+0x44>
 8008364:	6da8      	ldr	r0, [r5, #88]	; 0x58
 8008366:	f7fe fa9b 	bl	80068a0 <__retarget_lock_release_recursive>
 800836a:	e7f3      	b.n	8008354 <_vfiprintf_r+0x44>
 800836c:	2300      	movs	r3, #0
 800836e:	9309      	str	r3, [sp, #36]	; 0x24
 8008370:	2320      	movs	r3, #32
 8008372:	f88d 3029 	strb.w	r3, [sp, #41]	; 0x29
 8008376:	f8cd 800c 	str.w	r8, [sp, #12]
 800837a:	2330      	movs	r3, #48	; 0x30
 800837c:	f8df 81b0 	ldr.w	r8, [pc, #432]	; 8008530 <_vfiprintf_r+0x220>
 8008380:	f88d 302a 	strb.w	r3, [sp, #42]	; 0x2a
 8008384:	f04f 0901 	mov.w	r9, #1
 8008388:	4623      	mov	r3, r4
 800838a:	469a      	mov	sl, r3
 800838c:	f813 2b01 	ldrb.w	r2, [r3], #1
 8008390:	b10a      	cbz	r2, 8008396 <_vfiprintf_r+0x86>
 8008392:	2a25      	cmp	r2, #37	; 0x25
 8008394:	d1f9      	bne.n	800838a <_vfiprintf_r+0x7a>
 8008396:	ebba 0b04 	subs.w	fp, sl, r4
 800839a:	d00b      	beq.n	80083b4 <_vfiprintf_r+0xa4>
 800839c:	465b      	mov	r3, fp
 800839e:	4622      	mov	r2, r4
 80083a0:	4629      	mov	r1, r5
 80083a2:	4630      	mov	r0, r6
 80083a4:	f7ff ffa2 	bl	80082ec <__sfputs_r>
 80083a8:	3001      	adds	r0, #1
 80083aa:	f000 80a9 	beq.w	8008500 <_vfiprintf_r+0x1f0>
 80083ae:	9a09      	ldr	r2, [sp, #36]	; 0x24
 80083b0:	445a      	add	r2, fp
 80083b2:	9209      	str	r2, [sp, #36]	; 0x24
 80083b4:	f89a 3000 	ldrb.w	r3, [sl]
 80083b8:	2b00      	cmp	r3, #0
 80083ba:	f000 80a1 	beq.w	8008500 <_vfiprintf_r+0x1f0>
 80083be:	2300      	movs	r3, #0
 80083c0:	f04f 32ff 	mov.w	r2, #4294967295
 80083c4:	e9cd 2305 	strd	r2, r3, [sp, #20]
 80083c8:	f10a 0a01 	add.w	sl, sl, #1
 80083cc:	9304      	str	r3, [sp, #16]
 80083ce:	9307      	str	r3, [sp, #28]
 80083d0:	f88d 3053 	strb.w	r3, [sp, #83]	; 0x53
 80083d4:	931a      	str	r3, [sp, #104]	; 0x68
 80083d6:	4654      	mov	r4, sl
 80083d8:	2205      	movs	r2, #5
 80083da:	f814 1b01 	ldrb.w	r1, [r4], #1
 80083de:	4854      	ldr	r0, [pc, #336]	; (8008530 <_vfiprintf_r+0x220>)
 80083e0:	f7f7 ff0e 	bl	8000200 <memchr>
 80083e4:	9a04      	ldr	r2, [sp, #16]
 80083e6:	b9d8      	cbnz	r0, 8008420 <_vfiprintf_r+0x110>
 80083e8:	06d1      	lsls	r1, r2, #27
 80083ea:	bf44      	itt	mi
 80083ec:	2320      	movmi	r3, #32
 80083ee:	f88d 3053 	strbmi.w	r3, [sp, #83]	; 0x53
 80083f2:	0713      	lsls	r3, r2, #28
 80083f4:	bf44      	itt	mi
 80083f6:	232b      	movmi	r3, #43	; 0x2b
 80083f8:	f88d 3053 	strbmi.w	r3, [sp, #83]	; 0x53
 80083fc:	f89a 3000 	ldrb.w	r3, [sl]
 8008400:	2b2a      	cmp	r3, #42	; 0x2a
 8008402:	d015      	beq.n	8008430 <_vfiprintf_r+0x120>
 8008404:	9a07      	ldr	r2, [sp, #28]
 8008406:	4654      	mov	r4, sl
 8008408:	2000      	movs	r0, #0
 800840a:	f04f 0c0a 	mov.w	ip, #10
 800840e:	4621      	mov	r1, r4
 8008410:	f811 3b01 	ldrb.w	r3, [r1], #1
 8008414:	3b30      	subs	r3, #48	; 0x30
 8008416:	2b09      	cmp	r3, #9
 8008418:	d94d      	bls.n	80084b6 <_vfiprintf_r+0x1a6>
 800841a:	b1b0      	cbz	r0, 800844a <_vfiprintf_r+0x13a>
 800841c:	9207      	str	r2, [sp, #28]
 800841e:	e014      	b.n	800844a <_vfiprintf_r+0x13a>
 8008420:	eba0 0308 	sub.w	r3, r0, r8
 8008424:	fa09 f303 	lsl.w	r3, r9, r3
 8008428:	4313      	orrs	r3, r2
 800842a:	9304      	str	r3, [sp, #16]
 800842c:	46a2      	mov	sl, r4
 800842e:	e7d2      	b.n	80083d6 <_vfiprintf_r+0xc6>
 8008430:	9b03      	ldr	r3, [sp, #12]
 8008432:	1d19      	adds	r1, r3, #4
 8008434:	681b      	ldr	r3, [r3, #0]
 8008436:	9103      	str	r1, [sp, #12]
 8008438:	2b00      	cmp	r3, #0
 800843a:	bfbb      	ittet	lt
 800843c:	425b      	neglt	r3, r3
 800843e:	f042 0202 	orrlt.w	r2, r2, #2
 8008442:	9307      	strge	r3, [sp, #28]
 8008444:	9307      	strlt	r3, [sp, #28]
 8008446:	bfb8      	it	lt
 8008448:	9204      	strlt	r2, [sp, #16]
 800844a:	7823      	ldrb	r3, [r4, #0]
 800844c:	2b2e      	cmp	r3, #46	; 0x2e
 800844e:	d10c      	bne.n	800846a <_vfiprintf_r+0x15a>
 8008450:	7863      	ldrb	r3, [r4, #1]
 8008452:	2b2a      	cmp	r3, #42	; 0x2a
 8008454:	d134      	bne.n	80084c0 <_vfiprintf_r+0x1b0>
 8008456:	9b03      	ldr	r3, [sp, #12]
 8008458:	1d1a      	adds	r2, r3, #4
 800845a:	681b      	ldr	r3, [r3, #0]
 800845c:	9203      	str	r2, [sp, #12]
 800845e:	2b00      	cmp	r3, #0
 8008460:	bfb8      	it	lt
 8008462:	f04f 33ff 	movlt.w	r3, #4294967295
 8008466:	3402      	adds	r4, #2
 8008468:	9305      	str	r3, [sp, #20]
 800846a:	f8df a0d4 	ldr.w	sl, [pc, #212]	; 8008540 <_vfiprintf_r+0x230>
 800846e:	7821      	ldrb	r1, [r4, #0]
 8008470:	2203      	movs	r2, #3
 8008472:	4650      	mov	r0, sl
 8008474:	f7f7 fec4 	bl	8000200 <memchr>
 8008478:	b138      	cbz	r0, 800848a <_vfiprintf_r+0x17a>
 800847a:	9b04      	ldr	r3, [sp, #16]
 800847c:	eba0 000a 	sub.w	r0, r0, sl
 8008480:	2240      	movs	r2, #64	; 0x40
 8008482:	4082      	lsls	r2, r0
 8008484:	4313      	orrs	r3, r2
 8008486:	3401      	adds	r4, #1
 8008488:	9304      	str	r3, [sp, #16]
 800848a:	f814 1b01 	ldrb.w	r1, [r4], #1
 800848e:	4829      	ldr	r0, [pc, #164]	; (8008534 <_vfiprintf_r+0x224>)
 8008490:	f88d 1028 	strb.w	r1, [sp, #40]	; 0x28
 8008494:	2206      	movs	r2, #6
 8008496:	f7f7 feb3 	bl	8000200 <memchr>
 800849a:	2800      	cmp	r0, #0
 800849c:	d03f      	beq.n	800851e <_vfiprintf_r+0x20e>
 800849e:	4b26      	ldr	r3, [pc, #152]	; (8008538 <_vfiprintf_r+0x228>)
 80084a0:	bb1b      	cbnz	r3, 80084ea <_vfiprintf_r+0x1da>
 80084a2:	9b03      	ldr	r3, [sp, #12]
 80084a4:	3307      	adds	r3, #7
 80084a6:	f023 0307 	bic.w	r3, r3, #7
 80084aa:	3308      	adds	r3, #8
 80084ac:	9303      	str	r3, [sp, #12]
 80084ae:	9b09      	ldr	r3, [sp, #36]	; 0x24
 80084b0:	443b      	add	r3, r7
 80084b2:	9309      	str	r3, [sp, #36]	; 0x24
 80084b4:	e768      	b.n	8008388 <_vfiprintf_r+0x78>
 80084b6:	fb0c 3202 	mla	r2, ip, r2, r3
 80084ba:	460c      	mov	r4, r1
 80084bc:	2001      	movs	r0, #1
 80084be:	e7a6      	b.n	800840e <_vfiprintf_r+0xfe>
 80084c0:	2300      	movs	r3, #0
 80084c2:	3401      	adds	r4, #1
 80084c4:	9305      	str	r3, [sp, #20]
 80084c6:	4619      	mov	r1, r3
 80084c8:	f04f 0c0a 	mov.w	ip, #10
 80084cc:	4620      	mov	r0, r4
 80084ce:	f810 2b01 	ldrb.w	r2, [r0], #1
 80084d2:	3a30      	subs	r2, #48	; 0x30
 80084d4:	2a09      	cmp	r2, #9
 80084d6:	d903      	bls.n	80084e0 <_vfiprintf_r+0x1d0>
 80084d8:	2b00      	cmp	r3, #0
 80084da:	d0c6      	beq.n	800846a <_vfiprintf_r+0x15a>
 80084dc:	9105      	str	r1, [sp, #20]
 80084de:	e7c4      	b.n	800846a <_vfiprintf_r+0x15a>
 80084e0:	fb0c 2101 	mla	r1, ip, r1, r2
 80084e4:	4604      	mov	r4, r0
 80084e6:	2301      	movs	r3, #1
 80084e8:	e7f0      	b.n	80084cc <_vfiprintf_r+0x1bc>
 80084ea:	ab03      	add	r3, sp, #12
 80084ec:	9300      	str	r3, [sp, #0]
 80084ee:	462a      	mov	r2, r5
 80084f0:	4b12      	ldr	r3, [pc, #72]	; (800853c <_vfiprintf_r+0x22c>)
 80084f2:	a904      	add	r1, sp, #16
 80084f4:	4630      	mov	r0, r6
 80084f6:	f7fd fc59 	bl	8005dac <_printf_float>
 80084fa:	4607      	mov	r7, r0
 80084fc:	1c78      	adds	r0, r7, #1
 80084fe:	d1d6      	bne.n	80084ae <_vfiprintf_r+0x19e>
 8008500:	6e6b      	ldr	r3, [r5, #100]	; 0x64
 8008502:	07d9      	lsls	r1, r3, #31
 8008504:	d405      	bmi.n	8008512 <_vfiprintf_r+0x202>
 8008506:	89ab      	ldrh	r3, [r5, #12]
 8008508:	059a      	lsls	r2, r3, #22
 800850a:	d402      	bmi.n	8008512 <_vfiprintf_r+0x202>
 800850c:	6da8      	ldr	r0, [r5, #88]	; 0x58
 800850e:	f7fe f9c7 	bl	80068a0 <__retarget_lock_release_recursive>
 8008512:	89ab      	ldrh	r3, [r5, #12]
 8008514:	065b      	lsls	r3, r3, #25
 8008516:	f53f af1d 	bmi.w	8008354 <_vfiprintf_r+0x44>
 800851a:	9809      	ldr	r0, [sp, #36]	; 0x24
 800851c:	e71c      	b.n	8008358 <_vfiprintf_r+0x48>
 800851e:	ab03      	add	r3, sp, #12
 8008520:	9300      	str	r3, [sp, #0]
 8008522:	462a      	mov	r2, r5
 8008524:	4b05      	ldr	r3, [pc, #20]	; (800853c <_vfiprintf_r+0x22c>)
 8008526:	a904      	add	r1, sp, #16
 8008528:	4630      	mov	r0, r6
 800852a:	f7fd fee3 	bl	80062f4 <_printf_i>
 800852e:	e7e4      	b.n	80084fa <_vfiprintf_r+0x1ea>
 8008530:	08008c0c 	.word	0x08008c0c
 8008534:	08008c16 	.word	0x08008c16
 8008538:	08005dad 	.word	0x08005dad
 800853c:	080082ed 	.word	0x080082ed
 8008540:	08008c12 	.word	0x08008c12

08008544 <__swbuf_r>:
 8008544:	b5f8      	push	{r3, r4, r5, r6, r7, lr}
 8008546:	460e      	mov	r6, r1
 8008548:	4614      	mov	r4, r2
 800854a:	4605      	mov	r5, r0
 800854c:	b118      	cbz	r0, 8008556 <__swbuf_r+0x12>
 800854e:	6a03      	ldr	r3, [r0, #32]
 8008550:	b90b      	cbnz	r3, 8008556 <__swbuf_r+0x12>
 8008552:	f7fe f87d 	bl	8006650 <__sinit>
 8008556:	69a3      	ldr	r3, [r4, #24]
 8008558:	60a3      	str	r3, [r4, #8]
 800855a:	89a3      	ldrh	r3, [r4, #12]
 800855c:	071a      	lsls	r2, r3, #28
 800855e:	d525      	bpl.n	80085ac <__swbuf_r+0x68>
 8008560:	6923      	ldr	r3, [r4, #16]
 8008562:	b31b      	cbz	r3, 80085ac <__swbuf_r+0x68>
 8008564:	6823      	ldr	r3, [r4, #0]
 8008566:	6922      	ldr	r2, [r4, #16]
 8008568:	1a98      	subs	r0, r3, r2
 800856a:	6963      	ldr	r3, [r4, #20]
 800856c:	b2f6      	uxtb	r6, r6
 800856e:	4283      	cmp	r3, r0
 8008570:	4637      	mov	r7, r6
 8008572:	dc04      	bgt.n	800857e <__swbuf_r+0x3a>
 8008574:	4621      	mov	r1, r4
 8008576:	4628      	mov	r0, r5
 8008578:	f7ff fdd2 	bl	8008120 <_fflush_r>
 800857c:	b9e0      	cbnz	r0, 80085b8 <__swbuf_r+0x74>
 800857e:	68a3      	ldr	r3, [r4, #8]
 8008580:	3b01      	subs	r3, #1
 8008582:	60a3      	str	r3, [r4, #8]
 8008584:	6823      	ldr	r3, [r4, #0]
 8008586:	1c5a      	adds	r2, r3, #1
 8008588:	6022      	str	r2, [r4, #0]
 800858a:	701e      	strb	r6, [r3, #0]
 800858c:	6962      	ldr	r2, [r4, #20]
 800858e:	1c43      	adds	r3, r0, #1
 8008590:	429a      	cmp	r2, r3
 8008592:	d004      	beq.n	800859e <__swbuf_r+0x5a>
 8008594:	89a3      	ldrh	r3, [r4, #12]
 8008596:	07db      	lsls	r3, r3, #31
 8008598:	d506      	bpl.n	80085a8 <__swbuf_r+0x64>
 800859a:	2e0a      	cmp	r6, #10
 800859c:	d104      	bne.n	80085a8 <__swbuf_r+0x64>
 800859e:	4621      	mov	r1, r4
 80085a0:	4628      	mov	r0, r5
 80085a2:	f7ff fdbd 	bl	8008120 <_fflush_r>
 80085a6:	b938      	cbnz	r0, 80085b8 <__swbuf_r+0x74>
 80085a8:	4638      	mov	r0, r7
 80085aa:	bdf8      	pop	{r3, r4, r5, r6, r7, pc}
 80085ac:	4621      	mov	r1, r4
 80085ae:	4628      	mov	r0, r5
 80085b0:	f000 f806 	bl	80085c0 <__swsetup_r>
 80085b4:	2800      	cmp	r0, #0
 80085b6:	d0d5      	beq.n	8008564 <__swbuf_r+0x20>
 80085b8:	f04f 37ff 	mov.w	r7, #4294967295
 80085bc:	e7f4      	b.n	80085a8 <__swbuf_r+0x64>
	...

080085c0 <__swsetup_r>:
 80085c0:	b538      	push	{r3, r4, r5, lr}
 80085c2:	4b2a      	ldr	r3, [pc, #168]	; (800866c <__swsetup_r+0xac>)
 80085c4:	4605      	mov	r5, r0
 80085c6:	6818      	ldr	r0, [r3, #0]
 80085c8:	460c      	mov	r4, r1
 80085ca:	b118      	cbz	r0, 80085d4 <__swsetup_r+0x14>
 80085cc:	6a03      	ldr	r3, [r0, #32]
 80085ce:	b90b      	cbnz	r3, 80085d4 <__swsetup_r+0x14>
 80085d0:	f7fe f83e 	bl	8006650 <__sinit>
 80085d4:	89a3      	ldrh	r3, [r4, #12]
 80085d6:	f9b4 200c 	ldrsh.w	r2, [r4, #12]
 80085da:	0718      	lsls	r0, r3, #28
 80085dc:	d422      	bmi.n	8008624 <__swsetup_r+0x64>
 80085de:	06d9      	lsls	r1, r3, #27
 80085e0:	d407      	bmi.n	80085f2 <__swsetup_r+0x32>
 80085e2:	2309      	movs	r3, #9
 80085e4:	602b      	str	r3, [r5, #0]
 80085e6:	f042 0340 	orr.w	r3, r2, #64	; 0x40
 80085ea:	81a3      	strh	r3, [r4, #12]
 80085ec:	f04f 30ff 	mov.w	r0, #4294967295
 80085f0:	e034      	b.n	800865c <__swsetup_r+0x9c>
 80085f2:	0758      	lsls	r0, r3, #29
 80085f4:	d512      	bpl.n	800861c <__swsetup_r+0x5c>
 80085f6:	6b61      	ldr	r1, [r4, #52]	; 0x34
 80085f8:	b141      	cbz	r1, 800860c <__swsetup_r+0x4c>
 80085fa:	f104 0344 	add.w	r3, r4, #68	; 0x44
 80085fe:	4299      	cmp	r1, r3
 8008600:	d002      	beq.n	8008608 <__swsetup_r+0x48>
 8008602:	4628      	mov	r0, r5
 8008604:	f7fe ffde 	bl	80075c4 <_free_r>
 8008608:	2300      	movs	r3, #0
 800860a:	6363      	str	r3, [r4, #52]	; 0x34
 800860c:	89a3      	ldrh	r3, [r4, #12]
 800860e:	f023 0324 	bic.w	r3, r3, #36	; 0x24
 8008612:	81a3      	strh	r3, [r4, #12]
 8008614:	2300      	movs	r3, #0
 8008616:	6063      	str	r3, [r4, #4]
 8008618:	6923      	ldr	r3, [r4, #16]
 800861a:	6023      	str	r3, [r4, #0]
 800861c:	89a3      	ldrh	r3, [r4, #12]
 800861e:	f043 0308 	orr.w	r3, r3, #8
 8008622:	81a3      	strh	r3, [r4, #12]
 8008624:	6923      	ldr	r3, [r4, #16]
 8008626:	b94b      	cbnz	r3, 800863c <__swsetup_r+0x7c>
 8008628:	89a3      	ldrh	r3, [r4, #12]
 800862a:	f403 7320 	and.w	r3, r3, #640	; 0x280
 800862e:	f5b3 7f00 	cmp.w	r3, #512	; 0x200
 8008632:	d003      	beq.n	800863c <__swsetup_r+0x7c>
 8008634:	4621      	mov	r1, r4
 8008636:	4628      	mov	r0, r5
 8008638:	f000 f884 	bl	8008744 <__smakebuf_r>
 800863c:	89a0      	ldrh	r0, [r4, #12]
 800863e:	f9b4 200c 	ldrsh.w	r2, [r4, #12]
 8008642:	f010 0301 	ands.w	r3, r0, #1
 8008646:	d00a      	beq.n	800865e <__swsetup_r+0x9e>
 8008648:	2300      	movs	r3, #0
 800864a:	60a3      	str	r3, [r4, #8]
 800864c:	6963      	ldr	r3, [r4, #20]
 800864e:	425b      	negs	r3, r3
 8008650:	61a3      	str	r3, [r4, #24]
 8008652:	6923      	ldr	r3, [r4, #16]
 8008654:	b943      	cbnz	r3, 8008668 <__swsetup_r+0xa8>
 8008656:	f010 0080 	ands.w	r0, r0, #128	; 0x80
 800865a:	d1c4      	bne.n	80085e6 <__swsetup_r+0x26>
 800865c:	bd38      	pop	{r3, r4, r5, pc}
 800865e:	0781      	lsls	r1, r0, #30
 8008660:	bf58      	it	pl
 8008662:	6963      	ldrpl	r3, [r4, #20]
 8008664:	60a3      	str	r3, [r4, #8]
 8008666:	e7f4      	b.n	8008652 <__swsetup_r+0x92>
 8008668:	2000      	movs	r0, #0
 800866a:	e7f7      	b.n	800865c <__swsetup_r+0x9c>
 800866c:	20000100 	.word	0x20000100

08008670 <_raise_r>:
 8008670:	291f      	cmp	r1, #31
 8008672:	b538      	push	{r3, r4, r5, lr}
 8008674:	4604      	mov	r4, r0
 8008676:	460d      	mov	r5, r1
 8008678:	d904      	bls.n	8008684 <_raise_r+0x14>
 800867a:	2316      	movs	r3, #22
 800867c:	6003      	str	r3, [r0, #0]
 800867e:	f04f 30ff 	mov.w	r0, #4294967295
 8008682:	bd38      	pop	{r3, r4, r5, pc}
 8008684:	6bc2      	ldr	r2, [r0, #60]	; 0x3c
 8008686:	b112      	cbz	r2, 800868e <_raise_r+0x1e>
 8008688:	f852 3021 	ldr.w	r3, [r2, r1, lsl #2]
 800868c:	b94b      	cbnz	r3, 80086a2 <_raise_r+0x32>
 800868e:	4620      	mov	r0, r4
 8008690:	f000 f830 	bl	80086f4 <_getpid_r>
 8008694:	462a      	mov	r2, r5
 8008696:	4601      	mov	r1, r0
 8008698:	4620      	mov	r0, r4
 800869a:	e8bd 4038 	ldmia.w	sp!, {r3, r4, r5, lr}
 800869e:	f000 b817 	b.w	80086d0 <_kill_r>
 80086a2:	2b01      	cmp	r3, #1
 80086a4:	d00a      	beq.n	80086bc <_raise_r+0x4c>
 80086a6:	1c59      	adds	r1, r3, #1
 80086a8:	d103      	bne.n	80086b2 <_raise_r+0x42>
 80086aa:	2316      	movs	r3, #22
 80086ac:	6003      	str	r3, [r0, #0]
 80086ae:	2001      	movs	r0, #1
 80086b0:	e7e7      	b.n	8008682 <_raise_r+0x12>
 80086b2:	2400      	movs	r4, #0
 80086b4:	f842 4025 	str.w	r4, [r2, r5, lsl #2]
 80086b8:	4628      	mov	r0, r5
 80086ba:	4798      	blx	r3
 80086bc:	2000      	movs	r0, #0
 80086be:	e7e0      	b.n	8008682 <_raise_r+0x12>

080086c0 <raise>:
 80086c0:	4b02      	ldr	r3, [pc, #8]	; (80086cc <raise+0xc>)
 80086c2:	4601      	mov	r1, r0
 80086c4:	6818      	ldr	r0, [r3, #0]
 80086c6:	f7ff bfd3 	b.w	8008670 <_raise_r>
 80086ca:	bf00      	nop
 80086cc:	20000100 	.word	0x20000100

080086d0 <_kill_r>:
 80086d0:	b538      	push	{r3, r4, r5, lr}
 80086d2:	4d07      	ldr	r5, [pc, #28]	; (80086f0 <_kill_r+0x20>)
 80086d4:	2300      	movs	r3, #0
 80086d6:	4604      	mov	r4, r0
 80086d8:	4608      	mov	r0, r1
 80086da:	4611      	mov	r1, r2
 80086dc:	602b      	str	r3, [r5, #0]
 80086de:	f7f9 fb7d 	bl	8001ddc <_kill>
 80086e2:	1c43      	adds	r3, r0, #1
 80086e4:	d102      	bne.n	80086ec <_kill_r+0x1c>
 80086e6:	682b      	ldr	r3, [r5, #0]
 80086e8:	b103      	cbz	r3, 80086ec <_kill_r+0x1c>
 80086ea:	6023      	str	r3, [r4, #0]
 80086ec:	bd38      	pop	{r3, r4, r5, pc}
 80086ee:	bf00      	nop
 80086f0:	20001728 	.word	0x20001728

080086f4 <_getpid_r>:
 80086f4:	f7f9 bb70 	b.w	8001dd8 <_getpid>

080086f8 <__swhatbuf_r>:
 80086f8:	b570      	push	{r4, r5, r6, lr}
 80086fa:	460c      	mov	r4, r1
 80086fc:	f9b1 100e 	ldrsh.w	r1, [r1, #14]
 8008700:	2900      	cmp	r1, #0
 8008702:	b096      	sub	sp, #88	; 0x58
 8008704:	4615      	mov	r5, r2
 8008706:	461e      	mov	r6, r3
 8008708:	da0d      	bge.n	8008726 <__swhatbuf_r+0x2e>
 800870a:	89a3      	ldrh	r3, [r4, #12]
 800870c:	f013 0f80 	tst.w	r3, #128	; 0x80
 8008710:	f04f 0100 	mov.w	r1, #0
 8008714:	bf0c      	ite	eq
 8008716:	f44f 6380 	moveq.w	r3, #1024	; 0x400
 800871a:	2340      	movne	r3, #64	; 0x40
 800871c:	2000      	movs	r0, #0
 800871e:	6031      	str	r1, [r6, #0]
 8008720:	602b      	str	r3, [r5, #0]
 8008722:	b016      	add	sp, #88	; 0x58
 8008724:	bd70      	pop	{r4, r5, r6, pc}
 8008726:	466a      	mov	r2, sp
 8008728:	f000 f848 	bl	80087bc <_fstat_r>
 800872c:	2800      	cmp	r0, #0
 800872e:	dbec      	blt.n	800870a <__swhatbuf_r+0x12>
 8008730:	9901      	ldr	r1, [sp, #4]
 8008732:	f401 4170 	and.w	r1, r1, #61440	; 0xf000
 8008736:	f5a1 5300 	sub.w	r3, r1, #8192	; 0x2000
 800873a:	4259      	negs	r1, r3
 800873c:	4159      	adcs	r1, r3
 800873e:	f44f 6380 	mov.w	r3, #1024	; 0x400
 8008742:	e7eb      	b.n	800871c <__swhatbuf_r+0x24>

08008744 <__smakebuf_r>:
 8008744:	898b      	ldrh	r3, [r1, #12]
 8008746:	b573      	push	{r0, r1, r4, r5, r6, lr}
 8008748:	079d      	lsls	r5, r3, #30
 800874a:	4606      	mov	r6, r0
 800874c:	460c      	mov	r4, r1
 800874e:	d507      	bpl.n	8008760 <__smakebuf_r+0x1c>
 8008750:	f104 0347 	add.w	r3, r4, #71	; 0x47
 8008754:	6023      	str	r3, [r4, #0]
 8008756:	6123      	str	r3, [r4, #16]
 8008758:	2301      	movs	r3, #1
 800875a:	6163      	str	r3, [r4, #20]
 800875c:	b002      	add	sp, #8
 800875e:	bd70      	pop	{r4, r5, r6, pc}
 8008760:	ab01      	add	r3, sp, #4
 8008762:	466a      	mov	r2, sp
 8008764:	f7ff ffc8 	bl	80086f8 <__swhatbuf_r>
 8008768:	9900      	ldr	r1, [sp, #0]
 800876a:	4605      	mov	r5, r0
 800876c:	4630      	mov	r0, r6
 800876e:	f7fd f9f1 	bl	8005b54 <_malloc_r>
 8008772:	b948      	cbnz	r0, 8008788 <__smakebuf_r+0x44>
 8008774:	f9b4 300c 	ldrsh.w	r3, [r4, #12]
 8008778:	059a      	lsls	r2, r3, #22
 800877a:	d4ef      	bmi.n	800875c <__smakebuf_r+0x18>
 800877c:	f023 0303 	bic.w	r3, r3, #3
 8008780:	f043 0302 	orr.w	r3, r3, #2
 8008784:	81a3      	strh	r3, [r4, #12]
 8008786:	e7e3      	b.n	8008750 <__smakebuf_r+0xc>
 8008788:	89a3      	ldrh	r3, [r4, #12]
 800878a:	6020      	str	r0, [r4, #0]
 800878c:	f043 0380 	orr.w	r3, r3, #128	; 0x80
 8008790:	81a3      	strh	r3, [r4, #12]
 8008792:	9b00      	ldr	r3, [sp, #0]
 8008794:	6163      	str	r3, [r4, #20]
 8008796:	9b01      	ldr	r3, [sp, #4]
 8008798:	6120      	str	r0, [r4, #16]
 800879a:	b15b      	cbz	r3, 80087b4 <__smakebuf_r+0x70>
 800879c:	f9b4 100e 	ldrsh.w	r1, [r4, #14]
 80087a0:	4630      	mov	r0, r6
 80087a2:	f000 f81d 	bl	80087e0 <_isatty_r>
 80087a6:	b128      	cbz	r0, 80087b4 <__smakebuf_r+0x70>
 80087a8:	89a3      	ldrh	r3, [r4, #12]
 80087aa:	f023 0303 	bic.w	r3, r3, #3
 80087ae:	f043 0301 	orr.w	r3, r3, #1
 80087b2:	81a3      	strh	r3, [r4, #12]
 80087b4:	89a3      	ldrh	r3, [r4, #12]
 80087b6:	431d      	orrs	r5, r3
 80087b8:	81a5      	strh	r5, [r4, #12]
 80087ba:	e7cf      	b.n	800875c <__smakebuf_r+0x18>

080087bc <_fstat_r>:
 80087bc:	b538      	push	{r3, r4, r5, lr}
 80087be:	4d07      	ldr	r5, [pc, #28]	; (80087dc <_fstat_r+0x20>)
 80087c0:	2300      	movs	r3, #0
 80087c2:	4604      	mov	r4, r0
 80087c4:	4608      	mov	r0, r1
 80087c6:	4611      	mov	r1, r2
 80087c8:	602b      	str	r3, [r5, #0]
 80087ca:	f7f9 fb34 	bl	8001e36 <_fstat>
 80087ce:	1c43      	adds	r3, r0, #1
 80087d0:	d102      	bne.n	80087d8 <_fstat_r+0x1c>
 80087d2:	682b      	ldr	r3, [r5, #0]
 80087d4:	b103      	cbz	r3, 80087d8 <_fstat_r+0x1c>
 80087d6:	6023      	str	r3, [r4, #0]
 80087d8:	bd38      	pop	{r3, r4, r5, pc}
 80087da:	bf00      	nop
 80087dc:	20001728 	.word	0x20001728

080087e0 <_isatty_r>:
 80087e0:	b538      	push	{r3, r4, r5, lr}
 80087e2:	4d06      	ldr	r5, [pc, #24]	; (80087fc <_isatty_r+0x1c>)
 80087e4:	2300      	movs	r3, #0
 80087e6:	4604      	mov	r4, r0
 80087e8:	4608      	mov	r0, r1
 80087ea:	602b      	str	r3, [r5, #0]
 80087ec:	f7f9 fb28 	bl	8001e40 <_isatty>
 80087f0:	1c43      	adds	r3, r0, #1
 80087f2:	d102      	bne.n	80087fa <_isatty_r+0x1a>
 80087f4:	682b      	ldr	r3, [r5, #0]
 80087f6:	b103      	cbz	r3, 80087fa <_isatty_r+0x1a>
 80087f8:	6023      	str	r3, [r4, #0]
 80087fa:	bd38      	pop	{r3, r4, r5, pc}
 80087fc:	20001728 	.word	0x20001728

08008800 <_init>:
 8008800:	b5f8      	push	{r3, r4, r5, r6, r7, lr}
 8008802:	bf00      	nop
 8008804:	bcf8      	pop	{r3, r4, r5, r6, r7}
 8008806:	bc08      	pop	{r3}
 8008808:	469e      	mov	lr, r3
 800880a:	4770      	bx	lr

0800880c <_fini>:
 800880c:	b5f8      	push	{r3, r4, r5, r6, r7, lr}
 800880e:	bf00      	nop
 8008810:	bcf8      	pop	{r3, r4, r5, r6, r7}
 8008812:	bc08      	pop	{r3}
 8008814:	469e      	mov	lr, r3
 8008816:	4770      	bx	lr
